

Microchip MPLAB XC8 Assembler V2.32 build 20210201212658 
                                                                                               Fri Jun 18 21:43:06 2021

Microchip MPLAB XC8 C Compiler v2.32 (Free license) build 20210201212658 Og1 
     1                           	processor	16F877A
     2                           	pagewidth 120
     3                           	opt	flic
     4                           	psect	idataBANK1,global,class=CODE,delta=2,noexec
     5                           	psect	strings,global,class=STRING,delta=2,noexec
     6                           	psect	cinit,global,class=CODE,merge=1,delta=2
     7                           	psect	bssBANK0,global,class=BANK0,space=1,delta=1,noexec
     8                           	psect	bssBANK1,global,class=BANK1,space=1,delta=1,noexec
     9                           	psect	dataBANK1,global,class=BANK1,space=1,delta=1,noexec
    10                           	psect	bssBANK3,global,class=BANK3,space=1,delta=1,noexec
    11                           	psect	inittext,global,class=CODE,delta=2
    12                           	psect	clrtext,global,class=CODE,delta=2
    13                           	psect	cstackBANK1,global,class=BANK1,space=1,delta=1,noexec
    14                           	psect	cstackCOMMON,global,class=COMMON,space=1,delta=1,noexec
    15                           	psect	cstackBANK0,global,class=BANK0,space=1,delta=1,noexec
    16                           	psect	maintext,global,class=CODE,split=1,delta=2
    17                           	psect	text1,local,class=CODE,merge=1,delta=2
    18                           	psect	text2,local,class=CODE,merge=1,delta=2,group=2
    19                           	psect	text3,local,class=CODE,merge=1,delta=2,group=2
    20                           	psect	text4,local,class=CODE,merge=1,delta=2,group=2
    21                           	psect	text5,local,class=CODE,merge=1,delta=2
    22                           	psect	text6,local,class=CODE,merge=1,delta=2
    23                           	psect	text7,local,class=CODE,merge=1,delta=2
    24                           	psect	text8,local,class=CODE,merge=1,delta=2,group=1
    25                           	psect	text9,local,class=CODE,merge=1,delta=2,group=2
    26                           	psect	text10,local,class=CODE,merge=1,delta=2,group=2
    27                           	psect	text11,local,class=CODE,merge=1,delta=2
    28                           	psect	text12,local,class=CODE,merge=1,delta=2
    29                           	psect	text13,local,class=CODE,merge=1,delta=2
    30                           	psect	text14,local,class=CODE,merge=1,delta=2
    31                           	psect	text15,local,class=CODE,merge=1,delta=2,group=2
    32                           	psect	text16,local,class=CODE,merge=1,delta=2,group=2
    33                           	psect	text17,local,class=CODE,merge=1,delta=2
    34                           	psect	text18,local,class=CODE,merge=1,delta=2
    35                           	psect	text19,local,class=CODE,merge=1,delta=2
    36                           	psect	text20,local,class=CODE,merge=1,delta=2
    37                           	psect	text21,local,class=CODE,merge=1,delta=2,group=2
    38                           	psect	text22,local,class=CODE,merge=1,delta=2,group=2
    39                           	psect	text23,local,class=CODE,merge=1,delta=2,group=2
    40                           	psect	text24,local,class=CODE,merge=1,delta=2,group=2
    41                           	psect	text25,local,class=CODE,merge=1,delta=2,group=2
    42                           	psect	text26,local,class=CODE,merge=1,delta=2
    43                           	psect	text27,local,class=CODE,merge=1,delta=2,group=2
    44                           	psect	text28,local,class=CODE,merge=1,delta=2
    45                           	psect	text29,local,class=CODE,merge=1,delta=2
    46                           	psect	text30,local,class=CODE,merge=1,delta=2
    47                           	psect	text31,local,class=CODE,merge=1,delta=2
    48                           	psect	config,global,abs,ovrld,class=CONFIG,space=4,delta=2,noexec
    49                           	dabs	1,0x7E,2
    50  0000                     
    51                           ; Version 2.20
    52                           ; Generated 12/02/2020 GMT
    53                           ; 
    54                           ; Copyright © 2020, Microchip Technology Inc. and its subsidiaries ("Microchip")
    55                           ; All rights reserved.
    56                           ; 
    57                           ; This software is developed by Microchip Technology Inc. and its subsidiaries ("Microch
      +                          ip").
    58                           ; 
    59                           ; Redistribution and use in source and binary forms, with or without modification, are
    60                           ; permitted provided that the following conditions are met:
    61                           ; 
    62                           ;     1. Redistributions of source code must retain the above copyright notice, this lis
      +                          t of
    63                           ;        conditions and the following disclaimer.
    64                           ; 
    65                           ;     2. Redistributions in binary form must reproduce the above copyright notice, this 
      +                          list
    66                           ;        of conditions and the following disclaimer in the documentation and/or other
    67                           ;        materials provided with the distribution.
    68                           ; 
    69                           ;     3. Microchip's name may not be used to endorse or promote products derived from th
      +                          is
    70                           ;        software without specific prior written permission.
    71                           ; 
    72                           ; THIS SOFTWARE IS PROVIDED BY MICROCHIP "AS IS" AND ANY EXPRESS OR IMPLIED WARRANTIES,
    73                           ; INCLUDING, BUT NOT LIMITED TO, THE IMPLIED WARRANTIES OF MERCHANTABILITY AND FITNESS F
      +                          OR
    74                           ; PURPOSE ARE DISCLAIMED.  IN NO EVENT SHALL MICROCHIP BE LIABLE FOR ANY DIRECT, INDIREC
      +                          T,
    75                           ; INCIDENTAL, SPECIAL, EXEMPLARY, OR CONSEQUENTIAL DAMAGES (INCLUDING BUT NOT LIMITED TO
    76                           ; PROCUREMENT OF SUBSTITUTE GOODS OR SERVICES; LOSS OF USE, DATA OR PROFITS; OR BUSINESS
    77                           ; INTERRUPTION) HOWSOEVER CAUSED AND ON ANY THEORY OF LIABILITY, WHETHER IN CONTRACT, ST
      +                          RICT
    78                           ; LIABILITY, OR TORT (INCLUDING NEGLIGENCE OR OTHERWISE) ARISING IN ANY WAY OUT OF THE U
      +                          SE OF
    79                           ; THIS SOFTWARE, EVEN IF ADVISED OF THE POSSIBILITY OF SUCH DAMAGE.
    80                           ; 
    81                           ; 
    82                           ; Code-generator required, PIC16F877A Definitions
    83                           ; 
    84                           ; SFR Addresses
    85  0000                     	;# 
    86  0001                     	;# 
    87  0002                     	;# 
    88  0003                     	;# 
    89  0004                     	;# 
    90  0005                     	;# 
    91  0006                     	;# 
    92  0007                     	;# 
    93  0008                     	;# 
    94  0009                     	;# 
    95  000A                     	;# 
    96  000B                     	;# 
    97  000C                     	;# 
    98  000D                     	;# 
    99  000E                     	;# 
   100  000E                     	;# 
   101  000F                     	;# 
   102  0010                     	;# 
   103  0011                     	;# 
   104  0012                     	;# 
   105  0013                     	;# 
   106  0014                     	;# 
   107  0015                     	;# 
   108  0015                     	;# 
   109  0016                     	;# 
   110  0017                     	;# 
   111  0018                     	;# 
   112  0019                     	;# 
   113  001A                     	;# 
   114  001B                     	;# 
   115  001B                     	;# 
   116  001C                     	;# 
   117  001D                     	;# 
   118  001E                     	;# 
   119  001F                     	;# 
   120  0081                     	;# 
   121  0085                     	;# 
   122  0086                     	;# 
   123  0087                     	;# 
   124  0088                     	;# 
   125  0089                     	;# 
   126  008C                     	;# 
   127  008D                     	;# 
   128  008E                     	;# 
   129  0091                     	;# 
   130  0092                     	;# 
   131  0093                     	;# 
   132  0094                     	;# 
   133  0098                     	;# 
   134  0099                     	;# 
   135  009C                     	;# 
   136  009D                     	;# 
   137  009E                     	;# 
   138  009F                     	;# 
   139  010C                     	;# 
   140  010D                     	;# 
   141  010E                     	;# 
   142  010F                     	;# 
   143  018C                     	;# 
   144  018D                     	;# 
   145  0000                     	;# 
   146  0001                     	;# 
   147  0002                     	;# 
   148  0003                     	;# 
   149  0004                     	;# 
   150  0005                     	;# 
   151  0006                     	;# 
   152  0007                     	;# 
   153  0008                     	;# 
   154  0009                     	;# 
   155  000A                     	;# 
   156  000B                     	;# 
   157  000C                     	;# 
   158  000D                     	;# 
   159  000E                     	;# 
   160  000E                     	;# 
   161  000F                     	;# 
   162  0010                     	;# 
   163  0011                     	;# 
   164  0012                     	;# 
   165  0013                     	;# 
   166  0014                     	;# 
   167  0015                     	;# 
   168  0015                     	;# 
   169  0016                     	;# 
   170  0017                     	;# 
   171  0018                     	;# 
   172  0019                     	;# 
   173  001A                     	;# 
   174  001B                     	;# 
   175  001B                     	;# 
   176  001C                     	;# 
   177  001D                     	;# 
   178  001E                     	;# 
   179  001F                     	;# 
   180  0081                     	;# 
   181  0085                     	;# 
   182  0086                     	;# 
   183  0087                     	;# 
   184  0088                     	;# 
   185  0089                     	;# 
   186  008C                     	;# 
   187  008D                     	;# 
   188  008E                     	;# 
   189  0091                     	;# 
   190  0092                     	;# 
   191  0093                     	;# 
   192  0094                     	;# 
   193  0098                     	;# 
   194  0099                     	;# 
   195  009C                     	;# 
   196  009D                     	;# 
   197  009E                     	;# 
   198  009F                     	;# 
   199  010C                     	;# 
   200  010D                     	;# 
   201  010E                     	;# 
   202  010F                     	;# 
   203  018C                     	;# 
   204  018D                     	;# 
   205  0000                     	;# 
   206  0001                     	;# 
   207  0002                     	;# 
   208  0003                     	;# 
   209  0004                     	;# 
   210  0005                     	;# 
   211  0006                     	;# 
   212  0007                     	;# 
   213  0008                     	;# 
   214  0009                     	;# 
   215  000A                     	;# 
   216  000B                     	;# 
   217  000C                     	;# 
   218  000D                     	;# 
   219  000E                     	;# 
   220  000E                     	;# 
   221  000F                     	;# 
   222  0010                     	;# 
   223  0011                     	;# 
   224  0012                     	;# 
   225  0013                     	;# 
   226  0014                     	;# 
   227  0015                     	;# 
   228  0015                     	;# 
   229  0016                     	;# 
   230  0017                     	;# 
   231  0018                     	;# 
   232  0019                     	;# 
   233  001A                     	;# 
   234  001B                     	;# 
   235  001B                     	;# 
   236  001C                     	;# 
   237  001D                     	;# 
   238  001E                     	;# 
   239  001F                     	;# 
   240  0081                     	;# 
   241  0085                     	;# 
   242  0086                     	;# 
   243  0087                     	;# 
   244  0088                     	;# 
   245  0089                     	;# 
   246  008C                     	;# 
   247  008D                     	;# 
   248  008E                     	;# 
   249  0091                     	;# 
   250  0092                     	;# 
   251  0093                     	;# 
   252  0094                     	;# 
   253  0098                     	;# 
   254  0099                     	;# 
   255  009C                     	;# 
   256  009D                     	;# 
   257  009E                     	;# 
   258  009F                     	;# 
   259  010C                     	;# 
   260  010D                     	;# 
   261  010E                     	;# 
   262  010F                     	;# 
   263  018C                     	;# 
   264  018D                     	;# 
   265  0000                     	;# 
   266  0001                     	;# 
   267  0002                     	;# 
   268  0003                     	;# 
   269  0004                     	;# 
   270  0005                     	;# 
   271  0006                     	;# 
   272  0007                     	;# 
   273  0008                     	;# 
   274  0009                     	;# 
   275  000A                     	;# 
   276  000B                     	;# 
   277  000C                     	;# 
   278  000D                     	;# 
   279  000E                     	;# 
   280  000E                     	;# 
   281  000F                     	;# 
   282  0010                     	;# 
   283  0011                     	;# 
   284  0012                     	;# 
   285  0013                     	;# 
   286  0014                     	;# 
   287  0015                     	;# 
   288  0015                     	;# 
   289  0016                     	;# 
   290  0017                     	;# 
   291  0018                     	;# 
   292  0019                     	;# 
   293  001A                     	;# 
   294  001B                     	;# 
   295  001B                     	;# 
   296  001C                     	;# 
   297  001D                     	;# 
   298  001E                     	;# 
   299  001F                     	;# 
   300  0081                     	;# 
   301  0085                     	;# 
   302  0086                     	;# 
   303  0087                     	;# 
   304  0088                     	;# 
   305  0089                     	;# 
   306  008C                     	;# 
   307  008D                     	;# 
   308  008E                     	;# 
   309  0091                     	;# 
   310  0092                     	;# 
   311  0093                     	;# 
   312  0094                     	;# 
   313  0098                     	;# 
   314  0099                     	;# 
   315  009C                     	;# 
   316  009D                     	;# 
   317  009E                     	;# 
   318  009F                     	;# 
   319  010C                     	;# 
   320  010D                     	;# 
   321  010E                     	;# 
   322  010F                     	;# 
   323  018C                     	;# 
   324  018D                     	;# 
   325  0000                     	;# 
   326  0001                     	;# 
   327  0002                     	;# 
   328  0003                     	;# 
   329  0004                     	;# 
   330  0005                     	;# 
   331  0006                     	;# 
   332  0007                     	;# 
   333  0008                     	;# 
   334  0009                     	;# 
   335  000A                     	;# 
   336  000B                     	;# 
   337  000C                     	;# 
   338  000D                     	;# 
   339  000E                     	;# 
   340  000E                     	;# 
   341  000F                     	;# 
   342  0010                     	;# 
   343  0011                     	;# 
   344  0012                     	;# 
   345  0013                     	;# 
   346  0014                     	;# 
   347  0015                     	;# 
   348  0015                     	;# 
   349  0016                     	;# 
   350  0017                     	;# 
   351  0018                     	;# 
   352  0019                     	;# 
   353  001A                     	;# 
   354  001B                     	;# 
   355  001B                     	;# 
   356  001C                     	;# 
   357  001D                     	;# 
   358  001E                     	;# 
   359  001F                     	;# 
   360  0081                     	;# 
   361  0085                     	;# 
   362  0086                     	;# 
   363  0087                     	;# 
   364  0088                     	;# 
   365  0089                     	;# 
   366  008C                     	;# 
   367  008D                     	;# 
   368  008E                     	;# 
   369  0091                     	;# 
   370  0092                     	;# 
   371  0093                     	;# 
   372  0094                     	;# 
   373  0098                     	;# 
   374  0099                     	;# 
   375  009C                     	;# 
   376  009D                     	;# 
   377  009E                     	;# 
   378  009F                     	;# 
   379  010C                     	;# 
   380  010D                     	;# 
   381  010E                     	;# 
   382  010F                     	;# 
   383  018C                     	;# 
   384  018D                     	;# 
   385                           
   386                           	psect	idataBANK1
   387  117F                     __pidataBANK1:
   388                           
   389                           ;initializer for _ki
   390  117F  3401               	retlw	1
   391  1180  3400               	retlw	0
   392                           
   393                           ;initializer for _kp
   394  1181  340A               	retlw	10
   395  1182  3400               	retlw	0
   396                           
   397                           ;initializer for _setPoint
   398  1183  3488               	retlw	136
   399  1184  3413               	retlw	19
   400                           
   401                           ;initializer for _menu
   402  1185  3401               	retlw	1
   403  1186  3400               	retlw	0
   404                           
   405                           	psect	strings
   406  1000                     __pstrings:
   407  1000                     stringtab:
   408  1000                     __stringtab:
   409                           
   410                           ;	String table - string pointers are 1 byte each
   411  1000  1BFF               	btfsc	btemp+1,7
   412  1001  280A               	ljmp	stringcode
   413  1002  1383               	bcf	3,7
   414  1003  187F               	btfsc	btemp+1,0
   415  1004  1783               	bsf	3,7
   416  1005  0800               	movf	0,w
   417  1006  0A84               	incf	4,f
   418  1007  1903               	skipnz
   419  1008  0AFF               	incf	btemp+1,f
   420  1009  0008               	return
   421  100A                     stringcode:
   422  100A                     stringdir:
   423  100A  3010               	movlw	high stringdir
   424  100B  008A               	movwf	10
   425  100C  0804               	movf	4,w
   426  100D  0A84               	incf	4,f
   427  100E  0782               	addwf	2,f
   428  100F                     __stringbase:
   429  100F  3400               	retlw	0
   430  1010                     __end_of__stringtab:
   431  1010                     _dpowers:
   432  1010  3401               	retlw	1
   433  1011  3400               	retlw	0
   434  1012  340A               	retlw	10
   435  1013  3400               	retlw	0
   436  1014  3464               	retlw	100
   437  1015  3400               	retlw	0
   438  1016  34E8               	retlw	232
   439  1017  3403               	retlw	3
   440  1018  3410               	retlw	16
   441  1019  3427               	retlw	39
   442  101A                     __end_of_dpowers:
   443  0009                     _PORTEbits	set	9
   444  0008                     _PORTD	set	8
   445  001E                     _ADRESH	set	30
   446  001F                     _ADCON0	set	31
   447  001B                     _CCPR2L	set	27
   448  0015                     _CCPR1L	set	21
   449  00FA                     _GO_nDONE	set	250
   450  0091                     _T2CKPS1	set	145
   451  0090                     _T2CKPS0	set	144
   452  00EA                     _CCP2M2	set	234
   453  00EB                     _CCP2M3	set	235
   454  0092                     _TMR2ON	set	146
   455  00BA                     _CCP1M2	set	186
   456  00BB                     _CCP1M3	set	187
   457  00EC                     _CCP2Y	set	236
   458  00ED                     _CCP2X	set	237
   459  00BC                     _CCP1Y	set	188
   460  00BD                     _CCP1X	set	189
   461  0033                     _RB3	set	51
   462  0032                     _RB2	set	50
   463  0031                     _RB1	set	49
   464  0030                     _RB0	set	48
   465  009E                     _ADRESL	set	158
   466  009F                     _ADCON1	set	159
   467  0092                     _PR2	set	146
   468  0089                     _TRISE	set	137
   469  0088                     _TRISD	set	136
   470  0087                     _TRISC	set	135
   471  0086                     _TRISB	set	134
   472  0085                     _TRISA	set	133
   473  0439                     _TRISC1	set	1081
   474  043A                     _TRISC2	set	1082
   475  101A                     STR_5:
   476  101A  344B               	retlw	75	;'K'
   477  101B  3450               	retlw	80	;'P'
   478  101C  343A               	retlw	58	;':'
   479  101D  3420               	retlw	32	;' '
   480  101E  3420               	retlw	32	;' '
   481  101F  3420               	retlw	32	;' '
   482  1020  3420               	retlw	32	;' '
   483  1021  3420               	retlw	32	;' '
   484  1022  344B               	retlw	75	;'K'
   485  1023  3444               	retlw	68	;'D'
   486  1024  343A               	retlw	58	;':'
   487  1025  3400               	retlw	0
   488  1026                     STR_4:
   489  1026  3454               	retlw	84	;'T'
   490  1027  3450               	retlw	80	;'P'
   491  1028  343A               	retlw	58	;':'
   492  1029  3420               	retlw	32	;' '
   493  102A  3420               	retlw	32	;' '
   494  102B  3443               	retlw	67	;'C'
   495  102C  3420               	retlw	32	;' '
   496  102D  3420               	retlw	32	;' '
   497  102E  344B               	retlw	75	;'K'
   498  102F  3449               	retlw	73	;'I'
   499  1030  343A               	retlw	58	;':'
   500  1031  3400               	retlw	0
   501  1032                     STR_1:
   502  1032  3425               	retlw	37	;'%'
   503  1033  3464               	retlw	100	;'d'
   504  1034  3400               	retlw	0
   505  1032                     
   506                           	psect	cinit
   507  07DB                     start_initialization:	
   508                           ; #config settings
   509                           
   510  07DB                     __initialization:
   511                           
   512                           ; Initialize objects allocated to BANK1
   513  07DB  1383               	bcf	3,7	;select IRP bank0
   514  07DC  30F0               	movlw	low (__pdataBANK1+8)
   515  07DD  00FD               	movwf	btemp+-1
   516  07DE  3011               	movlw	high __pidataBANK1
   517  07DF  00FE               	movwf	btemp
   518  07E0  307F               	movlw	low __pidataBANK1
   519  07E1  00FF               	movwf	btemp+1
   520  07E2  30E8               	movlw	low __pdataBANK1
   521  07E3  0084               	movwf	4
   522  07E4  160A  118A  21B4  120A  118A  	fcall	init_ram0
   523                           
   524                           ; Clear objects allocated to BANK3
   525  07E9  1783               	bsf	3,7	;select IRP bank2
   526  07EA  3090               	movlw	low __pbssBANK3
   527  07EB  0084               	movwf	4
   528  07EC  30CA               	movlw	low (__pbssBANK3+58)
   529  07ED  160A  118A  2177  120A  118A  	fcall	clear_ram0
   530                           
   531                           ; Clear objects allocated to BANK1
   532  07F2  1383               	bcf	3,7	;select IRP bank0
   533  07F3  30D9               	movlw	low __pbssBANK1
   534  07F4  0084               	movwf	4
   535  07F5  30E8               	movlw	low (__pbssBANK1+15)
   536  07F6  160A  118A  2177  120A  118A  	fcall	clear_ram0
   537                           
   538                           ; Clear objects allocated to BANK0
   539  07FB  01EF               	clrf	__pbssBANK0& (0+127)
   540  07FC                     end_of_initialization:	
   541                           ;End of C runtime variable initialization code
   542                           
   543  07FC                     __end_of__initialization:
   544  07FC  0183               	clrf	3
   545  07FD  160A  118A  2E6C   	ljmp	_main	;jump to C main() function
   546                           
   547                           	psect	bssBANK0
   548  006F                     __pbssBANK0:
   549  006F                     controlarValores@S1Atual:
   550  006F                     	ds	1
   551                           
   552                           	psect	bssBANK1
   553  00D9                     __pbssBANK1:
   554  00D9                     _temperatura:
   555  00D9                     	ds	4
   556  00DD                     _kd:
   557  00DD                     	ds	2
   558  00DF                     _setPointReferencia:
   559  00DF                     	ds	2
   560  00E1                     controlarValores@S4Atual:
   561  00E1                     	ds	1
   562  00E2                     controlarValores@S4Anterior:
   563  00E2                     	ds	1
   564  00E3                     controlarValores@S3Atual:
   565  00E3                     	ds	1
   566  00E4                     controlarValores@S3Anterior:
   567  00E4                     	ds	1
   568  00E5                     controlarValores@S2Atual:
   569  00E5                     	ds	1
   570  00E6                     controlarValores@S2Anterior:
   571  00E6                     	ds	1
   572  00E7                     controlarValores@S1Anterior:
   573  00E7                     	ds	1
   574                           
   575                           	psect	dataBANK1
   576  00E8                     __pdataBANK1:
   577  00E8                     _ki:
   578  00E8                     	ds	2
   579  00EA                     _kp:
   580  00EA                     	ds	2
   581  00EC                     _setPoint:
   582  00EC                     	ds	2
   583  00EE                     _menu:
   584  00EE                     	ds	2
   585                           
   586                           	psect	bssBANK3
   587  0190                     __pbssBANK3:
   588  0190                     _PID:
   589  0190                     	ds	4
   590  0194                     _derivativo:
   591  0194                     	ds	4
   592  0198                     _integral:
   593  0198                     	ds	4
   594  019C                     _proporcional:
   595  019C                     	ds	4
   596  01A0                     _erro:
   597  01A0                     	ds	4
   598  01A4                     _temperaturaReferencia:
   599  01A4                     	ds	4
   600  01A8                     _kpReferencia:
   601  01A8                     	ds	2
   602  01AA                     _string:
   603  01AA                     	ds	32
   604                           
   605                           	psect	inittext
   606  11B0                     init_fetch0:	
   607                           ;	Called with low address in FSR and high address in W
   608                           
   609  11B0  087E               	movf	btemp,w
   610  11B1  008A               	movwf	10
   611  11B2  087F               	movf	btemp+1,w
   612  11B3  0082               	movwf	2
   613  11B4                     init_ram0:	
   614                           ;Called with:
   615                           ;	high address of idata address in btemp 
   616                           ;	low address of idata address in btemp+1 
   617                           ;	low address of data in FSR
   618                           ;	high address + 1 of data in btemp-1
   619                           
   620  11B4  160A  118A  21B0  160A  118A  	fcall	init_fetch0
   621  11B9  0080               	movwf	0
   622  11BA  0A84               	incf	4,f
   623  11BB  0804               	movf	4,w
   624  11BC  067D               	xorwf	btemp+-1,w
   625  11BD  1903               	btfsc	3,2
   626  11BE  3400               	retlw	0
   627  11BF  0AFF               	incf	btemp+1,f
   628  11C0  1903               	btfsc	3,2
   629  11C1  0AFE               	incf	btemp,f
   630  11C2  29B4               	goto	init_ram0
   631                           
   632                           	psect	clrtext
   633  1177                     clear_ram0:	
   634                           ;	Called with FSR containing the base address, and
   635                           ;	W with the last address+1
   636                           
   637  1177  0064               	clrwdt	;clear the watchdog before getting into this loop
   638  1178                     clrloop0:
   639  1178  0180               	clrf	0	;clear RAM location pointed to by FSR
   640  1179  0A84               	incf	4,f	;increment pointer
   641  117A  0604               	xorwf	4,w	;XOR with final address
   642  117B  1903               	btfsc	3,2	;have we reached the end yet?
   643  117C  3400               	retlw	0	;all done for this memory range, return
   644  117D  0604               	xorwf	4,w	;XOR again to restore value
   645  117E  2978               	goto	clrloop0	;do the next byte
   646                           
   647                           	psect	cstackBANK1
   648  00A0                     __pcstackBANK1:
   649  00A0                     ?___flsub:
   650  00A0                     ___flsub@a:	
   651                           ; 4 bytes @ 0x0
   652                           
   653                           
   654                           ; 4 bytes @ 0x0
   655  00A0                     	ds	4
   656  00A4                     ___flsub@b:
   657                           
   658                           ; 4 bytes @ 0x4
   659  00A4                     	ds	4
   660  00A8                     ?___fldiv:
   661  00A8                     ___fldiv@a:	
   662                           ; 4 bytes @ 0x8
   663                           
   664                           
   665                           ; 4 bytes @ 0x8
   666  00A8                     	ds	4
   667  00AC                     ___fldiv@b:
   668                           
   669                           ; 4 bytes @ 0xC
   670  00AC                     	ds	4
   671  00B0                     ___fldiv@rem:
   672                           
   673                           ; 4 bytes @ 0x10
   674  00B0                     	ds	4
   675  00B4                     ___fldiv@sign:
   676                           
   677                           ; 1 bytes @ 0x14
   678  00B4                     	ds	1
   679  00B5                     ___fldiv@new_exp:
   680                           
   681                           ; 2 bytes @ 0x15
   682  00B5                     	ds	2
   683  00B7                     ___fldiv@grs:
   684                           
   685                           ; 4 bytes @ 0x17
   686  00B7                     	ds	4
   687  00BB                     ___fldiv@bexp:
   688                           
   689                           ; 1 bytes @ 0x1B
   690  00BB                     	ds	1
   691  00BC                     ___fldiv@aexp:
   692                           
   693                           ; 1 bytes @ 0x1C
   694  00BC                     	ds	1
   695  00BD                     ?_PWM1_Duty:
   696  00BD                     ?_PWM2_Duty:	
   697                           ; 1 bytes @ 0x1D
   698                           
   699  00BD                     PWM1_Duty@duty:	
   700                           ; 1 bytes @ 0x1D
   701                           
   702  00BD                     PWM2_Duty@duty:	
   703                           ; 2 bytes @ 0x1D
   704                           
   705                           
   706                           ; 2 bytes @ 0x1D
   707  00BD                     	ds	2
   708  00BF                     PWM1_Duty@freq:
   709  00BF                     PWM2_Duty@freq:	
   710                           ; 2 bytes @ 0x1F
   711                           
   712                           
   713                           ; 2 bytes @ 0x1F
   714  00BF                     	ds	2
   715  00C1                     ??_PWM1_Duty:
   716  00C1                     ??_PWM2_Duty:	
   717                           ; 1 bytes @ 0x21
   718                           
   719                           
   720                           ; 1 bytes @ 0x21
   721  00C1                     	ds	2
   722  00C3                     ??_realizarCalculo:
   723  00C3                     controlarCooler@cooler:	
   724                           ; 1 bytes @ 0x23
   725                           
   726                           
   727                           ; 2 bytes @ 0x23
   728  00C3                     	ds	8
   729  00CB                     _realizarCalculo$845:
   730                           
   731                           ; 4 bytes @ 0x2B
   732  00CB                     	ds	4
   733  00CF                     _realizarCalculo$846:
   734                           
   735                           ; 4 bytes @ 0x2F
   736  00CF                     	ds	4
   737  00D3                     _realizarCalculo$847:
   738                           
   739                           ; 4 bytes @ 0x33
   740  00D3                     	ds	4
   741  00D7                     _realizarCalculo$848:
   742                           
   743                           ; 2 bytes @ 0x37
   744  00D7                     	ds	2
   745                           
   746                           	psect	cstackCOMMON
   747  0070                     __pcstackCOMMON:
   748  0070                     ?_lcd_cmd:
   749  0070                     ?_ADC_Init:	
   750                           ; 1 bytes @ 0x0
   751                           
   752  0070                     ??_ADC_Init:	
   753                           ; 1 bytes @ 0x0
   754                           
   755  0070                     ?_PWM1_Start:	
   756                           ; 1 bytes @ 0x0
   757                           
   758  0070                     ??_PWM1_Start:	
   759                           ; 1 bytes @ 0x0
   760                           
   761  0070                     ?_PWM2_Start:	
   762                           ; 1 bytes @ 0x0
   763                           
   764  0070                     ??_PWM2_Start:	
   765                           ; 1 bytes @ 0x0
   766                           
   767  0070                     ?_lcd_init:	
   768                           ; 1 bytes @ 0x0
   769                           
   770  0070                     ?_controlarValores:	
   771                           ; 1 bytes @ 0x0
   772                           
   773  0070                     ??_controlarValores:	
   774                           ; 1 bytes @ 0x0
   775                           
   776  0070                     ?_imprimirValoresLcd:	
   777                           ; 1 bytes @ 0x0
   778                           
   779  0070                     ?_realizarCalculo:	
   780                           ; 1 bytes @ 0x0
   781                           
   782  0070                     ?_controlarCooler:	
   783                           ; 1 bytes @ 0x0
   784                           
   785  0070                     ?_main:	
   786                           ; 1 bytes @ 0x0
   787                           
   788  0070                     ?_lcd_wr:	
   789                           ; 1 bytes @ 0x0
   790                           
   791  0070                     ??_lcd_wr:	
   792                           ; 1 bytes @ 0x0
   793                           
   794  0070                     ?_lcd_dat:	
   795                           ; 1 bytes @ 0x0
   796                           
   797  0070                     ?_ADC_Read:	
   798                           ; 1 bytes @ 0x0
   799                           
   800  0070                     ?__Umul8_16:	
   801                           ; 2 bytes @ 0x0
   802                           
   803  0070                     ?___awmod:	
   804                           ; 2 bytes @ 0x0
   805                           
   806  0070                     ?___lwdiv:	
   807                           ; 2 bytes @ 0x0
   808                           
   809  0070                     ?___aldiv:	
   810                           ; 2 bytes @ 0x0
   811                           
   812  0070                     lcd_wr@val:	
   813                           ; 4 bytes @ 0x0
   814                           
   815  0070                     __Umul8_16@multiplicand:	
   816                           ; 1 bytes @ 0x0
   817                           
   818  0070                     ___awmod@divisor:	
   819                           ; 1 bytes @ 0x0
   820                           
   821  0070                     ___lwdiv@divisor:	
   822                           ; 2 bytes @ 0x0
   823                           
   824  0070                     ___aldiv@divisor:	
   825                           ; 2 bytes @ 0x0
   826                           
   827                           
   828                           ; 4 bytes @ 0x0
   829  0070                     	ds	1
   830  0071                     ??_lcd_cmd:
   831  0071                     ??_lcd_dat:	
   832                           ; 1 bytes @ 0x1
   833                           
   834  0071                     lcd_cmd@val:	
   835                           ; 1 bytes @ 0x1
   836                           
   837  0071                     lcd_dat@val:	
   838                           ; 1 bytes @ 0x1
   839                           
   840                           
   841                           ; 1 bytes @ 0x1
   842  0071                     	ds	1
   843  0072                     ?_lcd_str:
   844  0072                     ??_ADC_Read:	
   845                           ; 1 bytes @ 0x2
   846                           
   847  0072                     ??_lcd_init:	
   848                           ; 1 bytes @ 0x2
   849                           
   850  0072                     ??__Umul8_16:	
   851                           ; 1 bytes @ 0x2
   852                           
   853  0072                     lcd_str@str:	
   854                           ; 1 bytes @ 0x2
   855                           
   856  0072                     ___awmod@dividend:	
   857                           ; 2 bytes @ 0x2
   858                           
   859  0072                     ___lwdiv@dividend:	
   860                           ; 2 bytes @ 0x2
   861                           
   862                           
   863                           ; 2 bytes @ 0x2
   864  0072                     	ds	2
   865  0074                     ??_lcd_str:
   866  0074                     ??___awmod:	
   867                           ; 1 bytes @ 0x4
   868                           
   869  0074                     ??___lwdiv:	
   870                           ; 1 bytes @ 0x4
   871                           
   872  0074                     ADC_Read@channel:	
   873                           ; 1 bytes @ 0x4
   874                           
   875  0074                     __Umul8_16@product:	
   876                           ; 1 bytes @ 0x4
   877                           
   878  0074                     ___aldiv@dividend:	
   879                           ; 2 bytes @ 0x4
   880                           
   881                           
   882                           ; 4 bytes @ 0x4
   883  0074                     	ds	1
   884  0075                     ?___wmul:
   885  0075                     lcd_str@i:	
   886                           ; 2 bytes @ 0x5
   887                           
   888  0075                     ___awmod@counter:	
   889                           ; 1 bytes @ 0x5
   890                           
   891  0075                     ___wmul@multiplier:	
   892                           ; 1 bytes @ 0x5
   893                           
   894  0075                     ___lwdiv@quotient:	
   895                           ; 2 bytes @ 0x5
   896                           
   897                           
   898                           ; 2 bytes @ 0x5
   899  0075                     	ds	1
   900  0076                     ___awmod@sign:
   901  0076                     __Umul8_16@word_mpld:	
   902                           ; 1 bytes @ 0x6
   903                           
   904                           
   905                           ; 2 bytes @ 0x6
   906  0076                     	ds	1
   907  0077                     ?___awdiv:
   908  0077                     ___lwdiv@counter:	
   909                           ; 2 bytes @ 0x7
   910                           
   911  0077                     ___wmul@multiplicand:	
   912                           ; 1 bytes @ 0x7
   913                           
   914  0077                     ___awdiv@divisor:	
   915                           ; 2 bytes @ 0x7
   916                           
   917                           
   918                           ; 2 bytes @ 0x7
   919  0077                     	ds	1
   920  0078                     ??___aldiv:
   921  0078                     ?___lwmod:	
   922                           ; 1 bytes @ 0x8
   923                           
   924  0078                     __Umul8_16@multiplier:	
   925                           ; 2 bytes @ 0x8
   926                           
   927  0078                     ___lwmod@divisor:	
   928                           ; 1 bytes @ 0x8
   929                           
   930                           
   931                           ; 2 bytes @ 0x8
   932  0078                     	ds	1
   933  0079                     ??_PWM_Init:
   934  0079                     ??___wmul:	
   935                           ; 1 bytes @ 0x9
   936                           
   937  0079                     ??___fltol:	
   938                           ; 1 bytes @ 0x9
   939                           
   940  0079                     ___wmul@product:	
   941                           ; 1 bytes @ 0x9
   942                           
   943  0079                     ___awdiv@dividend:	
   944                           ; 2 bytes @ 0x9
   945                           
   946                           
   947                           ; 2 bytes @ 0x9
   948  0079                     	ds	1
   949  007A                     ___lwmod@dividend:
   950                           
   951                           ; 2 bytes @ 0xA
   952  007A                     	ds	1
   953  007B                     ??___awdiv:
   954                           
   955                           ; 1 bytes @ 0xB
   956  007B                     	ds	1
   957  007C                     ??___lwmod:
   958                           
   959                           ; 1 bytes @ 0xC
   960  007C                     	ds	1
   961  007D                     ___lwmod@counter:
   962                           
   963                           ; 1 bytes @ 0xD
   964  007D                     	ds	1
   965  007E                     ??_controleMaximoMinimo:
   966  007E                     ??_controlarCooler:	
   967                           ; 1 bytes @ 0xE
   968                           
   969  007E                     ??_main:	
   970                           ; 1 bytes @ 0xE
   971                           
   972  007E                     ??___flsub:	
   973                           ; 1 bytes @ 0xE
   974                           
   975                           
   976                           	psect	cstackBANK0
   977  0020                     __pcstackBANK0:	
   978                           ; 1 bytes @ 0xE
   979                           
   980  0020                     ?_sprintf:
   981  0020                     sprintf@f:	
   982                           ; 2 bytes @ 0x0
   983                           
   984  0020                     ___aldiv@counter:	
   985                           ; 1 bytes @ 0x0
   986                           
   987  0020                     ___awdiv@counter:	
   988                           ; 1 bytes @ 0x0
   989                           
   990                           
   991                           ; 1 bytes @ 0x0
   992  0020                     	ds	1
   993  0021                     ___aldiv@sign:
   994  0021                     ___awdiv@sign:	
   995                           ; 1 bytes @ 0x1
   996                           
   997                           
   998                           ; 1 bytes @ 0x1
   999  0021                     	ds	1
  1000  0022                     ___awdiv@quotient:
  1001  0022                     ___aldiv@quotient:	
  1002                           ; 2 bytes @ 0x2
  1003                           
  1004                           
  1005                           ; 4 bytes @ 0x2
  1006  0022                     	ds	1
  1007  0023                     ??_sprintf:
  1008                           
  1009                           ; 1 bytes @ 0x3
  1010  0023                     	ds	3
  1011  0026                     ?_PWM_Init:
  1012  0026                     ?___fltol:	
  1013                           ; 1 bytes @ 0x6
  1014                           
  1015  0026                     sprintf@ap:	
  1016                           ; 4 bytes @ 0x6
  1017                           
  1018  0026                     PWM_Init@freq:	
  1019                           ; 1 bytes @ 0x6
  1020                           
  1021  0026                     ___fltol@f1:	
  1022                           ; 4 bytes @ 0x6
  1023                           
  1024                           
  1025                           ; 4 bytes @ 0x6
  1026  0026                     	ds	1
  1027  0027                     sprintf@flag:
  1028                           
  1029                           ; 1 bytes @ 0x7
  1030  0027                     	ds	1
  1031  0028                     sprintf@prec:
  1032                           
  1033                           ; 1 bytes @ 0x8
  1034  0028                     	ds	1
  1035  0029                     sprintf@val:
  1036                           
  1037                           ; 2 bytes @ 0x9
  1038  0029                     	ds	1
  1039  002A                     ___fltol@sign1:
  1040                           
  1041                           ; 1 bytes @ 0xA
  1042  002A                     	ds	1
  1043  002B                     sprintf@sp:
  1044  002B                     ___fltol@exp1:	
  1045                           ; 1 bytes @ 0xB
  1046                           
  1047                           
  1048                           ; 1 bytes @ 0xB
  1049  002B                     	ds	1
  1050  002C                     ?_controleMaximoMinimo:
  1051  002C                     sprintf@c:	
  1052                           ; 2 bytes @ 0xC
  1053                           
  1054  002C                     controleMaximoMinimo@valor:	
  1055                           ; 1 bytes @ 0xC
  1056                           
  1057                           
  1058                           ; 2 bytes @ 0xC
  1059  002C                     	ds	1
  1060  002D                     ??_imprimirValoresLcd:
  1061                           
  1062                           ; 1 bytes @ 0xD
  1063  002D                     	ds	1
  1064  002E                     ?___xxtofl:
  1065  002E                     imprimirValoresLcd@milhar:	
  1066                           ; 4 bytes @ 0xE
  1067                           
  1068  002E                     ___xxtofl@val:	
  1069                           ; 2 bytes @ 0xE
  1070                           
  1071                           
  1072                           ; 4 bytes @ 0xE
  1073  002E                     	ds	2
  1074  0030                     imprimirValoresLcd@centena:
  1075                           
  1076                           ; 2 bytes @ 0x10
  1077  0030                     	ds	2
  1078  0032                     ??___xxtofl:
  1079                           
  1080                           ; 1 bytes @ 0x12
  1081  0032                     	ds	4
  1082  0036                     ___xxtofl@sign:
  1083                           
  1084                           ; 1 bytes @ 0x16
  1085  0036                     	ds	1
  1086  0037                     ___xxtofl@exp:
  1087                           
  1088                           ; 1 bytes @ 0x17
  1089  0037                     	ds	1
  1090  0038                     ___xxtofl@arg:
  1091                           
  1092                           ; 4 bytes @ 0x18
  1093  0038                     	ds	4
  1094  003C                     ?___flmul:
  1095  003C                     ___flmul@b:	
  1096                           ; 4 bytes @ 0x1C
  1097                           
  1098                           
  1099                           ; 4 bytes @ 0x1C
  1100  003C                     	ds	4
  1101  0040                     ___flmul@a:
  1102                           
  1103                           ; 4 bytes @ 0x20
  1104  0040                     	ds	4
  1105  0044                     ??___flmul:
  1106                           
  1107                           ; 1 bytes @ 0x24
  1108  0044                     	ds	5
  1109  0049                     ___flmul@sign:
  1110                           
  1111                           ; 1 bytes @ 0x29
  1112  0049                     	ds	1
  1113  004A                     ___flmul@grs:
  1114                           
  1115                           ; 4 bytes @ 0x2A
  1116  004A                     	ds	4
  1117  004E                     ___flmul@aexp:
  1118                           
  1119                           ; 1 bytes @ 0x2E
  1120  004E                     	ds	1
  1121  004F                     ___flmul@bexp:
  1122                           
  1123                           ; 1 bytes @ 0x2F
  1124  004F                     	ds	1
  1125  0050                     ___flmul@prod:
  1126                           
  1127                           ; 4 bytes @ 0x30
  1128  0050                     	ds	4
  1129  0054                     ___flmul@temp:
  1130                           
  1131                           ; 2 bytes @ 0x34
  1132  0054                     	ds	2
  1133  0056                     ?___fladd:
  1134  0056                     ___fladd@b:	
  1135                           ; 4 bytes @ 0x36
  1136                           
  1137                           
  1138                           ; 4 bytes @ 0x36
  1139  0056                     	ds	4
  1140  005A                     ___fladd@a:
  1141                           
  1142                           ; 4 bytes @ 0x3A
  1143  005A                     	ds	4
  1144  005E                     ??___fladd:
  1145                           
  1146                           ; 1 bytes @ 0x3E
  1147  005E                     	ds	8
  1148  0066                     ___fladd@signs:
  1149                           
  1150                           ; 1 bytes @ 0x46
  1151  0066                     	ds	1
  1152  0067                     ___fladd@aexp:
  1153                           
  1154                           ; 1 bytes @ 0x47
  1155  0067                     	ds	1
  1156  0068                     ___fladd@bexp:
  1157                           
  1158                           ; 1 bytes @ 0x48
  1159  0068                     	ds	1
  1160  0069                     ___fladd@grs:
  1161                           
  1162                           ; 1 bytes @ 0x49
  1163  0069                     	ds	1
  1164  006A                     ??___fldiv:
  1165                           
  1166                           ; 1 bytes @ 0x4A
  1167  006A                     	ds	5
  1168                           
  1169                           	psect	maintext
  1170  166C                     __pmaintext:	
  1171 ;;
  1172 ;;Main: autosize = 0, tempsize = 0, incstack = 0, save=0
  1173 ;;
  1174 ;; *************** function _main *****************
  1175 ;; Defined at:
  1176 ;;		line 155 in file "main.c"
  1177 ;; Parameters:    Size  Location     Type
  1178 ;;		None
  1179 ;; Auto vars:     Size  Location     Type
  1180 ;;		None
  1181 ;; Return value:  Size  Location     Type
  1182 ;;                  1    wreg      void 
  1183 ;; Registers used:
  1184 ;;		wreg, fsr0l, fsr0h, status,2, status,0, btemp+1, pclath, cstack
  1185 ;; Tracked objects:
  1186 ;;		On entry : B00/0
  1187 ;;		On exit  : 0/0
  1188 ;;		Unchanged: 0/0
  1189 ;; Data sizes:     COMMON   BANK0   BANK1   BANK3   BANK2
  1190 ;;      Params:         0       0       0       0       0
  1191 ;;      Locals:         0       0       0       0       0
  1192 ;;      Temps:          0       0       0       0       0
  1193 ;;      Totals:         0       0       0       0       0
  1194 ;;Total ram usage:        0 bytes
  1195 ;; Hardware stack levels required when called: 4
  1196 ;; This function calls:
  1197 ;;		_ADC_Init
  1198 ;;		_PWM1_Start
  1199 ;;		_PWM2_Start
  1200 ;;		_controlarCooler
  1201 ;;		_controlarValores
  1202 ;;		_controleMaximoMinimo
  1203 ;;		_imprimirValoresLcd
  1204 ;;		_lcd_cmd
  1205 ;;		_lcd_init
  1206 ;;		_lcd_str
  1207 ;;		_realizarCalculo
  1208 ;; This function is called by:
  1209 ;;		Startup code after reset
  1210 ;; This function uses a non-reentrant model
  1211 ;;
  1212                           
  1213                           
  1214                           ;psect for function _main
  1215  166C                     _main:
  1216  166C                     l2961:	
  1217                           ;incstack = 0
  1218                           ; Regs used in _main: [wreg-fsr0h+status,2+status,0+btemp+1+pclath+cstack]
  1219                           
  1220                           
  1221                           ;main.c: 156:     TRISA = 0xFF;
  1222  166C  30FF               	movlw	255
  1223  166D  1683               	bsf	3,5	;RP0=1, select bank1
  1224  166E  1303               	bcf	3,6	;RP1=0, select bank1
  1225  166F  0085               	movwf	5	;volatile
  1226                           
  1227                           ;main.c: 157:     TRISB = 0x0F;
  1228  1670  300F               	movlw	15
  1229  1671  0086               	movwf	6	;volatile
  1230  1672                     l2963:
  1231                           
  1232                           ;main.c: 158:     TRISC = 0x00;
  1233  1672  0187               	clrf	7	;volatile
  1234  1673                     l2965:
  1235                           
  1236                           ;main.c: 159:     TRISD = 0x00;
  1237  1673  0188               	clrf	8	;volatile
  1238  1674                     l2967:
  1239                           
  1240                           ;main.c: 160:     TRISE = 0x00;
  1241  1674  0189               	clrf	9	;volatile
  1242  1675                     l2969:
  1243                           
  1244                           ;main.c: 161:     ADC_Init();
  1245  1675  160A  118A  2187  160A  118A  	fcall	_ADC_Init
  1246  167A                     l2971:
  1247                           
  1248                           ;main.c: 162:     PWM1_Start();
  1249  167A  120A  158A  2003  160A  118A  	fcall	_PWM1_Start
  1250  167F                     l2973:
  1251                           
  1252                           ;main.c: 163:     PWM2_Start();
  1253  167F  120A  118A  2007  160A  118A  	fcall	_PWM2_Start
  1254  1684                     l2975:
  1255                           
  1256                           ;main.c: 164:     lcd_init();
  1257  1684  160A  118A  22BF  160A  118A  	fcall	_lcd_init
  1258  1689                     l2977:
  1259                           
  1260                           ;main.c: 165:     lcd_cmd(0x80);
  1261  1689  3080               	movlw	128
  1262  168A  160A  118A  2190  160A  118A  	fcall	_lcd_cmd
  1263  168F                     l2979:
  1264                           
  1265                           ;main.c: 166:     lcd_str("TP:  C  KI:");
  1266  168F  3017               	movlw	(low ((STR_4-__stringbase)| (0+32768)))& (0+255)
  1267  1690  00F2               	movwf	lcd_str@str
  1268  1691  3080               	movlw	128
  1269  1692  00F3               	movwf	lcd_str@str+1
  1270  1693  160A  118A  222B  160A  118A  	fcall	_lcd_str
  1271  1698                     l2981:
  1272                           
  1273                           ;main.c: 167:     lcd_cmd(0xC0);
  1274  1698  30C0               	movlw	192
  1275  1699  160A  118A  2190  160A  118A  	fcall	_lcd_cmd
  1276  169E                     l2983:
  1277                           
  1278                           ;main.c: 168:     lcd_str("KP:     KD:");
  1279  169E  300B               	movlw	(low ((STR_5-__stringbase)| (0+32768)))& (0+255)
  1280  169F  00F2               	movwf	lcd_str@str
  1281  16A0  3080               	movlw	128
  1282  16A1  00F3               	movwf	lcd_str@str+1
  1283  16A2  160A  118A  222B  160A  118A  	fcall	_lcd_str
  1284  16A7                     l2985:
  1285                           
  1286                           ;main.c: 169:     imprimirValoresLcd();
  1287  16A7  160A  118A  2728  160A  118A  	fcall	_imprimirValoresLcd
  1288  16AC                     l2987:
  1289                           
  1290                           ;main.c: 170:     menu = 2;
  1291  16AC  3002               	movlw	2
  1292  16AD  1683               	bsf	3,5	;RP0=1, select bank1
  1293  16AE  1303               	bcf	3,6	;RP1=0, select bank1
  1294  16AF  00EE               	movwf	_menu^(0+128)
  1295  16B0  3000               	movlw	0
  1296  16B1  00EF               	movwf	(_menu^(0+128)+1)
  1297  16B2                     l2989:
  1298                           
  1299                           ;main.c: 171:     imprimirValoresLcd();
  1300  16B2  160A  118A  2728  160A  118A  	fcall	_imprimirValoresLcd
  1301  16B7                     l2991:
  1302                           
  1303                           ;main.c: 172:     menu = 1;
  1304  16B7  3001               	movlw	1
  1305  16B8  1683               	bsf	3,5	;RP0=1, select bank1
  1306  16B9  1303               	bcf	3,6	;RP1=0, select bank1
  1307  16BA  00EE               	movwf	_menu^(0+128)
  1308  16BB  3000               	movlw	0
  1309  16BC  00EF               	movwf	(_menu^(0+128)+1)
  1310  16BD                     l2993:
  1311                           
  1312                           ;main.c: 175:         kp = controleMaximoMinimo(kp);
  1313  16BD  1683               	bsf	3,5	;RP0=1, select bank1
  1314  16BE  1303               	bcf	3,6	;RP1=0, select bank1
  1315  16BF  086B               	movf	(_kp+1)^(0+128),w
  1316  16C0  1283               	bcf	3,5	;RP0=0, select bank0
  1317  16C1  1303               	bcf	3,6	;RP1=0, select bank0
  1318  16C2  00AD               	movwf	controleMaximoMinimo@valor+1
  1319  16C3  1683               	bsf	3,5	;RP0=1, select bank1
  1320  16C4  1303               	bcf	3,6	;RP1=0, select bank1
  1321  16C5  086A               	movf	_kp^(0+128),w
  1322  16C6  1283               	bcf	3,5	;RP0=0, select bank0
  1323  16C7  1303               	bcf	3,6	;RP1=0, select bank0
  1324  16C8  00AC               	movwf	controleMaximoMinimo@valor
  1325  16C9  160A  118A  21C3  160A  118A  	fcall	_controleMaximoMinimo
  1326  16CE  1283               	bcf	3,5	;RP0=0, select bank0
  1327  16CF  1303               	bcf	3,6	;RP1=0, select bank0
  1328  16D0  082D               	movf	?_controleMaximoMinimo+1,w
  1329  16D1  1683               	bsf	3,5	;RP0=1, select bank1
  1330  16D2  1303               	bcf	3,6	;RP1=0, select bank1
  1331  16D3  00EB               	movwf	(_kp+1)^(0+128)
  1332  16D4  1283               	bcf	3,5	;RP0=0, select bank0
  1333  16D5  1303               	bcf	3,6	;RP1=0, select bank0
  1334  16D6  082C               	movf	?_controleMaximoMinimo,w
  1335  16D7  1683               	bsf	3,5	;RP0=1, select bank1
  1336  16D8  1303               	bcf	3,6	;RP1=0, select bank1
  1337  16D9  00EA               	movwf	_kp^(0+128)
  1338  16DA                     l2995:
  1339                           
  1340                           ;main.c: 176:         ki = controleMaximoMinimo(ki);
  1341  16DA  0869               	movf	(_ki+1)^(0+128),w
  1342  16DB  1283               	bcf	3,5	;RP0=0, select bank0
  1343  16DC  1303               	bcf	3,6	;RP1=0, select bank0
  1344  16DD  00AD               	movwf	controleMaximoMinimo@valor+1
  1345  16DE  1683               	bsf	3,5	;RP0=1, select bank1
  1346  16DF  1303               	bcf	3,6	;RP1=0, select bank1
  1347  16E0  0868               	movf	_ki^(0+128),w
  1348  16E1  1283               	bcf	3,5	;RP0=0, select bank0
  1349  16E2  1303               	bcf	3,6	;RP1=0, select bank0
  1350  16E3  00AC               	movwf	controleMaximoMinimo@valor
  1351  16E4  160A  118A  21C3  160A  118A  	fcall	_controleMaximoMinimo
  1352  16E9  1283               	bcf	3,5	;RP0=0, select bank0
  1353  16EA  1303               	bcf	3,6	;RP1=0, select bank0
  1354  16EB  082D               	movf	?_controleMaximoMinimo+1,w
  1355  16EC  1683               	bsf	3,5	;RP0=1, select bank1
  1356  16ED  1303               	bcf	3,6	;RP1=0, select bank1
  1357  16EE  00E9               	movwf	(_ki+1)^(0+128)
  1358  16EF  1283               	bcf	3,5	;RP0=0, select bank0
  1359  16F0  1303               	bcf	3,6	;RP1=0, select bank0
  1360  16F1  082C               	movf	?_controleMaximoMinimo,w
  1361  16F2  1683               	bsf	3,5	;RP0=1, select bank1
  1362  16F3  1303               	bcf	3,6	;RP1=0, select bank1
  1363  16F4  00E8               	movwf	_ki^(0+128)
  1364  16F5                     l2997:
  1365                           
  1366                           ;main.c: 177:         kd = controleMaximoMinimo(kd);
  1367  16F5  085E               	movf	(_kd+1)^(0+128),w
  1368  16F6  1283               	bcf	3,5	;RP0=0, select bank0
  1369  16F7  1303               	bcf	3,6	;RP1=0, select bank0
  1370  16F8  00AD               	movwf	controleMaximoMinimo@valor+1
  1371  16F9  1683               	bsf	3,5	;RP0=1, select bank1
  1372  16FA  1303               	bcf	3,6	;RP1=0, select bank1
  1373  16FB  085D               	movf	_kd^(0+128),w
  1374  16FC  1283               	bcf	3,5	;RP0=0, select bank0
  1375  16FD  1303               	bcf	3,6	;RP1=0, select bank0
  1376  16FE  00AC               	movwf	controleMaximoMinimo@valor
  1377  16FF  160A  118A  21C3  160A  118A  	fcall	_controleMaximoMinimo
  1378  1704  1283               	bcf	3,5	;RP0=0, select bank0
  1379  1705  1303               	bcf	3,6	;RP1=0, select bank0
  1380  1706  082D               	movf	?_controleMaximoMinimo+1,w
  1381  1707  1683               	bsf	3,5	;RP0=1, select bank1
  1382  1708  1303               	bcf	3,6	;RP1=0, select bank1
  1383  1709  00DE               	movwf	(_kd+1)^(0+128)
  1384  170A  1283               	bcf	3,5	;RP0=0, select bank0
  1385  170B  1303               	bcf	3,6	;RP1=0, select bank0
  1386  170C  082C               	movf	?_controleMaximoMinimo,w
  1387  170D  1683               	bsf	3,5	;RP0=1, select bank1
  1388  170E  1303               	bcf	3,6	;RP1=0, select bank1
  1389  170F  00DD               	movwf	_kd^(0+128)
  1390  1710                     l2999:
  1391                           
  1392                           ;main.c: 179:         controlarValores();
  1393  1710  160A  118A  2513  160A  118A  	fcall	_controlarValores
  1394  1715                     l3001:
  1395                           
  1396                           ;main.c: 180:         realizarCalculo();
  1397  1715  120A  118A  23DC  160A  118A  	fcall	_realizarCalculo
  1398  171A                     l3003:
  1399                           
  1400                           ;main.c: 181:         controlarCooler();
  1401  171A  160A  118A  228A  160A  118A  	fcall	_controlarCooler
  1402  171F                     l3005:
  1403                           
  1404                           ;main.c: 182:         imprimirValoresLcd();
  1405  171F  160A  118A  2728  160A  118A  	fcall	_imprimirValoresLcd
  1406  1724  2EBD               	goto	l2993
  1407  1725  120A  118A  2800   	ljmp	start
  1408  1728                     __end_of_main:
  1409                           
  1410                           	psect	text1
  1411  03DC                     __ptext1:	
  1412 ;; *************** function _realizarCalculo *****************
  1413 ;; Defined at:
  1414 ;;		line 133 in file "main.c"
  1415 ;; Parameters:    Size  Location     Type
  1416 ;;		None
  1417 ;; Auto vars:     Size  Location     Type
  1418 ;;		None
  1419 ;; Return value:  Size  Location     Type
  1420 ;;                  1    wreg      void 
  1421 ;; Registers used:
  1422 ;;		wreg, status,2, status,0, btemp+1, pclath, cstack
  1423 ;; Tracked objects:
  1424 ;;		On entry : 0/0
  1425 ;;		On exit  : 0/0
  1426 ;;		Unchanged: 0/0
  1427 ;; Data sizes:     COMMON   BANK0   BANK1   BANK3   BANK2
  1428 ;;      Params:         0       0       0       0       0
  1429 ;;      Locals:         0       0      14       0       0
  1430 ;;      Temps:          0       0       8       0       0
  1431 ;;      Totals:         0       0      22       0       0
  1432 ;;Total ram usage:       22 bytes
  1433 ;; Hardware stack levels used: 1
  1434 ;; Hardware stack levels required when called: 3
  1435 ;; This function calls:
  1436 ;;		_ADC_Read
  1437 ;;		_PWM1_Duty
  1438 ;;		___awdiv
  1439 ;;		___fladd
  1440 ;;		___fldiv
  1441 ;;		___flmul
  1442 ;;		___flsub
  1443 ;;		___fltol
  1444 ;;		___wmul
  1445 ;;		___xxtofl
  1446 ;;		_controleMaximoMinimo
  1447 ;; This function is called by:
  1448 ;;		_main
  1449 ;; This function uses a non-reentrant model
  1450 ;;
  1451                           
  1452                           
  1453                           ;psect for function _realizarCalculo
  1454  03DC                     _realizarCalculo:
  1455  03DC                     l2919:	
  1456                           ;incstack = 0
  1457                           ; Regs used in _realizarCalculo: [wreg+status,2+status,0+btemp+1+pclath+cstack]
  1458                           
  1459                           
  1460                           ;main.c: 135:     temperatura = (ADC_Read(0)*10/8 - 150);
  1461  03DC  300A               	movlw	10
  1462  03DD  00F7               	movwf	___wmul@multiplicand
  1463  03DE  3000               	movlw	0
  1464  03DF  00F8               	movwf	___wmul@multiplicand+1
  1465  03E0  3000               	movlw	0
  1466  03E1  160A  118A  2256  120A  118A  	fcall	_ADC_Read
  1467  03E6  0871               	movf	?_ADC_Read+1,w
  1468  03E7  00F6               	movwf	___wmul@multiplier+1
  1469  03E8  0870               	movf	?_ADC_Read,w
  1470  03E9  00F5               	movwf	___wmul@multiplier
  1471  03EA  160A  118A  21DF  120A  118A  	fcall	___wmul
  1472  03EF  0875               	movf	?___wmul,w
  1473  03F0  1683               	bsf	3,5	;RP0=1, select bank1
  1474  03F1  1303               	bcf	3,6	;RP1=0, select bank1
  1475  03F2  00C3               	movwf	??_realizarCalculo^(0+128)
  1476  03F3  0876               	movf	?___wmul+1,w
  1477  03F4  00C4               	movwf	(??_realizarCalculo^(0+128)+1)
  1478  03F5  1003               	clrc
  1479  03F6  0CC4               	rrf	(??_realizarCalculo^(0+128)+1),f
  1480  03F7  0CC3               	rrf	??_realizarCalculo^(0+128),f
  1481  03F8  1003               	clrc
  1482  03F9  0CC4               	rrf	(??_realizarCalculo^(0+128)+1),f
  1483  03FA  0CC3               	rrf	??_realizarCalculo^(0+128),f
  1484  03FB  1003               	clrc
  1485  03FC  0CC4               	rrf	(??_realizarCalculo^(0+128)+1),f
  1486  03FD  0CC3               	rrf	??_realizarCalculo^(0+128),f
  1487  03FE  0843               	movf	??_realizarCalculo^(0+128),w
  1488  03FF  3E6A               	addlw	106
  1489  0400  00C5               	movwf	(??_realizarCalculo+2)^(0+128)
  1490  0401  0844               	movf	(??_realizarCalculo+1)^(0+128),w
  1491  0402  1803               	skipnc
  1492  0403  3E01               	addlw	1
  1493  0404  3EFF               	addlw	255
  1494  0405  00C6               	movwf	(??_realizarCalculo+3)^(0+128)
  1495  0406  0845               	movf	(??_realizarCalculo+2)^(0+128),w
  1496  0407  00C7               	movwf	(??_realizarCalculo+4)^(0+128)
  1497  0408  0846               	movf	(??_realizarCalculo+3)^(0+128),w
  1498  0409  00C8               	movwf	((??_realizarCalculo+4)^(0+128)+1)
  1499  040A  01C9               	clrf	((??_realizarCalculo+4)^(0+128)+2)
  1500  040B  01CA               	clrf	((??_realizarCalculo+4)^(0+128)+3)
  1501  040C  084A               	movf	(??_realizarCalculo+7)^(0+128),w
  1502  040D  1283               	bcf	3,5	;RP0=0, select bank0
  1503  040E  1303               	bcf	3,6	;RP1=0, select bank0
  1504  040F  00B1               	movwf	___xxtofl@val+3
  1505  0410  1683               	bsf	3,5	;RP0=1, select bank1
  1506  0411  1303               	bcf	3,6	;RP1=0, select bank1
  1507  0412  0849               	movf	(??_realizarCalculo+6)^(0+128),w
  1508  0413  1283               	bcf	3,5	;RP0=0, select bank0
  1509  0414  1303               	bcf	3,6	;RP1=0, select bank0
  1510  0415  00B0               	movwf	___xxtofl@val+2
  1511  0416  1683               	bsf	3,5	;RP0=1, select bank1
  1512  0417  1303               	bcf	3,6	;RP1=0, select bank1
  1513  0418  0848               	movf	(??_realizarCalculo+5)^(0+128),w
  1514  0419  1283               	bcf	3,5	;RP0=0, select bank0
  1515  041A  1303               	bcf	3,6	;RP1=0, select bank0
  1516  041B  00AF               	movwf	___xxtofl@val+1
  1517  041C  1683               	bsf	3,5	;RP0=1, select bank1
  1518  041D  1303               	bcf	3,6	;RP1=0, select bank1
  1519  041E  0847               	movf	(??_realizarCalculo+4)^(0+128),w
  1520  041F  1283               	bcf	3,5	;RP0=0, select bank0
  1521  0420  1303               	bcf	3,6	;RP1=0, select bank0
  1522  0421  00AE               	movwf	___xxtofl@val
  1523  0422  3000               	movlw	0
  1524  0423  160A  118A  25B0  120A  118A  	fcall	___xxtofl
  1525  0428  1283               	bcf	3,5	;RP0=0, select bank0
  1526  0429  1303               	bcf	3,6	;RP1=0, select bank0
  1527  042A  0831               	movf	?___xxtofl+3,w
  1528  042B  1683               	bsf	3,5	;RP0=1, select bank1
  1529  042C  1303               	bcf	3,6	;RP1=0, select bank1
  1530  042D  00DC               	movwf	(_temperatura+3)^(0+128)
  1531  042E  1283               	bcf	3,5	;RP0=0, select bank0
  1532  042F  1303               	bcf	3,6	;RP1=0, select bank0
  1533  0430  0830               	movf	?___xxtofl+2,w
  1534  0431  1683               	bsf	3,5	;RP0=1, select bank1
  1535  0432  1303               	bcf	3,6	;RP1=0, select bank1
  1536  0433  00DB               	movwf	(_temperatura+2)^(0+128)
  1537  0434  1283               	bcf	3,5	;RP0=0, select bank0
  1538  0435  1303               	bcf	3,6	;RP1=0, select bank0
  1539  0436  082F               	movf	?___xxtofl+1,w
  1540  0437  1683               	bsf	3,5	;RP0=1, select bank1
  1541  0438  1303               	bcf	3,6	;RP1=0, select bank1
  1542  0439  00DA               	movwf	(_temperatura+1)^(0+128)
  1543  043A  1283               	bcf	3,5	;RP0=0, select bank0
  1544  043B  1303               	bcf	3,6	;RP1=0, select bank0
  1545  043C  082E               	movf	?___xxtofl,w
  1546  043D  1683               	bsf	3,5	;RP0=1, select bank1
  1547  043E  1303               	bcf	3,6	;RP1=0, select bank1
  1548  043F  00D9               	movwf	_temperatura^(0+128)
  1549  0440                     l2921:
  1550                           
  1551                           ;main.c: 136:     erro = (setPoint/10) - temperatura;
  1552  0440  085C               	movf	(_temperatura+3)^(0+128),w
  1553  0441  00A3               	movwf	(___flsub@a+3)^(0+128)
  1554  0442  085B               	movf	(_temperatura+2)^(0+128),w
  1555  0443  00A2               	movwf	(___flsub@a+2)^(0+128)
  1556  0444  085A               	movf	(_temperatura+1)^(0+128),w
  1557  0445  00A1               	movwf	(___flsub@a+1)^(0+128)
  1558  0446  0859               	movf	_temperatura^(0+128),w
  1559  0447  00A0               	movwf	___flsub@a^(0+128)
  1560  0448  086D               	movf	(_setPoint+1)^(0+128),w
  1561  0449  00FA               	movwf	___awdiv@dividend+1
  1562  044A  086C               	movf	_setPoint^(0+128),w
  1563  044B  00F9               	movwf	___awdiv@dividend
  1564  044C  300A               	movlw	10
  1565  044D  00F7               	movwf	___awdiv@divisor
  1566  044E  3000               	movlw	0
  1567  044F  00F8               	movwf	___awdiv@divisor+1
  1568  0450  120A  118A  2012  120A  118A  	fcall	___awdiv
  1569  0455  0877               	movf	?___awdiv,w
  1570  0456  1283               	bcf	3,5	;RP0=0, select bank0
  1571  0457  1303               	bcf	3,6	;RP1=0, select bank0
  1572  0458  00AE               	movwf	___xxtofl@val
  1573  0459  0878               	movf	?___awdiv+1,w
  1574  045A  00AF               	movwf	___xxtofl@val+1
  1575  045B  3000               	movlw	0
  1576  045C  1BAF               	btfsc	___xxtofl@val+1,7
  1577  045D  30FF               	movlw	255
  1578  045E  00B0               	movwf	___xxtofl@val+2
  1579  045F  00B1               	movwf	___xxtofl@val+3
  1580  0460  3001               	movlw	1
  1581  0461  160A  118A  25B0  120A  118A  	fcall	___xxtofl
  1582  0466  1283               	bcf	3,5	;RP0=0, select bank0
  1583  0467  1303               	bcf	3,6	;RP1=0, select bank0
  1584  0468  0831               	movf	?___xxtofl+3,w
  1585  0469  1683               	bsf	3,5	;RP0=1, select bank1
  1586  046A  1303               	bcf	3,6	;RP1=0, select bank1
  1587  046B  00A7               	movwf	(___flsub@b+3)^(0+128)
  1588  046C  1283               	bcf	3,5	;RP0=0, select bank0
  1589  046D  1303               	bcf	3,6	;RP1=0, select bank0
  1590  046E  0830               	movf	?___xxtofl+2,w
  1591  046F  1683               	bsf	3,5	;RP0=1, select bank1
  1592  0470  1303               	bcf	3,6	;RP1=0, select bank1
  1593  0471  00A6               	movwf	(___flsub@b+2)^(0+128)
  1594  0472  1283               	bcf	3,5	;RP0=0, select bank0
  1595  0473  1303               	bcf	3,6	;RP1=0, select bank0
  1596  0474  082F               	movf	?___xxtofl+1,w
  1597  0475  1683               	bsf	3,5	;RP0=1, select bank1
  1598  0476  1303               	bcf	3,6	;RP1=0, select bank1
  1599  0477  00A5               	movwf	(___flsub@b+1)^(0+128)
  1600  0478  1283               	bcf	3,5	;RP0=0, select bank0
  1601  0479  1303               	bcf	3,6	;RP1=0, select bank0
  1602  047A  082E               	movf	?___xxtofl,w
  1603  047B  1683               	bsf	3,5	;RP0=1, select bank1
  1604  047C  1303               	bcf	3,6	;RP1=0, select bank1
  1605  047D  00A4               	movwf	___flsub@b^(0+128)
  1606  047E  160A  118A  23AA  120A  118A  	fcall	___flsub
  1607  0483  1683               	bsf	3,5	;RP0=1, select bank1
  1608  0484  1303               	bcf	3,6	;RP1=0, select bank1
  1609  0485  0823               	movf	(?___flsub+3)^(0+128),w
  1610  0486  1683               	bsf	3,5	;RP0=1, select bank3
  1611  0487  1703               	bsf	3,6	;RP1=1, select bank3
  1612  0488  00A3               	movwf	(_erro+3)^(0+384)
  1613  0489  1683               	bsf	3,5	;RP0=1, select bank1
  1614  048A  1303               	bcf	3,6	;RP1=0, select bank1
  1615  048B  0822               	movf	(?___flsub+2)^(0+128),w
  1616  048C  1683               	bsf	3,5	;RP0=1, select bank3
  1617  048D  1703               	bsf	3,6	;RP1=1, select bank3
  1618  048E  00A2               	movwf	(_erro+2)^(0+384)
  1619  048F  1683               	bsf	3,5	;RP0=1, select bank1
  1620  0490  1303               	bcf	3,6	;RP1=0, select bank1
  1621  0491  0821               	movf	(?___flsub+1)^(0+128),w
  1622  0492  1683               	bsf	3,5	;RP0=1, select bank3
  1623  0493  1703               	bsf	3,6	;RP1=1, select bank3
  1624  0494  00A1               	movwf	(_erro+1)^(0+384)
  1625  0495  1683               	bsf	3,5	;RP0=1, select bank1
  1626  0496  1303               	bcf	3,6	;RP1=0, select bank1
  1627  0497  0820               	movf	?___flsub^(0+128),w
  1628  0498  1683               	bsf	3,5	;RP0=1, select bank3
  1629  0499  1703               	bsf	3,6	;RP1=1, select bank3
  1630  049A  00A0               	movwf	_erro^(0+384)
  1631  049B                     l2923:
  1632                           
  1633                           ;main.c: 137:     proporcional = kp * erro;
  1634  049B  0823               	movf	(_erro+3)^(0+384),w
  1635  049C  1283               	bcf	3,5	;RP0=0, select bank0
  1636  049D  1303               	bcf	3,6	;RP1=0, select bank0
  1637  049E  00BF               	movwf	___flmul@b+3
  1638  049F  1683               	bsf	3,5	;RP0=1, select bank3
  1639  04A0  1703               	bsf	3,6	;RP1=1, select bank3
  1640  04A1  0822               	movf	(_erro+2)^(0+384),w
  1641  04A2  1283               	bcf	3,5	;RP0=0, select bank0
  1642  04A3  1303               	bcf	3,6	;RP1=0, select bank0
  1643  04A4  00BE               	movwf	___flmul@b+2
  1644  04A5  1683               	bsf	3,5	;RP0=1, select bank3
  1645  04A6  1703               	bsf	3,6	;RP1=1, select bank3
  1646  04A7  0821               	movf	(_erro+1)^(0+384),w
  1647  04A8  1283               	bcf	3,5	;RP0=0, select bank0
  1648  04A9  1303               	bcf	3,6	;RP1=0, select bank0
  1649  04AA  00BD               	movwf	___flmul@b+1
  1650  04AB  1683               	bsf	3,5	;RP0=1, select bank3
  1651  04AC  1703               	bsf	3,6	;RP1=1, select bank3
  1652  04AD  0820               	movf	_erro^(0+384),w
  1653  04AE  1283               	bcf	3,5	;RP0=0, select bank0
  1654  04AF  1303               	bcf	3,6	;RP1=0, select bank0
  1655  04B0  00BC               	movwf	___flmul@b
  1656  04B1  1683               	bsf	3,5	;RP0=1, select bank1
  1657  04B2  1303               	bcf	3,6	;RP1=0, select bank1
  1658  04B3  086A               	movf	_kp^(0+128),w
  1659  04B4  1283               	bcf	3,5	;RP0=0, select bank0
  1660  04B5  1303               	bcf	3,6	;RP1=0, select bank0
  1661  04B6  00AE               	movwf	___xxtofl@val
  1662  04B7  1683               	bsf	3,5	;RP0=1, select bank1
  1663  04B8  1303               	bcf	3,6	;RP1=0, select bank1
  1664  04B9  086B               	movf	(_kp+1)^(0+128),w
  1665  04BA  1283               	bcf	3,5	;RP0=0, select bank0
  1666  04BB  1303               	bcf	3,6	;RP1=0, select bank0
  1667  04BC  00AF               	movwf	___xxtofl@val+1
  1668  04BD  3000               	movlw	0
  1669  04BE  1BAF               	btfsc	___xxtofl@val+1,7
  1670  04BF  30FF               	movlw	255
  1671  04C0  00B0               	movwf	___xxtofl@val+2
  1672  04C1  00B1               	movwf	___xxtofl@val+3
  1673  04C2  3001               	movlw	1
  1674  04C3  160A  118A  25B0  120A  118A  	fcall	___xxtofl
  1675  04C8  1283               	bcf	3,5	;RP0=0, select bank0
  1676  04C9  1303               	bcf	3,6	;RP1=0, select bank0
  1677  04CA  0831               	movf	?___xxtofl+3,w
  1678  04CB  00C3               	movwf	___flmul@a+3
  1679  04CC  0830               	movf	?___xxtofl+2,w
  1680  04CD  00C2               	movwf	___flmul@a+2
  1681  04CE  082F               	movf	?___xxtofl+1,w
  1682  04CF  00C1               	movwf	___flmul@a+1
  1683  04D0  082E               	movf	?___xxtofl,w
  1684  04D1  00C0               	movwf	___flmul@a
  1685  04D2  120A  118A  207B  120A  118A  	fcall	___flmul
  1686  04D7  1283               	bcf	3,5	;RP0=0, select bank0
  1687  04D8  1303               	bcf	3,6	;RP1=0, select bank0
  1688  04D9  083F               	movf	?___flmul+3,w
  1689  04DA  1683               	bsf	3,5	;RP0=1, select bank3
  1690  04DB  1703               	bsf	3,6	;RP1=1, select bank3
  1691  04DC  009F               	movwf	(_proporcional+3)^(0+384)
  1692  04DD  1283               	bcf	3,5	;RP0=0, select bank0
  1693  04DE  1303               	bcf	3,6	;RP1=0, select bank0
  1694  04DF  083E               	movf	?___flmul+2,w
  1695  04E0  1683               	bsf	3,5	;RP0=1, select bank3
  1696  04E1  1703               	bsf	3,6	;RP1=1, select bank3
  1697  04E2  009E               	movwf	(_proporcional+2)^(0+384)
  1698  04E3  1283               	bcf	3,5	;RP0=0, select bank0
  1699  04E4  1303               	bcf	3,6	;RP1=0, select bank0
  1700  04E5  083D               	movf	?___flmul+1,w
  1701  04E6  1683               	bsf	3,5	;RP0=1, select bank3
  1702  04E7  1703               	bsf	3,6	;RP1=1, select bank3
  1703  04E8  009D               	movwf	(_proporcional+1)^(0+384)
  1704  04E9  1283               	bcf	3,5	;RP0=0, select bank0
  1705  04EA  1303               	bcf	3,6	;RP1=0, select bank0
  1706  04EB  083C               	movf	?___flmul,w
  1707  04EC  1683               	bsf	3,5	;RP0=1, select bank3
  1708  04ED  1703               	bsf	3,6	;RP1=1, select bank3
  1709  04EE  009C               	movwf	_proporcional^(0+384)
  1710  04EF                     l2925:
  1711                           
  1712                           ;main.c: 138:     integral += (erro * ki) * 100E-3;
  1713  04EF  1683               	bsf	3,5	;RP0=1, select bank1
  1714  04F0  1303               	bcf	3,6	;RP1=0, select bank1
  1715  04F1  0868               	movf	_ki^(0+128),w
  1716  04F2  1283               	bcf	3,5	;RP0=0, select bank0
  1717  04F3  1303               	bcf	3,6	;RP1=0, select bank0
  1718  04F4  00AE               	movwf	___xxtofl@val
  1719  04F5  1683               	bsf	3,5	;RP0=1, select bank1
  1720  04F6  1303               	bcf	3,6	;RP1=0, select bank1
  1721  04F7  0869               	movf	(_ki+1)^(0+128),w
  1722  04F8  1283               	bcf	3,5	;RP0=0, select bank0
  1723  04F9  1303               	bcf	3,6	;RP1=0, select bank0
  1724  04FA  00AF               	movwf	___xxtofl@val+1
  1725  04FB  3000               	movlw	0
  1726  04FC  1BAF               	btfsc	___xxtofl@val+1,7
  1727  04FD  30FF               	movlw	255
  1728  04FE  00B0               	movwf	___xxtofl@val+2
  1729  04FF  00B1               	movwf	___xxtofl@val+3
  1730  0500  3001               	movlw	1
  1731  0501  160A  118A  25B0  120A  118A  	fcall	___xxtofl
  1732  0506  1283               	bcf	3,5	;RP0=0, select bank0
  1733  0507  1303               	bcf	3,6	;RP1=0, select bank0
  1734  0508  0831               	movf	?___xxtofl+3,w
  1735  0509  00C3               	movwf	___flmul@a+3
  1736  050A  0830               	movf	?___xxtofl+2,w
  1737  050B  00C2               	movwf	___flmul@a+2
  1738  050C  082F               	movf	?___xxtofl+1,w
  1739  050D  00C1               	movwf	___flmul@a+1
  1740  050E  082E               	movf	?___xxtofl,w
  1741  050F  00C0               	movwf	___flmul@a
  1742  0510  1683               	bsf	3,5	;RP0=1, select bank3
  1743  0511  1703               	bsf	3,6	;RP1=1, select bank3
  1744  0512  0823               	movf	(_erro+3)^(0+384),w
  1745  0513  1283               	bcf	3,5	;RP0=0, select bank0
  1746  0514  1303               	bcf	3,6	;RP1=0, select bank0
  1747  0515  00BF               	movwf	___flmul@b+3
  1748  0516  1683               	bsf	3,5	;RP0=1, select bank3
  1749  0517  1703               	bsf	3,6	;RP1=1, select bank3
  1750  0518  0822               	movf	(_erro+2)^(0+384),w
  1751  0519  1283               	bcf	3,5	;RP0=0, select bank0
  1752  051A  1303               	bcf	3,6	;RP1=0, select bank0
  1753  051B  00BE               	movwf	___flmul@b+2
  1754  051C  1683               	bsf	3,5	;RP0=1, select bank3
  1755  051D  1703               	bsf	3,6	;RP1=1, select bank3
  1756  051E  0821               	movf	(_erro+1)^(0+384),w
  1757  051F  1283               	bcf	3,5	;RP0=0, select bank0
  1758  0520  1303               	bcf	3,6	;RP1=0, select bank0
  1759  0521  00BD               	movwf	___flmul@b+1
  1760  0522  1683               	bsf	3,5	;RP0=1, select bank3
  1761  0523  1703               	bsf	3,6	;RP1=1, select bank3
  1762  0524  0820               	movf	_erro^(0+384),w
  1763  0525  1283               	bcf	3,5	;RP0=0, select bank0
  1764  0526  1303               	bcf	3,6	;RP1=0, select bank0
  1765  0527  00BC               	movwf	___flmul@b
  1766  0528  120A  118A  207B  120A  118A  	fcall	___flmul
  1767  052D  1283               	bcf	3,5	;RP0=0, select bank0
  1768  052E  1303               	bcf	3,6	;RP1=0, select bank0
  1769  052F  083F               	movf	?___flmul+3,w
  1770  0530  1683               	bsf	3,5	;RP0=1, select bank1
  1771  0531  1303               	bcf	3,6	;RP1=0, select bank1
  1772  0532  00CE               	movwf	(_realizarCalculo$845+3)^(0+128)
  1773  0533  1283               	bcf	3,5	;RP0=0, select bank0
  1774  0534  1303               	bcf	3,6	;RP1=0, select bank0
  1775  0535  083E               	movf	?___flmul+2,w
  1776  0536  1683               	bsf	3,5	;RP0=1, select bank1
  1777  0537  1303               	bcf	3,6	;RP1=0, select bank1
  1778  0538  00CD               	movwf	(_realizarCalculo$845+2)^(0+128)
  1779  0539  1283               	bcf	3,5	;RP0=0, select bank0
  1780  053A  1303               	bcf	3,6	;RP1=0, select bank0
  1781  053B  083D               	movf	?___flmul+1,w
  1782  053C  1683               	bsf	3,5	;RP0=1, select bank1
  1783  053D  1303               	bcf	3,6	;RP1=0, select bank1
  1784  053E  00CC               	movwf	(_realizarCalculo$845+1)^(0+128)
  1785  053F  1283               	bcf	3,5	;RP0=0, select bank0
  1786  0540  1303               	bcf	3,6	;RP1=0, select bank0
  1787  0541  083C               	movf	?___flmul,w
  1788  0542  1683               	bsf	3,5	;RP0=1, select bank1
  1789  0543  1303               	bcf	3,6	;RP1=0, select bank1
  1790  0544  00CB               	movwf	_realizarCalculo$845^(0+128)
  1791  0545                     l2927:
  1792                           
  1793                           ;main.c: 138:     integral += (erro * ki) * 100E-3;
  1794  0545  084E               	movf	(_realizarCalculo$845+3)^(0+128),w
  1795  0546  1283               	bcf	3,5	;RP0=0, select bank0
  1796  0547  1303               	bcf	3,6	;RP1=0, select bank0
  1797  0548  00C3               	movwf	___flmul@a+3
  1798  0549  1683               	bsf	3,5	;RP0=1, select bank1
  1799  054A  1303               	bcf	3,6	;RP1=0, select bank1
  1800  054B  084D               	movf	(_realizarCalculo$845+2)^(0+128),w
  1801  054C  1283               	bcf	3,5	;RP0=0, select bank0
  1802  054D  1303               	bcf	3,6	;RP1=0, select bank0
  1803  054E  00C2               	movwf	___flmul@a+2
  1804  054F  1683               	bsf	3,5	;RP0=1, select bank1
  1805  0550  1303               	bcf	3,6	;RP1=0, select bank1
  1806  0551  084C               	movf	(_realizarCalculo$845+1)^(0+128),w
  1807  0552  1283               	bcf	3,5	;RP0=0, select bank0
  1808  0553  1303               	bcf	3,6	;RP1=0, select bank0
  1809  0554  00C1               	movwf	___flmul@a+1
  1810  0555  1683               	bsf	3,5	;RP0=1, select bank1
  1811  0556  1303               	bcf	3,6	;RP1=0, select bank1
  1812  0557  084B               	movf	_realizarCalculo$845^(0+128),w
  1813  0558  1283               	bcf	3,5	;RP0=0, select bank0
  1814  0559  1303               	bcf	3,6	;RP1=0, select bank0
  1815  055A  00C0               	movwf	___flmul@a
  1816  055B  303D               	movlw	61
  1817  055C  00BF               	movwf	___flmul@b+3
  1818  055D  30CC               	movlw	204
  1819  055E  00BE               	movwf	___flmul@b+2
  1820  055F  30CC               	movlw	204
  1821  0560  00BD               	movwf	___flmul@b+1
  1822  0561  30CD               	movlw	205
  1823  0562  00BC               	movwf	___flmul@b
  1824  0563  120A  118A  207B  120A  118A  	fcall	___flmul
  1825  0568  1283               	bcf	3,5	;RP0=0, select bank0
  1826  0569  1303               	bcf	3,6	;RP1=0, select bank0
  1827  056A  083F               	movf	?___flmul+3,w
  1828  056B  00D9               	movwf	___fladd@b+3
  1829  056C  083E               	movf	?___flmul+2,w
  1830  056D  00D8               	movwf	___fladd@b+2
  1831  056E  083D               	movf	?___flmul+1,w
  1832  056F  00D7               	movwf	___fladd@b+1
  1833  0570  083C               	movf	?___flmul,w
  1834  0571  00D6               	movwf	___fladd@b
  1835  0572  1683               	bsf	3,5	;RP0=1, select bank3
  1836  0573  1703               	bsf	3,6	;RP1=1, select bank3
  1837  0574  081B               	movf	(_integral+3)^(0+384),w
  1838  0575  1283               	bcf	3,5	;RP0=0, select bank0
  1839  0576  1303               	bcf	3,6	;RP1=0, select bank0
  1840  0577  00DD               	movwf	___fladd@a+3
  1841  0578  1683               	bsf	3,5	;RP0=1, select bank3
  1842  0579  1703               	bsf	3,6	;RP1=1, select bank3
  1843  057A  081A               	movf	(_integral+2)^(0+384),w
  1844  057B  1283               	bcf	3,5	;RP0=0, select bank0
  1845  057C  1303               	bcf	3,6	;RP1=0, select bank0
  1846  057D  00DC               	movwf	___fladd@a+2
  1847  057E  1683               	bsf	3,5	;RP0=1, select bank3
  1848  057F  1703               	bsf	3,6	;RP1=1, select bank3
  1849  0580  0819               	movf	(_integral+1)^(0+384),w
  1850  0581  1283               	bcf	3,5	;RP0=0, select bank0
  1851  0582  1303               	bcf	3,6	;RP1=0, select bank0
  1852  0583  00DB               	movwf	___fladd@a+1
  1853  0584  1683               	bsf	3,5	;RP0=1, select bank3
  1854  0585  1703               	bsf	3,6	;RP1=1, select bank3
  1855  0586  0818               	movf	_integral^(0+384),w
  1856  0587  1283               	bcf	3,5	;RP0=0, select bank0
  1857  0588  1303               	bcf	3,6	;RP1=0, select bank0
  1858  0589  00DA               	movwf	___fladd@a
  1859  058A  120A  158A  2578  120A  118A  	fcall	___fladd
  1860  058F  1283               	bcf	3,5	;RP0=0, select bank0
  1861  0590  1303               	bcf	3,6	;RP1=0, select bank0
  1862  0591  0859               	movf	?___fladd+3,w
  1863  0592  1683               	bsf	3,5	;RP0=1, select bank3
  1864  0593  1703               	bsf	3,6	;RP1=1, select bank3
  1865  0594  009B               	movwf	(_integral+3)^(0+384)
  1866  0595  1283               	bcf	3,5	;RP0=0, select bank0
  1867  0596  1303               	bcf	3,6	;RP1=0, select bank0
  1868  0597  0858               	movf	?___fladd+2,w
  1869  0598  1683               	bsf	3,5	;RP0=1, select bank3
  1870  0599  1703               	bsf	3,6	;RP1=1, select bank3
  1871  059A  009A               	movwf	(_integral+2)^(0+384)
  1872  059B  1283               	bcf	3,5	;RP0=0, select bank0
  1873  059C  1303               	bcf	3,6	;RP1=0, select bank0
  1874  059D  0857               	movf	?___fladd+1,w
  1875  059E  1683               	bsf	3,5	;RP0=1, select bank3
  1876  059F  1703               	bsf	3,6	;RP1=1, select bank3
  1877  05A0  0099               	movwf	(_integral+1)^(0+384)
  1878  05A1  1283               	bcf	3,5	;RP0=0, select bank0
  1879  05A2  1303               	bcf	3,6	;RP1=0, select bank0
  1880  05A3  0856               	movf	?___fladd,w
  1881  05A4  1683               	bsf	3,5	;RP0=1, select bank3
  1882  05A5  1703               	bsf	3,6	;RP1=1, select bank3
  1883  05A6  0098               	movwf	_integral^(0+384)
  1884  05A7                     l2929:
  1885                           
  1886                           ;main.c: 139:     derivativo += ((temperaturaReferencia - temperatura) * kd) / 100E-3;
  1887  05A7  0827               	movf	(_temperaturaReferencia+3)^(0+384),w
  1888  05A8  1683               	bsf	3,5	;RP0=1, select bank1
  1889  05A9  1303               	bcf	3,6	;RP1=0, select bank1
  1890  05AA  00A7               	movwf	(___flsub@b+3)^(0+128)
  1891  05AB  1683               	bsf	3,5	;RP0=1, select bank3
  1892  05AC  1703               	bsf	3,6	;RP1=1, select bank3
  1893  05AD  0826               	movf	(_temperaturaReferencia+2)^(0+384),w
  1894  05AE  1683               	bsf	3,5	;RP0=1, select bank1
  1895  05AF  1303               	bcf	3,6	;RP1=0, select bank1
  1896  05B0  00A6               	movwf	(___flsub@b+2)^(0+128)
  1897  05B1  1683               	bsf	3,5	;RP0=1, select bank3
  1898  05B2  1703               	bsf	3,6	;RP1=1, select bank3
  1899  05B3  0825               	movf	(_temperaturaReferencia+1)^(0+384),w
  1900  05B4  1683               	bsf	3,5	;RP0=1, select bank1
  1901  05B5  1303               	bcf	3,6	;RP1=0, select bank1
  1902  05B6  00A5               	movwf	(___flsub@b+1)^(0+128)
  1903  05B7  1683               	bsf	3,5	;RP0=1, select bank3
  1904  05B8  1703               	bsf	3,6	;RP1=1, select bank3
  1905  05B9  0824               	movf	_temperaturaReferencia^(0+384),w
  1906  05BA  1683               	bsf	3,5	;RP0=1, select bank1
  1907  05BB  1303               	bcf	3,6	;RP1=0, select bank1
  1908  05BC  00A4               	movwf	___flsub@b^(0+128)
  1909  05BD  085C               	movf	(_temperatura+3)^(0+128),w
  1910  05BE  00A3               	movwf	(___flsub@a+3)^(0+128)
  1911  05BF  085B               	movf	(_temperatura+2)^(0+128),w
  1912  05C0  00A2               	movwf	(___flsub@a+2)^(0+128)
  1913  05C1  085A               	movf	(_temperatura+1)^(0+128),w
  1914  05C2  00A1               	movwf	(___flsub@a+1)^(0+128)
  1915  05C3  0859               	movf	_temperatura^(0+128),w
  1916  05C4  00A0               	movwf	___flsub@a^(0+128)
  1917  05C5  160A  118A  23AA  120A  118A  	fcall	___flsub
  1918  05CA  1683               	bsf	3,5	;RP0=1, select bank1
  1919  05CB  1303               	bcf	3,6	;RP1=0, select bank1
  1920  05CC  0823               	movf	(?___flsub+3)^(0+128),w
  1921  05CD  1283               	bcf	3,5	;RP0=0, select bank0
  1922  05CE  1303               	bcf	3,6	;RP1=0, select bank0
  1923  05CF  00C3               	movwf	___flmul@a+3
  1924  05D0  1683               	bsf	3,5	;RP0=1, select bank1
  1925  05D1  1303               	bcf	3,6	;RP1=0, select bank1
  1926  05D2  0822               	movf	(?___flsub+2)^(0+128),w
  1927  05D3  1283               	bcf	3,5	;RP0=0, select bank0
  1928  05D4  1303               	bcf	3,6	;RP1=0, select bank0
  1929  05D5  00C2               	movwf	___flmul@a+2
  1930  05D6  1683               	bsf	3,5	;RP0=1, select bank1
  1931  05D7  1303               	bcf	3,6	;RP1=0, select bank1
  1932  05D8  0821               	movf	(?___flsub+1)^(0+128),w
  1933  05D9  1283               	bcf	3,5	;RP0=0, select bank0
  1934  05DA  1303               	bcf	3,6	;RP1=0, select bank0
  1935  05DB  00C1               	movwf	___flmul@a+1
  1936  05DC  1683               	bsf	3,5	;RP0=1, select bank1
  1937  05DD  1303               	bcf	3,6	;RP1=0, select bank1
  1938  05DE  0820               	movf	?___flsub^(0+128),w
  1939  05DF  1283               	bcf	3,5	;RP0=0, select bank0
  1940  05E0  1303               	bcf	3,6	;RP1=0, select bank0
  1941  05E1  00C0               	movwf	___flmul@a
  1942  05E2  1683               	bsf	3,5	;RP0=1, select bank1
  1943  05E3  1303               	bcf	3,6	;RP1=0, select bank1
  1944  05E4  085D               	movf	_kd^(0+128),w
  1945  05E5  1283               	bcf	3,5	;RP0=0, select bank0
  1946  05E6  1303               	bcf	3,6	;RP1=0, select bank0
  1947  05E7  00AE               	movwf	___xxtofl@val
  1948  05E8  1683               	bsf	3,5	;RP0=1, select bank1
  1949  05E9  1303               	bcf	3,6	;RP1=0, select bank1
  1950  05EA  085E               	movf	(_kd+1)^(0+128),w
  1951  05EB  1283               	bcf	3,5	;RP0=0, select bank0
  1952  05EC  1303               	bcf	3,6	;RP1=0, select bank0
  1953  05ED  00AF               	movwf	___xxtofl@val+1
  1954  05EE  3000               	movlw	0
  1955  05EF  1BAF               	btfsc	___xxtofl@val+1,7
  1956  05F0  30FF               	movlw	255
  1957  05F1  00B0               	movwf	___xxtofl@val+2
  1958  05F2  00B1               	movwf	___xxtofl@val+3
  1959  05F3  3001               	movlw	1
  1960  05F4  160A  118A  25B0  120A  118A  	fcall	___xxtofl
  1961  05F9  1283               	bcf	3,5	;RP0=0, select bank0
  1962  05FA  1303               	bcf	3,6	;RP1=0, select bank0
  1963  05FB  0831               	movf	?___xxtofl+3,w
  1964  05FC  00BF               	movwf	___flmul@b+3
  1965  05FD  0830               	movf	?___xxtofl+2,w
  1966  05FE  00BE               	movwf	___flmul@b+2
  1967  05FF  082F               	movf	?___xxtofl+1,w
  1968  0600  00BD               	movwf	___flmul@b+1
  1969  0601  082E               	movf	?___xxtofl,w
  1970  0602  00BC               	movwf	___flmul@b
  1971  0603  120A  118A  207B  120A  118A  	fcall	___flmul
  1972  0608  1283               	bcf	3,5	;RP0=0, select bank0
  1973  0609  1303               	bcf	3,6	;RP1=0, select bank0
  1974  060A  083F               	movf	?___flmul+3,w
  1975  060B  1683               	bsf	3,5	;RP0=1, select bank1
  1976  060C  1303               	bcf	3,6	;RP1=0, select bank1
  1977  060D  00AF               	movwf	(___fldiv@b+3)^(0+128)
  1978  060E  1283               	bcf	3,5	;RP0=0, select bank0
  1979  060F  1303               	bcf	3,6	;RP1=0, select bank0
  1980  0610  083E               	movf	?___flmul+2,w
  1981  0611  1683               	bsf	3,5	;RP0=1, select bank1
  1982  0612  1303               	bcf	3,6	;RP1=0, select bank1
  1983  0613  00AE               	movwf	(___fldiv@b+2)^(0+128)
  1984  0614  1283               	bcf	3,5	;RP0=0, select bank0
  1985  0615  1303               	bcf	3,6	;RP1=0, select bank0
  1986  0616  083D               	movf	?___flmul+1,w
  1987  0617  1683               	bsf	3,5	;RP0=1, select bank1
  1988  0618  1303               	bcf	3,6	;RP1=0, select bank1
  1989  0619  00AD               	movwf	(___fldiv@b+1)^(0+128)
  1990  061A  1283               	bcf	3,5	;RP0=0, select bank0
  1991  061B  1303               	bcf	3,6	;RP1=0, select bank0
  1992  061C  083C               	movf	?___flmul,w
  1993  061D  1683               	bsf	3,5	;RP0=1, select bank1
  1994  061E  1303               	bcf	3,6	;RP1=0, select bank1
  1995  061F  00AC               	movwf	___fldiv@b^(0+128)
  1996  0620  303D               	movlw	61
  1997  0621  00AB               	movwf	(___fldiv@a+3)^(0+128)
  1998  0622  30CC               	movlw	204
  1999  0623  00AA               	movwf	(___fldiv@a+2)^(0+128)
  2000  0624  30CC               	movlw	204
  2001  0625  00A9               	movwf	(___fldiv@a+1)^(0+128)
  2002  0626  30CD               	movlw	205
  2003  0627  00A8               	movwf	___fldiv@a^(0+128)
  2004  0628  120A  158A  2315  120A  118A  	fcall	___fldiv
  2005  062D  1683               	bsf	3,5	;RP0=1, select bank1
  2006  062E  1303               	bcf	3,6	;RP1=0, select bank1
  2007  062F  082B               	movf	(?___fldiv+3)^(0+128),w
  2008  0630  00D2               	movwf	(_realizarCalculo$846+3)^(0+128)
  2009  0631  082A               	movf	(?___fldiv+2)^(0+128),w
  2010  0632  00D1               	movwf	(_realizarCalculo$846+2)^(0+128)
  2011  0633  0829               	movf	(?___fldiv+1)^(0+128),w
  2012  0634  00D0               	movwf	(_realizarCalculo$846+1)^(0+128)
  2013  0635  0828               	movf	?___fldiv^(0+128),w
  2014  0636  00CF               	movwf	_realizarCalculo$846^(0+128)
  2015  0637                     l2931:
  2016                           
  2017                           ;main.c: 139:     derivativo += ((temperaturaReferencia - temperatura) * kd) / 100E-3;
  2018  0637  0852               	movf	(_realizarCalculo$846+3)^(0+128),w
  2019  0638  1283               	bcf	3,5	;RP0=0, select bank0
  2020  0639  1303               	bcf	3,6	;RP1=0, select bank0
  2021  063A  00D9               	movwf	___fladd@b+3
  2022  063B  1683               	bsf	3,5	;RP0=1, select bank1
  2023  063C  1303               	bcf	3,6	;RP1=0, select bank1
  2024  063D  0851               	movf	(_realizarCalculo$846+2)^(0+128),w
  2025  063E  1283               	bcf	3,5	;RP0=0, select bank0
  2026  063F  1303               	bcf	3,6	;RP1=0, select bank0
  2027  0640  00D8               	movwf	___fladd@b+2
  2028  0641  1683               	bsf	3,5	;RP0=1, select bank1
  2029  0642  1303               	bcf	3,6	;RP1=0, select bank1
  2030  0643  0850               	movf	(_realizarCalculo$846+1)^(0+128),w
  2031  0644  1283               	bcf	3,5	;RP0=0, select bank0
  2032  0645  1303               	bcf	3,6	;RP1=0, select bank0
  2033  0646  00D7               	movwf	___fladd@b+1
  2034  0647  1683               	bsf	3,5	;RP0=1, select bank1
  2035  0648  1303               	bcf	3,6	;RP1=0, select bank1
  2036  0649  084F               	movf	_realizarCalculo$846^(0+128),w
  2037  064A  1283               	bcf	3,5	;RP0=0, select bank0
  2038  064B  1303               	bcf	3,6	;RP1=0, select bank0
  2039  064C  00D6               	movwf	___fladd@b
  2040  064D  1683               	bsf	3,5	;RP0=1, select bank3
  2041  064E  1703               	bsf	3,6	;RP1=1, select bank3
  2042  064F  0817               	movf	(_derivativo+3)^(0+384),w
  2043  0650  1283               	bcf	3,5	;RP0=0, select bank0
  2044  0651  1303               	bcf	3,6	;RP1=0, select bank0
  2045  0652  00DD               	movwf	___fladd@a+3
  2046  0653  1683               	bsf	3,5	;RP0=1, select bank3
  2047  0654  1703               	bsf	3,6	;RP1=1, select bank3
  2048  0655  0816               	movf	(_derivativo+2)^(0+384),w
  2049  0656  1283               	bcf	3,5	;RP0=0, select bank0
  2050  0657  1303               	bcf	3,6	;RP1=0, select bank0
  2051  0658  00DC               	movwf	___fladd@a+2
  2052  0659  1683               	bsf	3,5	;RP0=1, select bank3
  2053  065A  1703               	bsf	3,6	;RP1=1, select bank3
  2054  065B  0815               	movf	(_derivativo+1)^(0+384),w
  2055  065C  1283               	bcf	3,5	;RP0=0, select bank0
  2056  065D  1303               	bcf	3,6	;RP1=0, select bank0
  2057  065E  00DB               	movwf	___fladd@a+1
  2058  065F  1683               	bsf	3,5	;RP0=1, select bank3
  2059  0660  1703               	bsf	3,6	;RP1=1, select bank3
  2060  0661  0814               	movf	_derivativo^(0+384),w
  2061  0662  1283               	bcf	3,5	;RP0=0, select bank0
  2062  0663  1303               	bcf	3,6	;RP1=0, select bank0
  2063  0664  00DA               	movwf	___fladd@a
  2064  0665  120A  158A  2578  120A  118A  	fcall	___fladd
  2065  066A  1283               	bcf	3,5	;RP0=0, select bank0
  2066  066B  1303               	bcf	3,6	;RP1=0, select bank0
  2067  066C  0859               	movf	?___fladd+3,w
  2068  066D  1683               	bsf	3,5	;RP0=1, select bank3
  2069  066E  1703               	bsf	3,6	;RP1=1, select bank3
  2070  066F  0097               	movwf	(_derivativo+3)^(0+384)
  2071  0670  1283               	bcf	3,5	;RP0=0, select bank0
  2072  0671  1303               	bcf	3,6	;RP1=0, select bank0
  2073  0672  0858               	movf	?___fladd+2,w
  2074  0673  1683               	bsf	3,5	;RP0=1, select bank3
  2075  0674  1703               	bsf	3,6	;RP1=1, select bank3
  2076  0675  0096               	movwf	(_derivativo+2)^(0+384)
  2077  0676  1283               	bcf	3,5	;RP0=0, select bank0
  2078  0677  1303               	bcf	3,6	;RP1=0, select bank0
  2079  0678  0857               	movf	?___fladd+1,w
  2080  0679  1683               	bsf	3,5	;RP0=1, select bank3
  2081  067A  1703               	bsf	3,6	;RP1=1, select bank3
  2082  067B  0095               	movwf	(_derivativo+1)^(0+384)
  2083  067C  1283               	bcf	3,5	;RP0=0, select bank0
  2084  067D  1303               	bcf	3,6	;RP1=0, select bank0
  2085  067E  0856               	movf	?___fladd,w
  2086  067F  1683               	bsf	3,5	;RP0=1, select bank3
  2087  0680  1703               	bsf	3,6	;RP1=1, select bank3
  2088  0681  0094               	movwf	_derivativo^(0+384)
  2089  0682                     l2933:
  2090                           
  2091                           ;main.c: 140:     temperaturaReferencia = temperatura;
  2092  0682  1683               	bsf	3,5	;RP0=1, select bank1
  2093  0683  1303               	bcf	3,6	;RP1=0, select bank1
  2094  0684  085C               	movf	(_temperatura+3)^(0+128),w
  2095  0685  1683               	bsf	3,5	;RP0=1, select bank3
  2096  0686  1703               	bsf	3,6	;RP1=1, select bank3
  2097  0687  00A7               	movwf	(_temperaturaReferencia+3)^(0+384)
  2098  0688  1683               	bsf	3,5	;RP0=1, select bank1
  2099  0689  1303               	bcf	3,6	;RP1=0, select bank1
  2100  068A  085B               	movf	(_temperatura+2)^(0+128),w
  2101  068B  1683               	bsf	3,5	;RP0=1, select bank3
  2102  068C  1703               	bsf	3,6	;RP1=1, select bank3
  2103  068D  00A6               	movwf	(_temperaturaReferencia+2)^(0+384)
  2104  068E  1683               	bsf	3,5	;RP0=1, select bank1
  2105  068F  1303               	bcf	3,6	;RP1=0, select bank1
  2106  0690  085A               	movf	(_temperatura+1)^(0+128),w
  2107  0691  1683               	bsf	3,5	;RP0=1, select bank3
  2108  0692  1703               	bsf	3,6	;RP1=1, select bank3
  2109  0693  00A5               	movwf	(_temperaturaReferencia+1)^(0+384)
  2110  0694  1683               	bsf	3,5	;RP0=1, select bank1
  2111  0695  1303               	bcf	3,6	;RP1=0, select bank1
  2112  0696  0859               	movf	_temperatura^(0+128),w
  2113  0697  1683               	bsf	3,5	;RP0=1, select bank3
  2114  0698  1703               	bsf	3,6	;RP1=1, select bank3
  2115  0699  00A4               	movwf	_temperaturaReferencia^(0+384)
  2116  069A                     l2935:
  2117                           
  2118                           ;main.c: 142:     PID = (proporcional + integral + derivativo) / 4;
  2119  069A  081B               	movf	(_integral+3)^(0+384),w
  2120  069B  1283               	bcf	3,5	;RP0=0, select bank0
  2121  069C  1303               	bcf	3,6	;RP1=0, select bank0
  2122  069D  00D9               	movwf	___fladd@b+3
  2123  069E  1683               	bsf	3,5	;RP0=1, select bank3
  2124  069F  1703               	bsf	3,6	;RP1=1, select bank3
  2125  06A0  081A               	movf	(_integral+2)^(0+384),w
  2126  06A1  1283               	bcf	3,5	;RP0=0, select bank0
  2127  06A2  1303               	bcf	3,6	;RP1=0, select bank0
  2128  06A3  00D8               	movwf	___fladd@b+2
  2129  06A4  1683               	bsf	3,5	;RP0=1, select bank3
  2130  06A5  1703               	bsf	3,6	;RP1=1, select bank3
  2131  06A6  0819               	movf	(_integral+1)^(0+384),w
  2132  06A7  1283               	bcf	3,5	;RP0=0, select bank0
  2133  06A8  1303               	bcf	3,6	;RP1=0, select bank0
  2134  06A9  00D7               	movwf	___fladd@b+1
  2135  06AA  1683               	bsf	3,5	;RP0=1, select bank3
  2136  06AB  1703               	bsf	3,6	;RP1=1, select bank3
  2137  06AC  0818               	movf	_integral^(0+384),w
  2138  06AD  1283               	bcf	3,5	;RP0=0, select bank0
  2139  06AE  1303               	bcf	3,6	;RP1=0, select bank0
  2140  06AF  00D6               	movwf	___fladd@b
  2141  06B0  1683               	bsf	3,5	;RP0=1, select bank3
  2142  06B1  1703               	bsf	3,6	;RP1=1, select bank3
  2143  06B2  081F               	movf	(_proporcional+3)^(0+384),w
  2144  06B3  1283               	bcf	3,5	;RP0=0, select bank0
  2145  06B4  1303               	bcf	3,6	;RP1=0, select bank0
  2146  06B5  00DD               	movwf	___fladd@a+3
  2147  06B6  1683               	bsf	3,5	;RP0=1, select bank3
  2148  06B7  1703               	bsf	3,6	;RP1=1, select bank3
  2149  06B8  081E               	movf	(_proporcional+2)^(0+384),w
  2150  06B9  1283               	bcf	3,5	;RP0=0, select bank0
  2151  06BA  1303               	bcf	3,6	;RP1=0, select bank0
  2152  06BB  00DC               	movwf	___fladd@a+2
  2153  06BC  1683               	bsf	3,5	;RP0=1, select bank3
  2154  06BD  1703               	bsf	3,6	;RP1=1, select bank3
  2155  06BE  081D               	movf	(_proporcional+1)^(0+384),w
  2156  06BF  1283               	bcf	3,5	;RP0=0, select bank0
  2157  06C0  1303               	bcf	3,6	;RP1=0, select bank0
  2158  06C1  00DB               	movwf	___fladd@a+1
  2159  06C2  1683               	bsf	3,5	;RP0=1, select bank3
  2160  06C3  1703               	bsf	3,6	;RP1=1, select bank3
  2161  06C4  081C               	movf	_proporcional^(0+384),w
  2162  06C5  1283               	bcf	3,5	;RP0=0, select bank0
  2163  06C6  1303               	bcf	3,6	;RP1=0, select bank0
  2164  06C7  00DA               	movwf	___fladd@a
  2165  06C8  120A  158A  2578  120A  118A  	fcall	___fladd
  2166  06CD  1283               	bcf	3,5	;RP0=0, select bank0
  2167  06CE  1303               	bcf	3,6	;RP1=0, select bank0
  2168  06CF  0859               	movf	?___fladd+3,w
  2169  06D0  1683               	bsf	3,5	;RP0=1, select bank1
  2170  06D1  1303               	bcf	3,6	;RP1=0, select bank1
  2171  06D2  00D6               	movwf	(_realizarCalculo$847+3)^(0+128)
  2172  06D3  1283               	bcf	3,5	;RP0=0, select bank0
  2173  06D4  1303               	bcf	3,6	;RP1=0, select bank0
  2174  06D5  0858               	movf	?___fladd+2,w
  2175  06D6  1683               	bsf	3,5	;RP0=1, select bank1
  2176  06D7  1303               	bcf	3,6	;RP1=0, select bank1
  2177  06D8  00D5               	movwf	(_realizarCalculo$847+2)^(0+128)
  2178  06D9  1283               	bcf	3,5	;RP0=0, select bank0
  2179  06DA  1303               	bcf	3,6	;RP1=0, select bank0
  2180  06DB  0857               	movf	?___fladd+1,w
  2181  06DC  1683               	bsf	3,5	;RP0=1, select bank1
  2182  06DD  1303               	bcf	3,6	;RP1=0, select bank1
  2183  06DE  00D4               	movwf	(_realizarCalculo$847+1)^(0+128)
  2184  06DF  1283               	bcf	3,5	;RP0=0, select bank0
  2185  06E0  1303               	bcf	3,6	;RP1=0, select bank0
  2186  06E1  0856               	movf	?___fladd,w
  2187  06E2  1683               	bsf	3,5	;RP0=1, select bank1
  2188  06E3  1303               	bcf	3,6	;RP1=0, select bank1
  2189  06E4  00D3               	movwf	_realizarCalculo$847^(0+128)
  2190  06E5                     l2937:
  2191                           
  2192                           ;main.c: 142:     PID = (proporcional + integral + derivativo) / 4;
  2193  06E5  3040               	movlw	64
  2194  06E6  00AB               	movwf	(___fldiv@a+3)^(0+128)
  2195  06E7  3080               	movlw	128
  2196  06E8  00AA               	movwf	(___fldiv@a+2)^(0+128)
  2197  06E9  3000               	movlw	0
  2198  06EA  00A9               	movwf	(___fldiv@a+1)^(0+128)
  2199  06EB  3000               	movlw	0
  2200  06EC  00A8               	movwf	___fldiv@a^(0+128)
  2201  06ED  1683               	bsf	3,5	;RP0=1, select bank3
  2202  06EE  1703               	bsf	3,6	;RP1=1, select bank3
  2203  06EF  0817               	movf	(_derivativo+3)^(0+384),w
  2204  06F0  1283               	bcf	3,5	;RP0=0, select bank0
  2205  06F1  1303               	bcf	3,6	;RP1=0, select bank0
  2206  06F2  00D9               	movwf	___fladd@b+3
  2207  06F3  1683               	bsf	3,5	;RP0=1, select bank3
  2208  06F4  1703               	bsf	3,6	;RP1=1, select bank3
  2209  06F5  0816               	movf	(_derivativo+2)^(0+384),w
  2210  06F6  1283               	bcf	3,5	;RP0=0, select bank0
  2211  06F7  1303               	bcf	3,6	;RP1=0, select bank0
  2212  06F8  00D8               	movwf	___fladd@b+2
  2213  06F9  1683               	bsf	3,5	;RP0=1, select bank3
  2214  06FA  1703               	bsf	3,6	;RP1=1, select bank3
  2215  06FB  0815               	movf	(_derivativo+1)^(0+384),w
  2216  06FC  1283               	bcf	3,5	;RP0=0, select bank0
  2217  06FD  1303               	bcf	3,6	;RP1=0, select bank0
  2218  06FE  00D7               	movwf	___fladd@b+1
  2219  06FF  1683               	bsf	3,5	;RP0=1, select bank3
  2220  0700  1703               	bsf	3,6	;RP1=1, select bank3
  2221  0701  0814               	movf	_derivativo^(0+384),w
  2222  0702  1283               	bcf	3,5	;RP0=0, select bank0
  2223  0703  1303               	bcf	3,6	;RP1=0, select bank0
  2224  0704  00D6               	movwf	___fladd@b
  2225  0705  1683               	bsf	3,5	;RP0=1, select bank1
  2226  0706  1303               	bcf	3,6	;RP1=0, select bank1
  2227  0707  0856               	movf	(_realizarCalculo$847+3)^(0+128),w
  2228  0708  1283               	bcf	3,5	;RP0=0, select bank0
  2229  0709  1303               	bcf	3,6	;RP1=0, select bank0
  2230  070A  00DD               	movwf	___fladd@a+3
  2231  070B  1683               	bsf	3,5	;RP0=1, select bank1
  2232  070C  1303               	bcf	3,6	;RP1=0, select bank1
  2233  070D  0855               	movf	(_realizarCalculo$847+2)^(0+128),w
  2234  070E  1283               	bcf	3,5	;RP0=0, select bank0
  2235  070F  1303               	bcf	3,6	;RP1=0, select bank0
  2236  0710  00DC               	movwf	___fladd@a+2
  2237  0711  1683               	bsf	3,5	;RP0=1, select bank1
  2238  0712  1303               	bcf	3,6	;RP1=0, select bank1
  2239  0713  0854               	movf	(_realizarCalculo$847+1)^(0+128),w
  2240  0714  1283               	bcf	3,5	;RP0=0, select bank0
  2241  0715  1303               	bcf	3,6	;RP1=0, select bank0
  2242  0716  00DB               	movwf	___fladd@a+1
  2243  0717  1683               	bsf	3,5	;RP0=1, select bank1
  2244  0718  1303               	bcf	3,6	;RP1=0, select bank1
  2245  0719  0853               	movf	_realizarCalculo$847^(0+128),w
  2246  071A  1283               	bcf	3,5	;RP0=0, select bank0
  2247  071B  1303               	bcf	3,6	;RP1=0, select bank0
  2248  071C  00DA               	movwf	___fladd@a
  2249  071D  120A  158A  2578  120A  118A  	fcall	___fladd
  2250  0722  1283               	bcf	3,5	;RP0=0, select bank0
  2251  0723  1303               	bcf	3,6	;RP1=0, select bank0
  2252  0724  0859               	movf	?___fladd+3,w
  2253  0725  1683               	bsf	3,5	;RP0=1, select bank1
  2254  0726  1303               	bcf	3,6	;RP1=0, select bank1
  2255  0727  00AF               	movwf	(___fldiv@b+3)^(0+128)
  2256  0728  1283               	bcf	3,5	;RP0=0, select bank0
  2257  0729  1303               	bcf	3,6	;RP1=0, select bank0
  2258  072A  0858               	movf	?___fladd+2,w
  2259  072B  1683               	bsf	3,5	;RP0=1, select bank1
  2260  072C  1303               	bcf	3,6	;RP1=0, select bank1
  2261  072D  00AE               	movwf	(___fldiv@b+2)^(0+128)
  2262  072E  1283               	bcf	3,5	;RP0=0, select bank0
  2263  072F  1303               	bcf	3,6	;RP1=0, select bank0
  2264  0730  0857               	movf	?___fladd+1,w
  2265  0731  1683               	bsf	3,5	;RP0=1, select bank1
  2266  0732  1303               	bcf	3,6	;RP1=0, select bank1
  2267  0733  00AD               	movwf	(___fldiv@b+1)^(0+128)
  2268  0734  1283               	bcf	3,5	;RP0=0, select bank0
  2269  0735  1303               	bcf	3,6	;RP1=0, select bank0
  2270  0736  0856               	movf	?___fladd,w
  2271  0737  1683               	bsf	3,5	;RP0=1, select bank1
  2272  0738  1303               	bcf	3,6	;RP1=0, select bank1
  2273  0739  00AC               	movwf	___fldiv@b^(0+128)
  2274  073A  120A  158A  2315  120A  118A  	fcall	___fldiv
  2275  073F  1683               	bsf	3,5	;RP0=1, select bank1
  2276  0740  1303               	bcf	3,6	;RP1=0, select bank1
  2277  0741  082B               	movf	(?___fldiv+3)^(0+128),w
  2278  0742  1683               	bsf	3,5	;RP0=1, select bank3
  2279  0743  1703               	bsf	3,6	;RP1=1, select bank3
  2280  0744  0093               	movwf	(_PID+3)^(0+384)
  2281  0745  1683               	bsf	3,5	;RP0=1, select bank1
  2282  0746  1303               	bcf	3,6	;RP1=0, select bank1
  2283  0747  082A               	movf	(?___fldiv+2)^(0+128),w
  2284  0748  1683               	bsf	3,5	;RP0=1, select bank3
  2285  0749  1703               	bsf	3,6	;RP1=1, select bank3
  2286  074A  0092               	movwf	(_PID+2)^(0+384)
  2287  074B  1683               	bsf	3,5	;RP0=1, select bank1
  2288  074C  1303               	bcf	3,6	;RP1=0, select bank1
  2289  074D  0829               	movf	(?___fldiv+1)^(0+128),w
  2290  074E  1683               	bsf	3,5	;RP0=1, select bank3
  2291  074F  1703               	bsf	3,6	;RP1=1, select bank3
  2292  0750  0091               	movwf	(_PID+1)^(0+384)
  2293  0751  1683               	bsf	3,5	;RP0=1, select bank1
  2294  0752  1303               	bcf	3,6	;RP1=0, select bank1
  2295  0753  0828               	movf	?___fldiv^(0+128),w
  2296  0754  1683               	bsf	3,5	;RP0=1, select bank3
  2297  0755  1703               	bsf	3,6	;RP1=1, select bank3
  2298  0756  0090               	movwf	_PID^(0+384)
  2299  0757                     l2939:
  2300                           
  2301                           ;main.c: 143:     PID = controleMaximoMinimo(PID);
  2302  0757  0813               	movf	(_PID+3)^(0+384),w
  2303  0758  1283               	bcf	3,5	;RP0=0, select bank0
  2304  0759  1303               	bcf	3,6	;RP1=0, select bank0
  2305  075A  00A9               	movwf	___fltol@f1+3
  2306  075B  1683               	bsf	3,5	;RP0=1, select bank3
  2307  075C  1703               	bsf	3,6	;RP1=1, select bank3
  2308  075D  0812               	movf	(_PID+2)^(0+384),w
  2309  075E  1283               	bcf	3,5	;RP0=0, select bank0
  2310  075F  1303               	bcf	3,6	;RP1=0, select bank0
  2311  0760  00A8               	movwf	___fltol@f1+2
  2312  0761  1683               	bsf	3,5	;RP0=1, select bank3
  2313  0762  1703               	bsf	3,6	;RP1=1, select bank3
  2314  0763  0811               	movf	(_PID+1)^(0+384),w
  2315  0764  1283               	bcf	3,5	;RP0=0, select bank0
  2316  0765  1303               	bcf	3,6	;RP1=0, select bank0
  2317  0766  00A7               	movwf	___fltol@f1+1
  2318  0767  1683               	bsf	3,5	;RP0=1, select bank3
  2319  0768  1703               	bsf	3,6	;RP1=1, select bank3
  2320  0769  0810               	movf	_PID^(0+384),w
  2321  076A  1283               	bcf	3,5	;RP0=0, select bank0
  2322  076B  1303               	bcf	3,6	;RP1=0, select bank0
  2323  076C  00A6               	movwf	___fltol@f1
  2324  076D  160A  118A  23FA  120A  118A  	fcall	___fltol
  2325  0772  1283               	bcf	3,5	;RP0=0, select bank0
  2326  0773  1303               	bcf	3,6	;RP1=0, select bank0
  2327  0774  0827               	movf	?___fltol+1,w
  2328  0775  00AD               	movwf	controleMaximoMinimo@valor+1
  2329  0776  0826               	movf	?___fltol,w
  2330  0777  00AC               	movwf	controleMaximoMinimo@valor
  2331  0778  160A  118A  21C3  120A  118A  	fcall	_controleMaximoMinimo
  2332  077D  1283               	bcf	3,5	;RP0=0, select bank0
  2333  077E  1303               	bcf	3,6	;RP1=0, select bank0
  2334  077F  082C               	movf	?_controleMaximoMinimo,w
  2335  0780  00AE               	movwf	___xxtofl@val
  2336  0781  082D               	movf	?_controleMaximoMinimo+1,w
  2337  0782  00AF               	movwf	___xxtofl@val+1
  2338  0783  3000               	movlw	0
  2339  0784  1BAF               	btfsc	___xxtofl@val+1,7
  2340  0785  30FF               	movlw	255
  2341  0786  00B0               	movwf	___xxtofl@val+2
  2342  0787  00B1               	movwf	___xxtofl@val+3
  2343  0788  3001               	movlw	1
  2344  0789  160A  118A  25B0  120A  118A  	fcall	___xxtofl
  2345  078E  1283               	bcf	3,5	;RP0=0, select bank0
  2346  078F  1303               	bcf	3,6	;RP1=0, select bank0
  2347  0790  0831               	movf	?___xxtofl+3,w
  2348  0791  1683               	bsf	3,5	;RP0=1, select bank3
  2349  0792  1703               	bsf	3,6	;RP1=1, select bank3
  2350  0793  0093               	movwf	(_PID+3)^(0+384)
  2351  0794  1283               	bcf	3,5	;RP0=0, select bank0
  2352  0795  1303               	bcf	3,6	;RP1=0, select bank0
  2353  0796  0830               	movf	?___xxtofl+2,w
  2354  0797  1683               	bsf	3,5	;RP0=1, select bank3
  2355  0798  1703               	bsf	3,6	;RP1=1, select bank3
  2356  0799  0092               	movwf	(_PID+2)^(0+384)
  2357  079A  1283               	bcf	3,5	;RP0=0, select bank0
  2358  079B  1303               	bcf	3,6	;RP1=0, select bank0
  2359  079C  082F               	movf	?___xxtofl+1,w
  2360  079D  1683               	bsf	3,5	;RP0=1, select bank3
  2361  079E  1703               	bsf	3,6	;RP1=1, select bank3
  2362  079F  0091               	movwf	(_PID+1)^(0+384)
  2363  07A0  1283               	bcf	3,5	;RP0=0, select bank0
  2364  07A1  1303               	bcf	3,6	;RP1=0, select bank0
  2365  07A2  082E               	movf	?___xxtofl,w
  2366  07A3  1683               	bsf	3,5	;RP0=1, select bank3
  2367  07A4  1703               	bsf	3,6	;RP1=1, select bank3
  2368  07A5  0090               	movwf	_PID^(0+384)
  2369  07A6                     l2941:
  2370                           
  2371                           ;main.c: 145:     PWM1_Duty(PID, 4000);
  2372  07A6  0813               	movf	(_PID+3)^(0+384),w
  2373  07A7  1283               	bcf	3,5	;RP0=0, select bank0
  2374  07A8  1303               	bcf	3,6	;RP1=0, select bank0
  2375  07A9  00A9               	movwf	___fltol@f1+3
  2376  07AA  1683               	bsf	3,5	;RP0=1, select bank3
  2377  07AB  1703               	bsf	3,6	;RP1=1, select bank3
  2378  07AC  0812               	movf	(_PID+2)^(0+384),w
  2379  07AD  1283               	bcf	3,5	;RP0=0, select bank0
  2380  07AE  1303               	bcf	3,6	;RP1=0, select bank0
  2381  07AF  00A8               	movwf	___fltol@f1+2
  2382  07B0  1683               	bsf	3,5	;RP0=1, select bank3
  2383  07B1  1703               	bsf	3,6	;RP1=1, select bank3
  2384  07B2  0811               	movf	(_PID+1)^(0+384),w
  2385  07B3  1283               	bcf	3,5	;RP0=0, select bank0
  2386  07B4  1303               	bcf	3,6	;RP1=0, select bank0
  2387  07B5  00A7               	movwf	___fltol@f1+1
  2388  07B6  1683               	bsf	3,5	;RP0=1, select bank3
  2389  07B7  1703               	bsf	3,6	;RP1=1, select bank3
  2390  07B8  0810               	movf	_PID^(0+384),w
  2391  07B9  1283               	bcf	3,5	;RP0=0, select bank0
  2392  07BA  1303               	bcf	3,6	;RP1=0, select bank0
  2393  07BB  00A6               	movwf	___fltol@f1
  2394  07BC  160A  118A  23FA  120A  118A  	fcall	___fltol
  2395  07C1  1283               	bcf	3,5	;RP0=0, select bank0
  2396  07C2  1303               	bcf	3,6	;RP1=0, select bank0
  2397  07C3  0827               	movf	?___fltol+1,w
  2398  07C4  1683               	bsf	3,5	;RP0=1, select bank1
  2399  07C5  1303               	bcf	3,6	;RP1=0, select bank1
  2400  07C6  00D8               	movwf	(_realizarCalculo$848+1)^(0+128)
  2401  07C7  1283               	bcf	3,5	;RP0=0, select bank0
  2402  07C8  1303               	bcf	3,6	;RP1=0, select bank0
  2403  07C9  0826               	movf	?___fltol,w
  2404  07CA  1683               	bsf	3,5	;RP0=1, select bank1
  2405  07CB  1303               	bcf	3,6	;RP1=0, select bank1
  2406  07CC  00D7               	movwf	_realizarCalculo$848^(0+128)
  2407  07CD                     l2943:
  2408                           
  2409                           ;main.c: 145:     PWM1_Duty(PID, 4000);
  2410  07CD  0858               	movf	(_realizarCalculo$848+1)^(0+128),w
  2411  07CE  00BE               	movwf	(PWM1_Duty@duty+1)^(0+128)
  2412  07CF  0857               	movf	_realizarCalculo$848^(0+128),w
  2413  07D0  00BD               	movwf	PWM1_Duty@duty^(0+128)
  2414  07D1  30A0               	movlw	160
  2415  07D2  00BF               	movwf	PWM1_Duty@freq^(0+128)
  2416  07D3  300F               	movlw	15
  2417  07D4  00C0               	movwf	(PWM1_Duty@freq^(0+128)+1)
  2418  07D5  120A  158A  2149  120A  118A  	fcall	_PWM1_Duty
  2419  07DA                     l113:
  2420  07DA  0008               	return
  2421  07DB                     __end_of_realizarCalculo:
  2422                           
  2423                           	psect	text2
  2424  11DF                     __ptext2:	
  2425 ;; *************** function ___wmul *****************
  2426 ;; Defined at:
  2427 ;;		line 15 in file "C:\Program Files\Microchip\xc8\v2.32\pic\sources\c90\common\Umul16.c"
  2428 ;; Parameters:    Size  Location     Type
  2429 ;;  multiplier      2    5[COMMON] unsigned int 
  2430 ;;  multiplicand    2    7[COMMON] unsigned int 
  2431 ;; Auto vars:     Size  Location     Type
  2432 ;;  product         2    9[COMMON] unsigned int 
  2433 ;; Return value:  Size  Location     Type
  2434 ;;                  2    5[COMMON] unsigned int 
  2435 ;; Registers used:
  2436 ;;		wreg, status,2, status,0
  2437 ;; Tracked objects:
  2438 ;;		On entry : 0/0
  2439 ;;		On exit  : 0/0
  2440 ;;		Unchanged: 0/0
  2441 ;; Data sizes:     COMMON   BANK0   BANK1   BANK3   BANK2
  2442 ;;      Params:         4       0       0       0       0
  2443 ;;      Locals:         2       0       0       0       0
  2444 ;;      Temps:          0       0       0       0       0
  2445 ;;      Totals:         6       0       0       0       0
  2446 ;;Total ram usage:        6 bytes
  2447 ;; Hardware stack levels used: 1
  2448 ;; This function calls:
  2449 ;;		Nothing
  2450 ;; This function is called by:
  2451 ;;		_realizarCalculo
  2452 ;; This function uses a non-reentrant model
  2453 ;;
  2454                           
  2455                           
  2456                           ;psect for function ___wmul
  2457  11DF                     ___wmul:
  2458  11DF                     l2741:	
  2459                           ;incstack = 0
  2460                           ; Regs used in ___wmul: [wreg+status,2+status,0]
  2461                           
  2462  11DF  01F9               	clrf	___wmul@product
  2463  11E0  01FA               	clrf	___wmul@product+1
  2464  11E1                     l2743:
  2465  11E1  1C75               	btfss	___wmul@multiplier,0
  2466  11E2  29E4               	goto	u4091
  2467  11E3  29E5               	goto	u4090
  2468  11E4                     u4091:
  2469  11E4  29EB               	goto	l337
  2470  11E5                     u4090:
  2471  11E5                     l2745:
  2472  11E5  0877               	movf	___wmul@multiplicand,w
  2473  11E6  07F9               	addwf	___wmul@product,f
  2474  11E7  1803               	skipnc
  2475  11E8  0AFA               	incf	___wmul@product+1,f
  2476  11E9  0878               	movf	___wmul@multiplicand+1,w
  2477  11EA  07FA               	addwf	___wmul@product+1,f
  2478  11EB                     l337:
  2479  11EB  3001               	movlw	1
  2480  11EC                     u4105:
  2481  11EC  1003               	clrc
  2482  11ED  0DF7               	rlf	___wmul@multiplicand,f
  2483  11EE  0DF8               	rlf	___wmul@multiplicand+1,f
  2484  11EF  3EFF               	addlw	-1
  2485  11F0  1D03               	skipz
  2486  11F1  29EC               	goto	u4105
  2487  11F2                     l2747:
  2488  11F2  3001               	movlw	1
  2489  11F3                     u4115:
  2490  11F3  1003               	clrc
  2491  11F4  0CF6               	rrf	___wmul@multiplier+1,f
  2492  11F5  0CF5               	rrf	___wmul@multiplier,f
  2493  11F6  3EFF               	addlw	-1
  2494  11F7  1D03               	skipz
  2495  11F8  29F3               	goto	u4115
  2496  11F9                     l2749:
  2497  11F9  0875               	movf	___wmul@multiplier,w
  2498  11FA  0476               	iorwf	___wmul@multiplier+1,w
  2499  11FB  1D03               	btfss	3,2
  2500  11FC  29FE               	goto	u4121
  2501  11FD  29FF               	goto	u4120
  2502  11FE                     u4121:
  2503  11FE  29E1               	goto	l2743
  2504  11FF                     u4120:
  2505  11FF                     l2751:
  2506  11FF  087A               	movf	___wmul@product+1,w
  2507  1200  00F6               	movwf	?___wmul+1
  2508  1201  0879               	movf	___wmul@product,w
  2509  1202  00F5               	movwf	?___wmul
  2510  1203                     l339:
  2511  1203  0008               	return
  2512  1204                     __end_of___wmul:
  2513                           
  2514                           	psect	text3
  2515  13AA                     __ptext3:	
  2516 ;; *************** function ___flsub *****************
  2517 ;; Defined at:
  2518 ;;		line 242 in file "C:\Program Files\Microchip\xc8\v2.32\pic\sources\c90\common\sprcadd.c"
  2519 ;; Parameters:    Size  Location     Type
  2520 ;;  a               4    0[BANK1 ] unsigned int 
  2521 ;;  b               4    4[BANK1 ] unsigned int 
  2522 ;; Auto vars:     Size  Location     Type
  2523 ;;		None
  2524 ;; Return value:  Size  Location     Type
  2525 ;;                  4    0[BANK1 ] unsigned int 
  2526 ;; Registers used:
  2527 ;;		wreg, status,2, status,0, btemp+1, pclath, cstack
  2528 ;; Tracked objects:
  2529 ;;		On entry : 0/0
  2530 ;;		On exit  : 0/0
  2531 ;;		Unchanged: 0/0
  2532 ;; Data sizes:     COMMON   BANK0   BANK1   BANK3   BANK2
  2533 ;;      Params:         0       0       8       0       0
  2534 ;;      Locals:         0       0       0       0       0
  2535 ;;      Temps:          0       0       0       0       0
  2536 ;;      Totals:         0       0       8       0       0
  2537 ;;Total ram usage:        8 bytes
  2538 ;; Hardware stack levels used: 1
  2539 ;; Hardware stack levels required when called: 1
  2540 ;; This function calls:
  2541 ;;		___fladd
  2542 ;; This function is called by:
  2543 ;;		_realizarCalculo
  2544 ;; This function uses a non-reentrant model
  2545 ;;
  2546                           
  2547                           
  2548                           ;psect for function ___flsub
  2549  13AA                     ___flsub:
  2550  13AA                     l2837:	
  2551                           ;incstack = 0
  2552                           ; Regs used in ___flsub: [wreg+status,2+status,0+btemp+1+pclath+cstack]
  2553                           
  2554  13AA  3080               	movlw	128
  2555  13AB  1683               	bsf	3,5	;RP0=1, select bank1
  2556  13AC  1303               	bcf	3,6	;RP1=0, select bank1
  2557  13AD  06A3               	xorwf	(___flsub@a+3)^(0+128),f
  2558  13AE                     l2839:
  2559  13AE  0827               	movf	(___flsub@b+3)^(0+128),w
  2560  13AF  1283               	bcf	3,5	;RP0=0, select bank0
  2561  13B0  1303               	bcf	3,6	;RP1=0, select bank0
  2562  13B1  00D9               	movwf	___fladd@b+3
  2563  13B2  1683               	bsf	3,5	;RP0=1, select bank1
  2564  13B3  1303               	bcf	3,6	;RP1=0, select bank1
  2565  13B4  0826               	movf	(___flsub@b+2)^(0+128),w
  2566  13B5  1283               	bcf	3,5	;RP0=0, select bank0
  2567  13B6  1303               	bcf	3,6	;RP1=0, select bank0
  2568  13B7  00D8               	movwf	___fladd@b+2
  2569  13B8  1683               	bsf	3,5	;RP0=1, select bank1
  2570  13B9  1303               	bcf	3,6	;RP1=0, select bank1
  2571  13BA  0825               	movf	(___flsub@b+1)^(0+128),w
  2572  13BB  1283               	bcf	3,5	;RP0=0, select bank0
  2573  13BC  1303               	bcf	3,6	;RP1=0, select bank0
  2574  13BD  00D7               	movwf	___fladd@b+1
  2575  13BE  1683               	bsf	3,5	;RP0=1, select bank1
  2576  13BF  1303               	bcf	3,6	;RP1=0, select bank1
  2577  13C0  0824               	movf	___flsub@b^(0+128),w
  2578  13C1  1283               	bcf	3,5	;RP0=0, select bank0
  2579  13C2  1303               	bcf	3,6	;RP1=0, select bank0
  2580  13C3  00D6               	movwf	___fladd@b
  2581  13C4  1683               	bsf	3,5	;RP0=1, select bank1
  2582  13C5  1303               	bcf	3,6	;RP1=0, select bank1
  2583  13C6  0823               	movf	(___flsub@a+3)^(0+128),w
  2584  13C7  1283               	bcf	3,5	;RP0=0, select bank0
  2585  13C8  1303               	bcf	3,6	;RP1=0, select bank0
  2586  13C9  00DD               	movwf	___fladd@a+3
  2587  13CA  1683               	bsf	3,5	;RP0=1, select bank1
  2588  13CB  1303               	bcf	3,6	;RP1=0, select bank1
  2589  13CC  0822               	movf	(___flsub@a+2)^(0+128),w
  2590  13CD  1283               	bcf	3,5	;RP0=0, select bank0
  2591  13CE  1303               	bcf	3,6	;RP1=0, select bank0
  2592  13CF  00DC               	movwf	___fladd@a+2
  2593  13D0  1683               	bsf	3,5	;RP0=1, select bank1
  2594  13D1  1303               	bcf	3,6	;RP1=0, select bank1
  2595  13D2  0821               	movf	(___flsub@a+1)^(0+128),w
  2596  13D3  1283               	bcf	3,5	;RP0=0, select bank0
  2597  13D4  1303               	bcf	3,6	;RP1=0, select bank0
  2598  13D5  00DB               	movwf	___fladd@a+1
  2599  13D6  1683               	bsf	3,5	;RP0=1, select bank1
  2600  13D7  1303               	bcf	3,6	;RP1=0, select bank1
  2601  13D8  0820               	movf	___flsub@a^(0+128),w
  2602  13D9  1283               	bcf	3,5	;RP0=0, select bank0
  2603  13DA  1303               	bcf	3,6	;RP1=0, select bank0
  2604  13DB  00DA               	movwf	___fladd@a
  2605  13DC  120A  158A  2578  160A  118A  	fcall	___fladd
  2606  13E1  1283               	bcf	3,5	;RP0=0, select bank0
  2607  13E2  1303               	bcf	3,6	;RP1=0, select bank0
  2608  13E3  0859               	movf	?___fladd+3,w
  2609  13E4  1683               	bsf	3,5	;RP0=1, select bank1
  2610  13E5  1303               	bcf	3,6	;RP1=0, select bank1
  2611  13E6  00A3               	movwf	(?___flsub+3)^(0+128)
  2612  13E7  1283               	bcf	3,5	;RP0=0, select bank0
  2613  13E8  1303               	bcf	3,6	;RP1=0, select bank0
  2614  13E9  0858               	movf	?___fladd+2,w
  2615  13EA  1683               	bsf	3,5	;RP0=1, select bank1
  2616  13EB  1303               	bcf	3,6	;RP1=0, select bank1
  2617  13EC  00A2               	movwf	(?___flsub+2)^(0+128)
  2618  13ED  1283               	bcf	3,5	;RP0=0, select bank0
  2619  13EE  1303               	bcf	3,6	;RP1=0, select bank0
  2620  13EF  0857               	movf	?___fladd+1,w
  2621  13F0  1683               	bsf	3,5	;RP0=1, select bank1
  2622  13F1  1303               	bcf	3,6	;RP1=0, select bank1
  2623  13F2  00A1               	movwf	(?___flsub+1)^(0+128)
  2624  13F3  1283               	bcf	3,5	;RP0=0, select bank0
  2625  13F4  1303               	bcf	3,6	;RP1=0, select bank0
  2626  13F5  0856               	movf	?___fladd,w
  2627  13F6  1683               	bsf	3,5	;RP0=1, select bank1
  2628  13F7  1303               	bcf	3,6	;RP1=0, select bank1
  2629  13F8  00A0               	movwf	?___flsub^(0+128)
  2630  13F9                     l676:
  2631  13F9  0008               	return
  2632  13FA                     __end_of___flsub:
  2633                           
  2634                           	psect	text4
  2635  0D78                     __ptext4:	
  2636 ;; *************** function ___fladd *****************
  2637 ;; Defined at:
  2638 ;;		line 10 in file "C:\Program Files\Microchip\xc8\v2.32\pic\sources\c90\common\sprcadd.c"
  2639 ;; Parameters:    Size  Location     Type
  2640 ;;  b               4   54[BANK0 ] unsigned int 
  2641 ;;  a               4   58[BANK0 ] unsigned int 
  2642 ;; Auto vars:     Size  Location     Type
  2643 ;;  grs             1   73[BANK0 ] unsigned char 
  2644 ;;  bexp            1   72[BANK0 ] unsigned char 
  2645 ;;  aexp            1   71[BANK0 ] unsigned char 
  2646 ;;  signs           1   70[BANK0 ] unsigned char 
  2647 ;; Return value:  Size  Location     Type
  2648 ;;                  4   54[BANK0 ] unsigned char 
  2649 ;; Registers used:
  2650 ;;		wreg, status,2, status,0, btemp+1
  2651 ;; Tracked objects:
  2652 ;;		On entry : 0/0
  2653 ;;		On exit  : 0/0
  2654 ;;		Unchanged: 0/0
  2655 ;; Data sizes:     COMMON   BANK0   BANK1   BANK3   BANK2
  2656 ;;      Params:         0       8       0       0       0
  2657 ;;      Locals:         0       4       0       0       0
  2658 ;;      Temps:          0       8       0       0       0
  2659 ;;      Totals:         0      20       0       0       0
  2660 ;;Total ram usage:       20 bytes
  2661 ;; Hardware stack levels used: 1
  2662 ;; This function calls:
  2663 ;;		Nothing
  2664 ;; This function is called by:
  2665 ;;		_realizarCalculo
  2666 ;;		___flsub
  2667 ;; This function uses a non-reentrant model
  2668 ;;
  2669                           
  2670                           
  2671                           ;psect for function ___fladd
  2672  0D78                     ___fladd:
  2673  0D78                     l2089:	
  2674                           ;incstack = 0
  2675                           ; Regs used in ___fladd: [wreg+status,2+status,0+btemp+1]
  2676                           
  2677  0D78  1283               	bcf	3,5	;RP0=0, select bank0
  2678  0D79  1303               	bcf	3,6	;RP1=0, select bank0
  2679  0D7A  0859               	movf	___fladd@b+3,w
  2680  0D7B  3980               	andlw	128
  2681  0D7C  00DE               	movwf	??___fladd
  2682  0D7D  085E               	movf	??___fladd,w
  2683  0D7E  00E6               	movwf	___fladd@signs
  2684  0D7F                     l2091:
  2685  0D7F  0859               	movf	___fladd@b+3,w
  2686  0D80  00DE               	movwf	??___fladd
  2687  0D81  075E               	addwf	??___fladd,w
  2688  0D82  00DF               	movwf	??___fladd+1
  2689  0D83  085F               	movf	??___fladd+1,w
  2690  0D84  00E8               	movwf	___fladd@bexp
  2691  0D85                     l2093:
  2692  0D85  1FD8               	btfss	___fladd@b+2,7
  2693  0D86  2D88               	goto	u2621
  2694  0D87  2D89               	goto	u2620
  2695  0D88                     u2621:
  2696  0D88  2D8A               	goto	l2097
  2697  0D89                     u2620:
  2698  0D89                     l2095:
  2699  0D89  1468               	bsf	___fladd@bexp,0
  2700  0D8A                     l2097:
  2701  0D8A  0868               	movf	___fladd@bexp,w
  2702  0D8B  1903               	btfsc	3,2
  2703  0D8C  2D8E               	goto	u2631
  2704  0D8D  2D8F               	goto	u2630
  2705  0D8E                     u2631:
  2706  0D8E  2D9F               	goto	l2107
  2707  0D8F                     u2630:
  2708  0D8F                     l2099:
  2709  0D8F  0A68               	incf	___fladd@bexp,w
  2710  0D90  1D03               	btfss	3,2
  2711  0D91  2D93               	goto	u2641
  2712  0D92  2D94               	goto	u2640
  2713  0D93                     u2641:
  2714  0D93  2D9C               	goto	l2103
  2715  0D94                     u2640:
  2716  0D94                     l2101:
  2717  0D94  3000               	movlw	0
  2718  0D95  00D9               	movwf	___fladd@b+3
  2719  0D96  3000               	movlw	0
  2720  0D97  00D8               	movwf	___fladd@b+2
  2721  0D98  3000               	movlw	0
  2722  0D99  00D7               	movwf	___fladd@b+1
  2723  0D9A  3000               	movlw	0
  2724  0D9B  00D6               	movwf	___fladd@b
  2725  0D9C                     l2103:
  2726  0D9C  17D8               	bsf	___fladd@b+2,7
  2727  0D9D                     l2105:
  2728  0D9D  01D9               	clrf	___fladd@b+3
  2729  0D9E  2DA7               	goto	l2109
  2730  0D9F                     l2107:
  2731  0D9F  3000               	movlw	0
  2732  0DA0  00D9               	movwf	___fladd@b+3
  2733  0DA1  3000               	movlw	0
  2734  0DA2  00D8               	movwf	___fladd@b+2
  2735  0DA3  3000               	movlw	0
  2736  0DA4  00D7               	movwf	___fladd@b+1
  2737  0DA5  3000               	movlw	0
  2738  0DA6  00D6               	movwf	___fladd@b
  2739  0DA7                     l2109:
  2740  0DA7  085D               	movf	___fladd@a+3,w
  2741  0DA8  3980               	andlw	128
  2742  0DA9  00DE               	movwf	??___fladd
  2743  0DAA  085E               	movf	??___fladd,w
  2744  0DAB  00E7               	movwf	___fladd@aexp
  2745  0DAC                     l2111:
  2746  0DAC  0867               	movf	___fladd@aexp,w
  2747  0DAD  0666               	xorwf	___fladd@signs,w
  2748  0DAE  1903               	skipnz
  2749  0DAF  2DB1               	goto	u2651
  2750  0DB0  2DB2               	goto	u2650
  2751  0DB1                     u2651:
  2752  0DB1  2DB3               	goto	l2115
  2753  0DB2                     u2650:
  2754  0DB2                     l2113:
  2755  0DB2  1766               	bsf	___fladd@signs,6
  2756  0DB3                     l2115:
  2757  0DB3  085D               	movf	___fladd@a+3,w
  2758  0DB4  00DE               	movwf	??___fladd
  2759  0DB5  075E               	addwf	??___fladd,w
  2760  0DB6  00DF               	movwf	??___fladd+1
  2761  0DB7  085F               	movf	??___fladd+1,w
  2762  0DB8  00E7               	movwf	___fladd@aexp
  2763  0DB9                     l2117:
  2764  0DB9  1FDC               	btfss	___fladd@a+2,7
  2765  0DBA  2DBC               	goto	u2661
  2766  0DBB  2DBD               	goto	u2660
  2767  0DBC                     u2661:
  2768  0DBC  2DBE               	goto	l2121
  2769  0DBD                     u2660:
  2770  0DBD                     l2119:
  2771  0DBD  1467               	bsf	___fladd@aexp,0
  2772  0DBE                     l2121:
  2773  0DBE  0867               	movf	___fladd@aexp,w
  2774  0DBF  1903               	btfsc	3,2
  2775  0DC0  2DC2               	goto	u2671
  2776  0DC1  2DC3               	goto	u2670
  2777  0DC2                     u2671:
  2778  0DC2  2DD3               	goto	l2131
  2779  0DC3                     u2670:
  2780  0DC3                     l2123:
  2781  0DC3  0A67               	incf	___fladd@aexp,w
  2782  0DC4  1D03               	btfss	3,2
  2783  0DC5  2DC7               	goto	u2681
  2784  0DC6  2DC8               	goto	u2680
  2785  0DC7                     u2681:
  2786  0DC7  2DD0               	goto	l2127
  2787  0DC8                     u2680:
  2788  0DC8                     l2125:
  2789  0DC8  3000               	movlw	0
  2790  0DC9  00DD               	movwf	___fladd@a+3
  2791  0DCA  3000               	movlw	0
  2792  0DCB  00DC               	movwf	___fladd@a+2
  2793  0DCC  3000               	movlw	0
  2794  0DCD  00DB               	movwf	___fladd@a+1
  2795  0DCE  3000               	movlw	0
  2796  0DCF  00DA               	movwf	___fladd@a
  2797  0DD0                     l2127:
  2798  0DD0  17DC               	bsf	___fladd@a+2,7
  2799  0DD1                     l2129:
  2800  0DD1  01DD               	clrf	___fladd@a+3
  2801  0DD2  2DDB               	goto	l630
  2802  0DD3                     l2131:
  2803  0DD3  3000               	movlw	0
  2804  0DD4  00DD               	movwf	___fladd@a+3
  2805  0DD5  3000               	movlw	0
  2806  0DD6  00DC               	movwf	___fladd@a+2
  2807  0DD7  3000               	movlw	0
  2808  0DD8  00DB               	movwf	___fladd@a+1
  2809  0DD9  3000               	movlw	0
  2810  0DDA  00DA               	movwf	___fladd@a
  2811  0DDB                     l630:
  2812  0DDB  0868               	movf	___fladd@bexp,w
  2813  0DDC  0267               	subwf	___fladd@aexp,w
  2814  0DDD  1803               	skipnc
  2815  0DDE  2DE0               	goto	u2691
  2816  0DDF  2DE1               	goto	u2690
  2817  0DE0                     u2691:
  2818  0DE0  2E25               	goto	l2167
  2819  0DE1                     u2690:
  2820  0DE1                     l2133:
  2821  0DE1  1F66               	btfss	___fladd@signs,6
  2822  0DE2  2DE4               	goto	u2701
  2823  0DE3  2DE5               	goto	u2700
  2824  0DE4                     u2701:
  2825  0DE4  2DE9               	goto	l2137
  2826  0DE5                     u2700:
  2827  0DE5                     l2135:
  2828  0DE5  3080               	movlw	128
  2829  0DE6  00DE               	movwf	??___fladd
  2830  0DE7  085E               	movf	??___fladd,w
  2831  0DE8  06E6               	xorwf	___fladd@signs,f
  2832  0DE9                     l2137:
  2833  0DE9  0868               	movf	___fladd@bexp,w
  2834  0DEA  00DE               	movwf	??___fladd
  2835  0DEB  085E               	movf	??___fladd,w
  2836  0DEC  00E9               	movwf	___fladd@grs
  2837  0DED                     l2139:
  2838  0DED  0867               	movf	___fladd@aexp,w
  2839  0DEE  00DE               	movwf	??___fladd
  2840  0DEF  085E               	movf	??___fladd,w
  2841  0DF0  00E8               	movwf	___fladd@bexp
  2842  0DF1                     l2141:
  2843  0DF1  0869               	movf	___fladd@grs,w
  2844  0DF2  00DE               	movwf	??___fladd
  2845  0DF3  085E               	movf	??___fladd,w
  2846  0DF4  00E7               	movwf	___fladd@aexp
  2847  0DF5                     l2143:
  2848  0DF5  0856               	movf	___fladd@b,w
  2849  0DF6  00DE               	movwf	??___fladd
  2850  0DF7  085E               	movf	??___fladd,w
  2851  0DF8  00E9               	movwf	___fladd@grs
  2852  0DF9                     l2145:
  2853  0DF9  085A               	movf	___fladd@a,w
  2854  0DFA  00DE               	movwf	??___fladd
  2855  0DFB  085E               	movf	??___fladd,w
  2856  0DFC  00D6               	movwf	___fladd@b
  2857  0DFD                     l2147:
  2858  0DFD  0869               	movf	___fladd@grs,w
  2859  0DFE  00DE               	movwf	??___fladd
  2860  0DFF  085E               	movf	??___fladd,w
  2861  0E00  00DA               	movwf	___fladd@a
  2862  0E01                     l2149:
  2863  0E01  0857               	movf	___fladd@b+1,w
  2864  0E02  00DE               	movwf	??___fladd
  2865  0E03  085E               	movf	??___fladd,w
  2866  0E04  00E9               	movwf	___fladd@grs
  2867  0E05                     l2151:
  2868  0E05  085B               	movf	___fladd@a+1,w
  2869  0E06  00DE               	movwf	??___fladd
  2870  0E07  085E               	movf	??___fladd,w
  2871  0E08  00D7               	movwf	___fladd@b+1
  2872  0E09                     l2153:
  2873  0E09  0869               	movf	___fladd@grs,w
  2874  0E0A  00DE               	movwf	??___fladd
  2875  0E0B  085E               	movf	??___fladd,w
  2876  0E0C  00DB               	movwf	___fladd@a+1
  2877  0E0D                     l2155:
  2878  0E0D  0858               	movf	___fladd@b+2,w
  2879  0E0E  00DE               	movwf	??___fladd
  2880  0E0F  085E               	movf	??___fladd,w
  2881  0E10  00E9               	movwf	___fladd@grs
  2882  0E11                     l2157:
  2883  0E11  085C               	movf	___fladd@a+2,w
  2884  0E12  00DE               	movwf	??___fladd
  2885  0E13  085E               	movf	??___fladd,w
  2886  0E14  00D8               	movwf	___fladd@b+2
  2887  0E15                     l2159:
  2888  0E15  0869               	movf	___fladd@grs,w
  2889  0E16  00DE               	movwf	??___fladd
  2890  0E17  085E               	movf	??___fladd,w
  2891  0E18  00DC               	movwf	___fladd@a+2
  2892  0E19                     l2161:
  2893  0E19  0859               	movf	___fladd@b+3,w
  2894  0E1A  00DE               	movwf	??___fladd
  2895  0E1B  085E               	movf	??___fladd,w
  2896  0E1C  00E9               	movwf	___fladd@grs
  2897  0E1D                     l2163:
  2898  0E1D  085D               	movf	___fladd@a+3,w
  2899  0E1E  00DE               	movwf	??___fladd
  2900  0E1F  085E               	movf	??___fladd,w
  2901  0E20  00D9               	movwf	___fladd@b+3
  2902  0E21                     l2165:
  2903  0E21  0869               	movf	___fladd@grs,w
  2904  0E22  00DE               	movwf	??___fladd
  2905  0E23  085E               	movf	??___fladd,w
  2906  0E24  00DD               	movwf	___fladd@a+3
  2907  0E25                     l2167:
  2908  0E25  01E9               	clrf	___fladd@grs
  2909  0E26                     l2169:
  2910  0E26  0867               	movf	___fladd@aexp,w
  2911  0E27  00DE               	movwf	??___fladd
  2912  0E28  01DF               	clrf	??___fladd+1
  2913  0E29  085F               	movf	??___fladd+1,w
  2914  0E2A  00E1               	movwf	??___fladd+3
  2915  0E2B  0868               	movf	___fladd@bexp,w
  2916  0E2C  025E               	subwf	??___fladd,w
  2917  0E2D  00E0               	movwf	??___fladd+2
  2918  0E2E  1C03               	skipc
  2919  0E2F  03E1               	decf	??___fladd+3,f
  2920  0E30  0861               	movf	??___fladd+3,w
  2921  0E31  3A80               	xorlw	128
  2922  0E32  00FF               	movwf	btemp+1
  2923  0E33  3080               	movlw	128
  2924  0E34  027F               	subwf	btemp+1,w
  2925  0E35  1D03               	skipz
  2926  0E36  2E39               	goto	u2715
  2927  0E37  301A               	movlw	26
  2928  0E38  0260               	subwf	??___fladd+2,w
  2929  0E39                     u2715:
  2930  0E39  1C03               	skipc
  2931  0E3A  2E3C               	goto	u2711
  2932  0E3B  2E3D               	goto	u2710
  2933  0E3C                     u2711:
  2934  0E3C  2E7A               	goto	l2185
  2935  0E3D                     u2710:
  2936  0E3D                     l2171:
  2937  0E3D  1283               	bcf	3,5	;RP0=0, select bank0
  2938  0E3E  1303               	bcf	3,6	;RP1=0, select bank0
  2939  0E3F  0859               	movf	___fladd@b+3,w
  2940  0E40  0458               	iorwf	___fladd@b+2,w
  2941  0E41  0457               	iorwf	___fladd@b+1,w
  2942  0E42  0456               	iorwf	___fladd@b,w
  2943  0E43  1D03               	skipz
  2944  0E44  2E46               	goto	u2721
  2945  0E45  2E48               	goto	u2720
  2946  0E46                     u2721:
  2947  0E46  3001               	movlw	1
  2948  0E47  2E49               	goto	u2730
  2949  0E48                     u2720:
  2950  0E48  3000               	movlw	0
  2951  0E49                     u2730:
  2952  0E49  00DE               	movwf	??___fladd
  2953  0E4A  085E               	movf	??___fladd,w
  2954  0E4B  00E9               	movwf	___fladd@grs
  2955  0E4C  3000               	movlw	0
  2956  0E4D  00D9               	movwf	___fladd@b+3
  2957  0E4E  3000               	movlw	0
  2958  0E4F  00D8               	movwf	___fladd@b+2
  2959  0E50  3000               	movlw	0
  2960  0E51  00D7               	movwf	___fladd@b+1
  2961  0E52  3000               	movlw	0
  2962  0E53  00D6               	movwf	___fladd@b
  2963  0E54  0867               	movf	___fladd@aexp,w
  2964  0E55  00DE               	movwf	??___fladd
  2965  0E56  085E               	movf	??___fladd,w
  2966  0E57  00E8               	movwf	___fladd@bexp
  2967  0E58  2E82               	goto	l634
  2968  0E59                     l636:
  2969  0E59  1C69               	btfss	___fladd@grs,0
  2970  0E5A  2E5C               	goto	u2741
  2971  0E5B  2E5D               	goto	u2740
  2972  0E5C                     u2741:
  2973  0E5C  2E66               	goto	l2175
  2974  0E5D                     u2740:
  2975  0E5D                     l2173:
  2976  0E5D  0869               	movf	___fladd@grs,w
  2977  0E5E  00DE               	movwf	??___fladd
  2978  0E5F  1003               	clrc
  2979  0E60  0C5E               	rrf	??___fladd,w
  2980  0E61  3801               	iorlw	1
  2981  0E62  00DF               	movwf	??___fladd+1
  2982  0E63  085F               	movf	??___fladd+1,w
  2983  0E64  00E9               	movwf	___fladd@grs
  2984  0E65  2E68               	goto	l2177
  2985  0E66                     l2175:
  2986  0E66  1003               	clrc
  2987  0E67  0CE9               	rrf	___fladd@grs,f
  2988  0E68                     l2177:
  2989  0E68  1C56               	btfss	___fladd@b,0
  2990  0E69  2E6B               	goto	u2751
  2991  0E6A  2E6C               	goto	u2750
  2992  0E6B                     u2751:
  2993  0E6B  2E6D               	goto	l2181
  2994  0E6C                     u2750:
  2995  0E6C                     l2179:
  2996  0E6C  17E9               	bsf	___fladd@grs,7
  2997  0E6D                     l2181:
  2998  0E6D  3001               	movlw	1
  2999  0E6E  00DE               	movwf	??___fladd
  3000  0E6F                     u2765:
  3001  0E6F  0D59               	rlf	___fladd@b+3,w
  3002  0E70  0CD9               	rrf	___fladd@b+3,f
  3003  0E71  0CD8               	rrf	___fladd@b+2,f
  3004  0E72  0CD7               	rrf	___fladd@b+1,f
  3005  0E73  0CD6               	rrf	___fladd@b,f
  3006  0E74  0BDE               	decfsz	??___fladd& (0+127),f
  3007  0E75  2E6F               	goto	u2765
  3008  0E76                     l2183:
  3009  0E76  3001               	movlw	1
  3010  0E77  00DE               	movwf	??___fladd
  3011  0E78  085E               	movf	??___fladd,w
  3012  0E79  07E8               	addwf	___fladd@bexp,f
  3013  0E7A                     l2185:
  3014  0E7A  1283               	bcf	3,5	;RP0=0, select bank0
  3015  0E7B  1303               	bcf	3,6	;RP1=0, select bank0
  3016  0E7C  0867               	movf	___fladd@aexp,w
  3017  0E7D  0268               	subwf	___fladd@bexp,w
  3018  0E7E  1C03               	skipc
  3019  0E7F  2E81               	goto	u2771
  3020  0E80  2E82               	goto	u2770
  3021  0E81                     u2771:
  3022  0E81  2E59               	goto	l636
  3023  0E82                     u2770:
  3024  0E82                     l634:
  3025  0E82  1B66               	btfsc	___fladd@signs,6
  3026  0E83  2E85               	goto	u2781
  3027  0E84  2E86               	goto	u2780
  3028  0E85                     u2781:
  3029  0E85  2ED1               	goto	l2211
  3030  0E86                     u2780:
  3031  0E86                     l2187:
  3032  0E86  0868               	movf	___fladd@bexp,w
  3033  0E87  1D03               	btfss	3,2
  3034  0E88  2E8A               	goto	u2791
  3035  0E89  2E8B               	goto	u2790
  3036  0E8A                     u2791:
  3037  0E8A  2E94               	goto	l2193
  3038  0E8B                     u2790:
  3039  0E8B                     l2189:
  3040  0E8B  3000               	movlw	0
  3041  0E8C  00D9               	movwf	?___fladd+3
  3042  0E8D  3000               	movlw	0
  3043  0E8E  00D8               	movwf	?___fladd+2
  3044  0E8F  3000               	movlw	0
  3045  0E90  00D7               	movwf	?___fladd+1
  3046  0E91  3000               	movlw	0
  3047  0E92  00D6               	movwf	?___fladd
  3048  0E93  2FFF               	goto	l643
  3049  0E94                     l2193:
  3050  0E94  085A               	movf	___fladd@a,w
  3051  0E95  07D6               	addwf	___fladd@b,f
  3052  0E96  085B               	movf	___fladd@a+1,w
  3053  0E97  1103               	clrz
  3054  0E98  1803               	skipnc
  3055  0E99  3E01               	addlw	1
  3056  0E9A  1903               	skipnz
  3057  0E9B  2E9D               	goto	u2801
  3058  0E9C  07D7               	addwf	___fladd@b+1,f
  3059  0E9D                     u2801:
  3060  0E9D  085C               	movf	___fladd@a+2,w
  3061  0E9E  1103               	clrz
  3062  0E9F  1803               	skipnc
  3063  0EA0  3E01               	addlw	1
  3064  0EA1  1903               	skipnz
  3065  0EA2  2EA4               	goto	u2802
  3066  0EA3  07D8               	addwf	___fladd@b+2,f
  3067  0EA4                     u2802:
  3068  0EA4  085D               	movf	___fladd@a+3,w
  3069  0EA5  1103               	clrz
  3070  0EA6  1803               	skipnc
  3071  0EA7  3E01               	addlw	1
  3072  0EA8  1903               	skipnz
  3073  0EA9  2EAB               	goto	u2803
  3074  0EAA  07D9               	addwf	___fladd@b+3,f
  3075  0EAB                     u2803:
  3076  0EAB                     l2195:
  3077  0EAB  1C59               	btfss	___fladd@b+3,0
  3078  0EAC  2EAE               	goto	u2811
  3079  0EAD  2EAF               	goto	u2810
  3080  0EAE                     u2811:
  3081  0EAE  2F85               	goto	l2245
  3082  0EAF                     u2810:
  3083  0EAF                     l2197:
  3084  0EAF  1C69               	btfss	___fladd@grs,0
  3085  0EB0  2EB2               	goto	u2821
  3086  0EB1  2EB3               	goto	u2820
  3087  0EB2                     u2821:
  3088  0EB2  2EBC               	goto	l2201
  3089  0EB3                     u2820:
  3090  0EB3                     l2199:
  3091  0EB3  0869               	movf	___fladd@grs,w
  3092  0EB4  00DE               	movwf	??___fladd
  3093  0EB5  1003               	clrc
  3094  0EB6  0C5E               	rrf	??___fladd,w
  3095  0EB7  3801               	iorlw	1
  3096  0EB8  00DF               	movwf	??___fladd+1
  3097  0EB9  085F               	movf	??___fladd+1,w
  3098  0EBA  00E9               	movwf	___fladd@grs
  3099  0EBB  2EBE               	goto	l2203
  3100  0EBC                     l2201:
  3101  0EBC  1003               	clrc
  3102  0EBD  0CE9               	rrf	___fladd@grs,f
  3103  0EBE                     l2203:
  3104  0EBE  1C56               	btfss	___fladd@b,0
  3105  0EBF  2EC1               	goto	u2831
  3106  0EC0  2EC2               	goto	u2830
  3107  0EC1                     u2831:
  3108  0EC1  2EC3               	goto	l2207
  3109  0EC2                     u2830:
  3110  0EC2                     l2205:
  3111  0EC2  17E9               	bsf	___fladd@grs,7
  3112  0EC3                     l2207:
  3113  0EC3  3001               	movlw	1
  3114  0EC4  00DE               	movwf	??___fladd
  3115  0EC5                     u2845:
  3116  0EC5  0D59               	rlf	___fladd@b+3,w
  3117  0EC6  0CD9               	rrf	___fladd@b+3,f
  3118  0EC7  0CD8               	rrf	___fladd@b+2,f
  3119  0EC8  0CD7               	rrf	___fladd@b+1,f
  3120  0EC9  0CD6               	rrf	___fladd@b,f
  3121  0ECA  0BDE               	decfsz	??___fladd& (0+127),f
  3122  0ECB  2EC5               	goto	u2845
  3123  0ECC                     l2209:
  3124  0ECC  3001               	movlw	1
  3125  0ECD  00DE               	movwf	??___fladd
  3126  0ECE  085E               	movf	??___fladd,w
  3127  0ECF  07E8               	addwf	___fladd@bexp,f
  3128  0ED0  2F85               	goto	l2245
  3129  0ED1                     l2211:
  3130  0ED1  0859               	movf	___fladd@b+3,w
  3131  0ED2  3A80               	xorlw	128
  3132  0ED3  00FF               	movwf	btemp+1
  3133  0ED4  085D               	movf	___fladd@a+3,w
  3134  0ED5  3A80               	xorlw	128
  3135  0ED6  027F               	subwf	btemp+1,w
  3136  0ED7  1D03               	skipz
  3137  0ED8  2EE3               	goto	u2853
  3138  0ED9  085C               	movf	___fladd@a+2,w
  3139  0EDA  0258               	subwf	___fladd@b+2,w
  3140  0EDB  1D03               	skipz
  3141  0EDC  2EE3               	goto	u2853
  3142  0EDD  085B               	movf	___fladd@a+1,w
  3143  0EDE  0257               	subwf	___fladd@b+1,w
  3144  0EDF  1D03               	skipz
  3145  0EE0  2EE3               	goto	u2853
  3146  0EE1  085A               	movf	___fladd@a,w
  3147  0EE2  0256               	subwf	___fladd@b,w
  3148  0EE3                     u2853:
  3149  0EE3  1803               	skipnc
  3150  0EE4  2EE6               	goto	u2851
  3151  0EE5  2EE7               	goto	u2850
  3152  0EE6                     u2851:
  3153  0EE6  2F3F               	goto	l2221
  3154  0EE7                     u2850:
  3155  0EE7                     l2213:
  3156  0EE7  30FF               	movlw	255
  3157  0EE8  00DE               	movwf	??___fladd
  3158  0EE9  30FF               	movlw	255
  3159  0EEA  00DF               	movwf	??___fladd+1
  3160  0EEB  30FF               	movlw	255
  3161  0EEC  00E0               	movwf	??___fladd+2
  3162  0EED  30FF               	movlw	255
  3163  0EEE  00E1               	movwf	??___fladd+3
  3164  0EEF  085A               	movf	___fladd@a,w
  3165  0EF0  00E2               	movwf	??___fladd+4
  3166  0EF1  085B               	movf	___fladd@a+1,w
  3167  0EF2  00E3               	movwf	??___fladd+5
  3168  0EF3  085C               	movf	___fladd@a+2,w
  3169  0EF4  00E4               	movwf	??___fladd+6
  3170  0EF5  085D               	movf	___fladd@a+3,w
  3171  0EF6  00E5               	movwf	??___fladd+7
  3172  0EF7  0856               	movf	___fladd@b,w
  3173  0EF8  02E2               	subwf	??___fladd+4,f
  3174  0EF9  0857               	movf	___fladd@b+1,w
  3175  0EFA  1C03               	skipc
  3176  0EFB  0F57               	incfsz	___fladd@b+1,w
  3177  0EFC  2EFE               	goto	u2861
  3178  0EFD  2EFF               	goto	u2862
  3179  0EFE                     u2861:
  3180  0EFE  02E3               	subwf	??___fladd+5,f
  3181  0EFF                     u2862:
  3182  0EFF  0858               	movf	___fladd@b+2,w
  3183  0F00  1C03               	skipc
  3184  0F01  0F58               	incfsz	___fladd@b+2,w
  3185  0F02  2F04               	goto	u2863
  3186  0F03  2F05               	goto	u2864
  3187  0F04                     u2863:
  3188  0F04  02E4               	subwf	??___fladd+6,f
  3189  0F05                     u2864:
  3190  0F05  0859               	movf	___fladd@b+3,w
  3191  0F06  1C03               	skipc
  3192  0F07  0F59               	incfsz	___fladd@b+3,w
  3193  0F08  2F0A               	goto	u2865
  3194  0F09  2F0B               	goto	u2866
  3195  0F0A                     u2865:
  3196  0F0A  02E5               	subwf	??___fladd+7,f
  3197  0F0B                     u2866:
  3198  0F0B  0862               	movf	??___fladd+4,w
  3199  0F0C  07DE               	addwf	??___fladd,f
  3200  0F0D  0863               	movf	??___fladd+5,w
  3201  0F0E  1803               	skipnc
  3202  0F0F  0F63               	incfsz	??___fladd+5,w
  3203  0F10  2F12               	goto	u2870
  3204  0F11  2F13               	goto	u2871
  3205  0F12                     u2870:
  3206  0F12  07DF               	addwf	??___fladd+1,f
  3207  0F13                     u2871:
  3208  0F13  0864               	movf	??___fladd+6,w
  3209  0F14  1803               	skipnc
  3210  0F15  0F64               	incfsz	??___fladd+6,w
  3211  0F16  2F18               	goto	u2872
  3212  0F17  2F19               	goto	u2873
  3213  0F18                     u2872:
  3214  0F18  07E0               	addwf	??___fladd+2,f
  3215  0F19                     u2873:
  3216  0F19  0865               	movf	??___fladd+7,w
  3217  0F1A  1803               	skipnc
  3218  0F1B  0A65               	incf	??___fladd+7,w
  3219  0F1C  07E1               	addwf	??___fladd+3,f
  3220  0F1D  0861               	movf	??___fladd+3,w
  3221  0F1E  00D9               	movwf	___fladd@b+3
  3222  0F1F  0860               	movf	??___fladd+2,w
  3223  0F20  00D8               	movwf	___fladd@b+2
  3224  0F21  085F               	movf	??___fladd+1,w
  3225  0F22  00D7               	movwf	___fladd@b+1
  3226  0F23  085E               	movf	??___fladd,w
  3227  0F24  00D6               	movwf	___fladd@b
  3228  0F25                     l2215:
  3229  0F25  3080               	movlw	128
  3230  0F26  00DE               	movwf	??___fladd
  3231  0F27  085E               	movf	??___fladd,w
  3232  0F28  06E6               	xorwf	___fladd@signs,f
  3233  0F29  09E9               	comf	___fladd@grs,f
  3234  0F2A  0AE9               	incf	___fladd@grs,f
  3235  0F2B                     l2217:
  3236  0F2B  0869               	movf	___fladd@grs,w
  3237  0F2C  1D03               	btfss	3,2
  3238  0F2D  2F2F               	goto	u2881
  3239  0F2E  2F30               	goto	u2880
  3240  0F2F                     u2881:
  3241  0F2F  2F4D               	goto	l651
  3242  0F30                     u2880:
  3243  0F30                     l2219:
  3244  0F30  3001               	movlw	1
  3245  0F31  07D6               	addwf	___fladd@b,f
  3246  0F32  3000               	movlw	0
  3247  0F33  1803               	skipnc
  3248  0F34  3001               	movlw	1
  3249  0F35  07D7               	addwf	___fladd@b+1,f
  3250  0F36  3000               	movlw	0
  3251  0F37  1803               	skipnc
  3252  0F38  3001               	movlw	1
  3253  0F39  07D8               	addwf	___fladd@b+2,f
  3254  0F3A  3000               	movlw	0
  3255  0F3B  1803               	skipnc
  3256  0F3C  3001               	movlw	1
  3257  0F3D  07D9               	addwf	___fladd@b+3,f
  3258  0F3E  2F4D               	goto	l651
  3259  0F3F                     l2221:
  3260  0F3F  085A               	movf	___fladd@a,w
  3261  0F40  02D6               	subwf	___fladd@b,f
  3262  0F41  085B               	movf	___fladd@a+1,w
  3263  0F42  1C03               	skipc
  3264  0F43  0F5B               	incfsz	___fladd@a+1,w
  3265  0F44  02D7               	subwf	___fladd@b+1,f
  3266  0F45  085C               	movf	___fladd@a+2,w
  3267  0F46  1C03               	skipc
  3268  0F47  0F5C               	incfsz	___fladd@a+2,w
  3269  0F48  02D8               	subwf	___fladd@b+2,f
  3270  0F49  085D               	movf	___fladd@a+3,w
  3271  0F4A  1C03               	skipc
  3272  0F4B  0F5D               	incfsz	___fladd@a+3,w
  3273  0F4C  02D9               	subwf	___fladd@b+3,f
  3274  0F4D                     l651:
  3275  0F4D  0859               	movf	___fladd@b+3,w
  3276  0F4E  0458               	iorwf	___fladd@b+2,w
  3277  0F4F  0457               	iorwf	___fladd@b+1,w
  3278  0F50  0456               	iorwf	___fladd@b,w
  3279  0F51  1D03               	skipz
  3280  0F52  2F54               	goto	u2891
  3281  0F53  2F55               	goto	u2890
  3282  0F54                     u2891:
  3283  0F54  2F81               	goto	l2243
  3284  0F55                     u2890:
  3285  0F55                     l2223:
  3286  0F55  0869               	movf	___fladd@grs,w
  3287  0F56  1D03               	btfss	3,2
  3288  0F57  2F59               	goto	u2901
  3289  0F58  2F5A               	goto	u2900
  3290  0F59                     u2901:
  3291  0F59  2F81               	goto	l2243
  3292  0F5A                     u2900:
  3293  0F5A                     l2225:
  3294  0F5A  3000               	movlw	0
  3295  0F5B  00D9               	movwf	?___fladd+3
  3296  0F5C  3000               	movlw	0
  3297  0F5D  00D8               	movwf	?___fladd+2
  3298  0F5E  3000               	movlw	0
  3299  0F5F  00D7               	movwf	?___fladd+1
  3300  0F60  3000               	movlw	0
  3301  0F61  00D6               	movwf	?___fladd
  3302  0F62  2FFF               	goto	l643
  3303  0F63                     l2229:
  3304  0F63  3001               	movlw	1
  3305  0F64  00DE               	movwf	??___fladd
  3306  0F65                     u2915:
  3307  0F65  1003               	clrc
  3308  0F66  0DD6               	rlf	___fladd@b,f
  3309  0F67  0DD7               	rlf	___fladd@b+1,f
  3310  0F68  0DD8               	rlf	___fladd@b+2,f
  3311  0F69  0DD9               	rlf	___fladd@b+3,f
  3312  0F6A  0BDE               	decfsz	??___fladd,f
  3313  0F6B  2F65               	goto	u2915
  3314  0F6C                     l2231:
  3315  0F6C  1FE9               	btfss	___fladd@grs,7
  3316  0F6D  2F6F               	goto	u2921
  3317  0F6E  2F70               	goto	u2920
  3318  0F6F                     u2921:
  3319  0F6F  2F71               	goto	l655
  3320  0F70                     u2920:
  3321  0F70                     l2233:
  3322  0F70  1456               	bsf	___fladd@b,0
  3323  0F71                     l655:
  3324  0F71  1C69               	btfss	___fladd@grs,0
  3325  0F72  2F74               	goto	u2931
  3326  0F73  2F75               	goto	u2930
  3327  0F74                     u2931:
  3328  0F74  2F78               	goto	l2237
  3329  0F75                     u2930:
  3330  0F75                     l2235:
  3331  0F75  1403               	setc
  3332  0F76  0DE9               	rlf	___fladd@grs,f
  3333  0F77  2F7A               	goto	l2239
  3334  0F78                     l2237:
  3335  0F78  1003               	clrc
  3336  0F79  0DE9               	rlf	___fladd@grs,f
  3337  0F7A                     l2239:
  3338  0F7A  0868               	movf	___fladd@bexp,w
  3339  0F7B  1903               	btfsc	3,2
  3340  0F7C  2F7E               	goto	u2941
  3341  0F7D  2F7F               	goto	u2940
  3342  0F7E                     u2941:
  3343  0F7E  2F81               	goto	l2243
  3344  0F7F                     u2940:
  3345  0F7F                     l2241:
  3346  0F7F  3001               	movlw	1
  3347  0F80  02E8               	subwf	___fladd@bexp,f
  3348  0F81                     l2243:
  3349  0F81  1FD8               	btfss	___fladd@b+2,7
  3350  0F82  2F84               	goto	u2951
  3351  0F83  2F85               	goto	u2950
  3352  0F84                     u2951:
  3353  0F84  2F63               	goto	l2229
  3354  0F85                     u2950:
  3355  0F85                     l2245:
  3356  0F85  01E7               	clrf	___fladd@aexp
  3357  0F86                     l2247:
  3358  0F86  1FE9               	btfss	___fladd@grs,7
  3359  0F87  2F89               	goto	u2961
  3360  0F88  2F8A               	goto	u2960
  3361  0F89                     u2961:
  3362  0F89  2F98               	goto	l2255
  3363  0F8A                     u2960:
  3364  0F8A                     l2249:
  3365  0F8A  0869               	movf	___fladd@grs,w
  3366  0F8B  397F               	andlw	127
  3367  0F8C  1903               	btfsc	3,2
  3368  0F8D  2F8F               	goto	u2971
  3369  0F8E  2F90               	goto	u2970
  3370  0F8F                     u2971:
  3371  0F8F  2F93               	goto	l661
  3372  0F90                     u2970:
  3373  0F90                     l2251:
  3374  0F90  01E7               	clrf	___fladd@aexp
  3375  0F91  0AE7               	incf	___fladd@aexp,f
  3376  0F92  2F98               	goto	l2255
  3377  0F93                     l661:
  3378  0F93  1C56               	btfss	___fladd@b,0
  3379  0F94  2F96               	goto	u2981
  3380  0F95  2F97               	goto	u2980
  3381  0F96                     u2981:
  3382  0F96  2F98               	goto	l2255
  3383  0F97                     u2980:
  3384  0F97  2F90               	goto	l2251
  3385  0F98                     l2255:
  3386  0F98  0867               	movf	___fladd@aexp,w
  3387  0F99  1903               	btfsc	3,2
  3388  0F9A  2F9C               	goto	u2991
  3389  0F9B  2F9D               	goto	u2990
  3390  0F9C                     u2991:
  3391  0F9C  2FD1               	goto	l664
  3392  0F9D                     u2990:
  3393  0F9D                     l2257:
  3394  0F9D  3001               	movlw	1
  3395  0F9E  07D6               	addwf	___fladd@b,f
  3396  0F9F  3000               	movlw	0
  3397  0FA0  1803               	skipnc
  3398  0FA1  3001               	movlw	1
  3399  0FA2  07D7               	addwf	___fladd@b+1,f
  3400  0FA3  3000               	movlw	0
  3401  0FA4  1803               	skipnc
  3402  0FA5  3001               	movlw	1
  3403  0FA6  07D8               	addwf	___fladd@b+2,f
  3404  0FA7  3000               	movlw	0
  3405  0FA8  1803               	skipnc
  3406  0FA9  3001               	movlw	1
  3407  0FAA  07D9               	addwf	___fladd@b+3,f
  3408  0FAB                     l2259:
  3409  0FAB  1C59               	btfss	___fladd@b+3,0
  3410  0FAC  2FAE               	goto	u3001
  3411  0FAD  2FAF               	goto	u3000
  3412  0FAE                     u3001:
  3413  0FAE  2FD1               	goto	l664
  3414  0FAF                     u3000:
  3415  0FAF                     l2261:
  3416  0FAF  0856               	movf	___fladd@b,w
  3417  0FB0  00DE               	movwf	??___fladd
  3418  0FB1  0857               	movf	___fladd@b+1,w
  3419  0FB2  00DF               	movwf	??___fladd+1
  3420  0FB3  0858               	movf	___fladd@b+2,w
  3421  0FB4  00E0               	movwf	??___fladd+2
  3422  0FB5  0859               	movf	___fladd@b+3,w
  3423  0FB6  00E1               	movwf	??___fladd+3
  3424  0FB7  3001               	movlw	1
  3425  0FB8  00E2               	movwf	??___fladd+4
  3426  0FB9                     u3015:
  3427  0FB9  0D61               	rlf	??___fladd+3,w
  3428  0FBA  0CE1               	rrf	??___fladd+3,f
  3429  0FBB  0CE0               	rrf	??___fladd+2,f
  3430  0FBC  0CDF               	rrf	??___fladd+1,f
  3431  0FBD  0CDE               	rrf	??___fladd,f
  3432  0FBE                     u3010:
  3433  0FBE  0BE2               	decfsz	??___fladd+4,f
  3434  0FBF  2FB9               	goto	u3015
  3435  0FC0  0861               	movf	??___fladd+3,w
  3436  0FC1  00D9               	movwf	___fladd@b+3
  3437  0FC2  0860               	movf	??___fladd+2,w
  3438  0FC3  00D8               	movwf	___fladd@b+2
  3439  0FC4  085F               	movf	??___fladd+1,w
  3440  0FC5  00D7               	movwf	___fladd@b+1
  3441  0FC6  085E               	movf	??___fladd,w
  3442  0FC7  00D6               	movwf	___fladd@b
  3443  0FC8  0A68               	incf	___fladd@bexp,w
  3444  0FC9  1903               	btfsc	3,2
  3445  0FCA  2FCC               	goto	u3021
  3446  0FCB  2FCD               	goto	u3020
  3447  0FCC                     u3021:
  3448  0FCC  2FD1               	goto	l664
  3449  0FCD                     u3020:
  3450  0FCD                     l2263:
  3451  0FCD  3001               	movlw	1
  3452  0FCE  00DE               	movwf	??___fladd
  3453  0FCF  085E               	movf	??___fladd,w
  3454  0FD0  07E8               	addwf	___fladd@bexp,f
  3455  0FD1                     l664:
  3456  0FD1  0A68               	incf	___fladd@bexp,w
  3457  0FD2  1903               	btfsc	3,2
  3458  0FD3  2FD5               	goto	u3031
  3459  0FD4  2FD6               	goto	u3030
  3460  0FD5                     u3031:
  3461  0FD5  2FDB               	goto	l2267
  3462  0FD6                     u3030:
  3463  0FD6                     l2265:
  3464  0FD6  0868               	movf	___fladd@bexp,w
  3465  0FD7  1D03               	btfss	3,2
  3466  0FD8  2FDA               	goto	u3041
  3467  0FD9  2FDB               	goto	u3040
  3468  0FDA                     u3041:
  3469  0FDA  2FE9               	goto	l2273
  3470  0FDB                     u3040:
  3471  0FDB                     l2267:
  3472  0FDB  3000               	movlw	0
  3473  0FDC  00D9               	movwf	___fladd@b+3
  3474  0FDD  3000               	movlw	0
  3475  0FDE  00D8               	movwf	___fladd@b+2
  3476  0FDF  3000               	movlw	0
  3477  0FE0  00D7               	movwf	___fladd@b+1
  3478  0FE1  3000               	movlw	0
  3479  0FE2  00D6               	movwf	___fladd@b
  3480  0FE3                     l2269:
  3481  0FE3  0868               	movf	___fladd@bexp,w
  3482  0FE4  1D03               	btfss	3,2
  3483  0FE5  2FE7               	goto	u3051
  3484  0FE6  2FE8               	goto	u3050
  3485  0FE7                     u3051:
  3486  0FE7  2FE9               	goto	l2273
  3487  0FE8                     u3050:
  3488  0FE8                     l2271:
  3489  0FE8  01E6               	clrf	___fladd@signs
  3490  0FE9                     l2273:
  3491  0FE9  1C68               	btfss	___fladd@bexp,0
  3492  0FEA  2FEC               	goto	u3061
  3493  0FEB  2FED               	goto	u3060
  3494  0FEC                     u3061:
  3495  0FEC  2FEF               	goto	l2277
  3496  0FED                     u3060:
  3497  0FED                     l2275:
  3498  0FED  17D8               	bsf	___fladd@b+2,7
  3499  0FEE  2FF3               	goto	l672
  3500  0FEF                     l2277:
  3501  0FEF  307F               	movlw	127
  3502  0FF0  00DE               	movwf	??___fladd
  3503  0FF1  085E               	movf	??___fladd,w
  3504  0FF2  05D8               	andwf	___fladd@b+2,f
  3505  0FF3                     l672:
  3506  0FF3  0868               	movf	___fladd@bexp,w
  3507  0FF4  00DE               	movwf	??___fladd
  3508  0FF5  1003               	clrc
  3509  0FF6  0C5E               	rrf	??___fladd,w
  3510  0FF7  00DF               	movwf	??___fladd+1
  3511  0FF8  085F               	movf	??___fladd+1,w
  3512  0FF9  00D9               	movwf	___fladd@b+3
  3513  0FFA                     l2279:
  3514  0FFA  1FE6               	btfss	___fladd@signs,7
  3515  0FFB  2FFD               	goto	u3071
  3516  0FFC  2FFE               	goto	u3070
  3517  0FFD                     u3071:
  3518  0FFD  2FFF               	goto	l673
  3519  0FFE                     u3070:
  3520  0FFE                     l2281:
  3521  0FFE  17D9               	bsf	___fladd@b+3,7
  3522  0FFF                     l673:
  3523  0FFF                     l643:
  3524  0FFF  0008               	return
  3525  1000                     __end_of___fladd:
  3526                           
  3527                           	psect	text5
  3528  0949                     __ptext5:	
  3529 ;; *************** function _PWM1_Duty *****************
  3530 ;; Defined at:
  3531 ;;		line 17 in file "PWM.c"
  3532 ;; Parameters:    Size  Location     Type
  3533 ;;  duty            2   29[BANK1 ] unsigned int 
  3534 ;;  freq            2   31[BANK1 ] unsigned int 
  3535 ;; Auto vars:     Size  Location     Type
  3536 ;;		None
  3537 ;; Return value:  Size  Location     Type
  3538 ;;                  1    wreg      void 
  3539 ;; Registers used:
  3540 ;;		wreg, status,2, status,0, btemp+1, pclath, cstack
  3541 ;; Tracked objects:
  3542 ;;		On entry : 0/0
  3543 ;;		On exit  : 0/0
  3544 ;;		Unchanged: 0/0
  3545 ;; Data sizes:     COMMON   BANK0   BANK1   BANK3   BANK2
  3546 ;;      Params:         0       0       4       0       0
  3547 ;;      Locals:         0       0       0       0       0
  3548 ;;      Temps:          0       0       2       0       0
  3549 ;;      Totals:         0       0       6       0       0
  3550 ;;Total ram usage:        6 bytes
  3551 ;; Hardware stack levels used: 1
  3552 ;; Hardware stack levels required when called: 2
  3553 ;; This function calls:
  3554 ;;		_PWM_Init
  3555 ;;		___aldiv
  3556 ;;		___fldiv
  3557 ;;		___flmul
  3558 ;;		___fltol
  3559 ;;		___xxtofl
  3560 ;; This function is called by:
  3561 ;;		_realizarCalculo
  3562 ;; This function uses a non-reentrant model
  3563 ;;
  3564                           
  3565                           
  3566                           ;psect for function _PWM1_Duty
  3567  0949                     _PWM1_Duty:
  3568  0949                     l2717:	
  3569                           ;incstack = 0
  3570                           ; Regs used in _PWM1_Duty: [wreg+status,2+status,0+btemp+1+pclath+cstack]
  3571                           
  3572                           
  3573                           ;PWM.c: 17: void PWM1_Duty(unsigned int duty, unsigned int freq);PWM.c: 18: {;PWM.c: 19:
      +                             PWM_Init(freq);
  3574  0949  1683               	bsf	3,5	;RP0=1, select bank1
  3575  094A  1303               	bcf	3,6	;RP1=0, select bank1
  3576  094B  083F               	movf	PWM1_Duty@freq^(0+128),w
  3577  094C  1283               	bcf	3,5	;RP0=0, select bank0
  3578  094D  1303               	bcf	3,6	;RP1=0, select bank0
  3579  094E  00A6               	movwf	PWM_Init@freq
  3580  094F  1683               	bsf	3,5	;RP0=1, select bank1
  3581  0950  1303               	bcf	3,6	;RP1=0, select bank1
  3582  0951  0840               	movf	(PWM1_Duty@freq+1)^(0+128),w
  3583  0952  1283               	bcf	3,5	;RP0=0, select bank0
  3584  0953  1303               	bcf	3,6	;RP1=0, select bank0
  3585  0954  00A7               	movwf	PWM_Init@freq+1
  3586  0955  01A8               	clrf	PWM_Init@freq+2
  3587  0956  01A9               	clrf	PWM_Init@freq+3
  3588  0957  160A  118A  22F5  120A  158A  	fcall	_PWM_Init
  3589  095C                     l2719:
  3590                           
  3591                           ;PWM.c: 20:   if(duty<1024)
  3592  095C  3004               	movlw	4
  3593  095D  1683               	bsf	3,5	;RP0=1, select bank1
  3594  095E  1303               	bcf	3,6	;RP1=0, select bank1
  3595  095F  023E               	subwf	(PWM1_Duty@duty+1)^(0+128),w
  3596  0960  3000               	movlw	0
  3597  0961  1903               	skipnz
  3598  0962  023D               	subwf	PWM1_Duty@duty^(0+128),w
  3599  0963  1803               	skipnc
  3600  0964  2966               	goto	u4011
  3601  0965  2967               	goto	u4010
  3602  0966                     u4011:
  3603  0966  2A2C               	goto	l163
  3604  0967                     u4010:
  3605  0967                     l2721:
  3606                           
  3607                           ;PWM.c: 21:   {;PWM.c: 22:     duty = ((float)duty/1023.0)*(4000000/(freq*4));
  3608  0967  083D               	movf	PWM1_Duty@duty^(0+128),w
  3609  0968  1283               	bcf	3,5	;RP0=0, select bank0
  3610  0969  1303               	bcf	3,6	;RP1=0, select bank0
  3611  096A  00AE               	movwf	___xxtofl@val
  3612  096B  1683               	bsf	3,5	;RP0=1, select bank1
  3613  096C  1303               	bcf	3,6	;RP1=0, select bank1
  3614  096D  083E               	movf	(PWM1_Duty@duty+1)^(0+128),w
  3615  096E  1283               	bcf	3,5	;RP0=0, select bank0
  3616  096F  1303               	bcf	3,6	;RP1=0, select bank0
  3617  0970  00AF               	movwf	___xxtofl@val+1
  3618  0971  01B0               	clrf	___xxtofl@val+2
  3619  0972  01B1               	clrf	___xxtofl@val+3
  3620  0973  3000               	movlw	0
  3621  0974  160A  118A  25B0  120A  158A  	fcall	___xxtofl
  3622  0979  1283               	bcf	3,5	;RP0=0, select bank0
  3623  097A  1303               	bcf	3,6	;RP1=0, select bank0
  3624  097B  0831               	movf	?___xxtofl+3,w
  3625  097C  1683               	bsf	3,5	;RP0=1, select bank1
  3626  097D  1303               	bcf	3,6	;RP1=0, select bank1
  3627  097E  00AF               	movwf	(___fldiv@b+3)^(0+128)
  3628  097F  1283               	bcf	3,5	;RP0=0, select bank0
  3629  0980  1303               	bcf	3,6	;RP1=0, select bank0
  3630  0981  0830               	movf	?___xxtofl+2,w
  3631  0982  1683               	bsf	3,5	;RP0=1, select bank1
  3632  0983  1303               	bcf	3,6	;RP1=0, select bank1
  3633  0984  00AE               	movwf	(___fldiv@b+2)^(0+128)
  3634  0985  1283               	bcf	3,5	;RP0=0, select bank0
  3635  0986  1303               	bcf	3,6	;RP1=0, select bank0
  3636  0987  082F               	movf	?___xxtofl+1,w
  3637  0988  1683               	bsf	3,5	;RP0=1, select bank1
  3638  0989  1303               	bcf	3,6	;RP1=0, select bank1
  3639  098A  00AD               	movwf	(___fldiv@b+1)^(0+128)
  3640  098B  1283               	bcf	3,5	;RP0=0, select bank0
  3641  098C  1303               	bcf	3,6	;RP1=0, select bank0
  3642  098D  082E               	movf	?___xxtofl,w
  3643  098E  1683               	bsf	3,5	;RP0=1, select bank1
  3644  098F  1303               	bcf	3,6	;RP1=0, select bank1
  3645  0990  00AC               	movwf	___fldiv@b^(0+128)
  3646  0991  3044               	movlw	68
  3647  0992  00AB               	movwf	(___fldiv@a+3)^(0+128)
  3648  0993  307F               	movlw	127
  3649  0994  00AA               	movwf	(___fldiv@a+2)^(0+128)
  3650  0995  30C0               	movlw	192
  3651  0996  00A9               	movwf	(___fldiv@a+1)^(0+128)
  3652  0997  3000               	movlw	0
  3653  0998  00A8               	movwf	___fldiv@a^(0+128)
  3654  0999  120A  158A  2315  120A  158A  	fcall	___fldiv
  3655  099E  1683               	bsf	3,5	;RP0=1, select bank1
  3656  099F  1303               	bcf	3,6	;RP1=0, select bank1
  3657  09A0  082B               	movf	(?___fldiv+3)^(0+128),w
  3658  09A1  1283               	bcf	3,5	;RP0=0, select bank0
  3659  09A2  1303               	bcf	3,6	;RP1=0, select bank0
  3660  09A3  00C3               	movwf	___flmul@a+3
  3661  09A4  1683               	bsf	3,5	;RP0=1, select bank1
  3662  09A5  1303               	bcf	3,6	;RP1=0, select bank1
  3663  09A6  082A               	movf	(?___fldiv+2)^(0+128),w
  3664  09A7  1283               	bcf	3,5	;RP0=0, select bank0
  3665  09A8  1303               	bcf	3,6	;RP1=0, select bank0
  3666  09A9  00C2               	movwf	___flmul@a+2
  3667  09AA  1683               	bsf	3,5	;RP0=1, select bank1
  3668  09AB  1303               	bcf	3,6	;RP1=0, select bank1
  3669  09AC  0829               	movf	(?___fldiv+1)^(0+128),w
  3670  09AD  1283               	bcf	3,5	;RP0=0, select bank0
  3671  09AE  1303               	bcf	3,6	;RP1=0, select bank0
  3672  09AF  00C1               	movwf	___flmul@a+1
  3673  09B0  1683               	bsf	3,5	;RP0=1, select bank1
  3674  09B1  1303               	bcf	3,6	;RP1=0, select bank1
  3675  09B2  0828               	movf	?___fldiv^(0+128),w
  3676  09B3  1283               	bcf	3,5	;RP0=0, select bank0
  3677  09B4  1303               	bcf	3,6	;RP1=0, select bank0
  3678  09B5  00C0               	movwf	___flmul@a
  3679  09B6  3000               	movlw	0
  3680  09B7  00F7               	movwf	___aldiv@dividend+3
  3681  09B8  303D               	movlw	61
  3682  09B9  00F6               	movwf	___aldiv@dividend+2
  3683  09BA  3009               	movlw	9
  3684  09BB  00F5               	movwf	___aldiv@dividend+1
  3685  09BC  3000               	movlw	0
  3686  09BD  00F4               	movwf	___aldiv@dividend
  3687  09BE  1683               	bsf	3,5	;RP0=1, select bank1
  3688  09BF  1303               	bcf	3,6	;RP1=0, select bank1
  3689  09C0  0840               	movf	(PWM1_Duty@freq+1)^(0+128),w
  3690  09C1  00C2               	movwf	(??_PWM1_Duty^(0+128)+1)
  3691  09C2  083F               	movf	PWM1_Duty@freq^(0+128),w
  3692  09C3  00C1               	movwf	??_PWM1_Duty^(0+128)
  3693  09C4  1003               	clrc
  3694  09C5  0DC1               	rlf	??_PWM1_Duty^(0+128),f
  3695  09C6  0DC2               	rlf	(??_PWM1_Duty^(0+128)+1),f
  3696  09C7  1003               	clrc
  3697  09C8  0DC1               	rlf	??_PWM1_Duty^(0+128),f
  3698  09C9  0DC2               	rlf	(??_PWM1_Duty^(0+128)+1),f
  3699  09CA  0841               	movf	??_PWM1_Duty^(0+128),w
  3700  09CB  00F0               	movwf	___aldiv@divisor
  3701  09CC  0842               	movf	(??_PWM1_Duty+1)^(0+128),w
  3702  09CD  00F1               	movwf	___aldiv@divisor+1
  3703  09CE  01F2               	clrf	___aldiv@divisor+2
  3704  09CF  01F3               	clrf	___aldiv@divisor+3
  3705  09D0  160A  118A  2476  120A  158A  	fcall	___aldiv
  3706  09D5  0873               	movf	?___aldiv+3,w
  3707  09D6  1283               	bcf	3,5	;RP0=0, select bank0
  3708  09D7  1303               	bcf	3,6	;RP1=0, select bank0
  3709  09D8  00B1               	movwf	___xxtofl@val+3
  3710  09D9  0872               	movf	?___aldiv+2,w
  3711  09DA  00B0               	movwf	___xxtofl@val+2
  3712  09DB  0871               	movf	?___aldiv+1,w
  3713  09DC  00AF               	movwf	___xxtofl@val+1
  3714  09DD  0870               	movf	?___aldiv,w
  3715  09DE  00AE               	movwf	___xxtofl@val
  3716  09DF  3001               	movlw	1
  3717  09E0  160A  118A  25B0  120A  158A  	fcall	___xxtofl
  3718  09E5  1283               	bcf	3,5	;RP0=0, select bank0
  3719  09E6  1303               	bcf	3,6	;RP1=0, select bank0
  3720  09E7  0831               	movf	?___xxtofl+3,w
  3721  09E8  00BF               	movwf	___flmul@b+3
  3722  09E9  0830               	movf	?___xxtofl+2,w
  3723  09EA  00BE               	movwf	___flmul@b+2
  3724  09EB  082F               	movf	?___xxtofl+1,w
  3725  09EC  00BD               	movwf	___flmul@b+1
  3726  09ED  082E               	movf	?___xxtofl,w
  3727  09EE  00BC               	movwf	___flmul@b
  3728  09EF  120A  118A  207B  120A  158A  	fcall	___flmul
  3729  09F4  1283               	bcf	3,5	;RP0=0, select bank0
  3730  09F5  1303               	bcf	3,6	;RP1=0, select bank0
  3731  09F6  083F               	movf	?___flmul+3,w
  3732  09F7  00A9               	movwf	___fltol@f1+3
  3733  09F8  083E               	movf	?___flmul+2,w
  3734  09F9  00A8               	movwf	___fltol@f1+2
  3735  09FA  083D               	movf	?___flmul+1,w
  3736  09FB  00A7               	movwf	___fltol@f1+1
  3737  09FC  083C               	movf	?___flmul,w
  3738  09FD  00A6               	movwf	___fltol@f1
  3739  09FE  160A  118A  23FA  120A  158A  	fcall	___fltol
  3740  0A03  1283               	bcf	3,5	;RP0=0, select bank0
  3741  0A04  1303               	bcf	3,6	;RP1=0, select bank0
  3742  0A05  0827               	movf	?___fltol+1,w
  3743  0A06  1683               	bsf	3,5	;RP0=1, select bank1
  3744  0A07  1303               	bcf	3,6	;RP1=0, select bank1
  3745  0A08  00BE               	movwf	(PWM1_Duty@duty+1)^(0+128)
  3746  0A09  1283               	bcf	3,5	;RP0=0, select bank0
  3747  0A0A  1303               	bcf	3,6	;RP1=0, select bank0
  3748  0A0B  0826               	movf	?___fltol,w
  3749  0A0C  1683               	bsf	3,5	;RP0=1, select bank1
  3750  0A0D  1303               	bcf	3,6	;RP1=0, select bank1
  3751  0A0E  00BD               	movwf	PWM1_Duty@duty^(0+128)
  3752  0A0F                     l2723:
  3753                           
  3754                           ;PWM.c: 23:     CCP1X = duty & 0b00000010;
  3755  0A0F  1283               	bcf	3,5	;RP0=0, select bank0
  3756  0A10  1303               	bcf	3,6	;RP1=0, select bank0
  3757  0A11  1297               	bcf	23,5	;volatile
  3758  0A12                     l2725:
  3759                           
  3760                           ;PWM.c: 24:     CCP1Y = duty & 0b00000001;
  3761  0A12  1683               	bsf	3,5	;RP0=1, select bank1
  3762  0A13  1303               	bcf	3,6	;RP1=0, select bank1
  3763  0A14  183D               	btfsc	PWM1_Duty@duty^(0+128),0
  3764  0A15  2A17               	goto	u4021
  3765  0A16  2A1B               	goto	u4020
  3766  0A17                     u4021:
  3767  0A17  1283               	bcf	3,5	;RP0=0, select bank0
  3768  0A18  1303               	bcf	3,6	;RP1=0, select bank0
  3769  0A19  1617               	bsf	23,4	;volatile
  3770  0A1A  2A1E               	goto	u4034
  3771  0A1B                     u4020:
  3772  0A1B  1283               	bcf	3,5	;RP0=0, select bank0
  3773  0A1C  1303               	bcf	3,6	;RP1=0, select bank0
  3774  0A1D  1217               	bcf	23,4	;volatile
  3775  0A1E                     u4034:
  3776  0A1E                     l2727:
  3777                           
  3778                           ;PWM.c: 25:     CCPR1L = (unsigned char)duty>>2;
  3779  0A1E  1683               	bsf	3,5	;RP0=1, select bank1
  3780  0A1F  1303               	bcf	3,6	;RP1=0, select bank1
  3781  0A20  083D               	movf	PWM1_Duty@duty^(0+128),w
  3782  0A21  00C1               	movwf	??_PWM1_Duty^(0+128)
  3783  0A22  3002               	movlw	2
  3784  0A23                     u4045:
  3785  0A23  1003               	clrc
  3786  0A24  0CC1               	rrf	??_PWM1_Duty^(0+128),f
  3787  0A25  3EFF               	addlw	-1
  3788  0A26  1D03               	skipz
  3789  0A27  2A23               	goto	u4045
  3790  0A28  0841               	movf	??_PWM1_Duty^(0+128),w
  3791  0A29  1283               	bcf	3,5	;RP0=0, select bank0
  3792  0A2A  1303               	bcf	3,6	;RP1=0, select bank0
  3793  0A2B  0095               	movwf	21	;volatile
  3794  0A2C                     l163:
  3795  0A2C  0008               	return
  3796  0A2D                     __end_of_PWM1_Duty:
  3797                           
  3798                           	psect	text6
  3799  12BF                     __ptext6:	
  3800 ;; *************** function _lcd_init *****************
  3801 ;; Defined at:
  3802 ;;		line 57 in file "lcd.c"
  3803 ;; Parameters:    Size  Location     Type
  3804 ;;		None
  3805 ;; Auto vars:     Size  Location     Type
  3806 ;;		None
  3807 ;; Return value:  Size  Location     Type
  3808 ;;                  1    wreg      void 
  3809 ;; Registers used:
  3810 ;;		wreg, status,2, status,0, pclath, cstack
  3811 ;; Tracked objects:
  3812 ;;		On entry : 0/0
  3813 ;;		On exit  : 0/0
  3814 ;;		Unchanged: 0/0
  3815 ;; Data sizes:     COMMON   BANK0   BANK1   BANK3   BANK2
  3816 ;;      Params:         0       0       0       0       0
  3817 ;;      Locals:         0       0       0       0       0
  3818 ;;      Temps:          0       0       0       0       0
  3819 ;;      Totals:         0       0       0       0       0
  3820 ;;Total ram usage:        0 bytes
  3821 ;; Hardware stack levels used: 1
  3822 ;; Hardware stack levels required when called: 2
  3823 ;; This function calls:
  3824 ;;		_lcd_cmd
  3825 ;; This function is called by:
  3826 ;;		_main
  3827 ;; This function uses a non-reentrant model
  3828 ;;
  3829                           
  3830                           
  3831                           ;psect for function _lcd_init
  3832  12BF                     _lcd_init:
  3833  12BF                     l2957:	
  3834                           ;incstack = 0
  3835                           ; Regs used in _lcd_init: [wreg+status,2+status,0+pclath+cstack]
  3836                           
  3837                           
  3838                           ;lcd.c: 59:  PORTEbits.RE1=0;
  3839  12BF  1283               	bcf	3,5	;RP0=0, select bank0
  3840  12C0  1303               	bcf	3,6	;RP1=0, select bank0
  3841  12C1  1089               	bcf	9,1	;volatile
  3842                           
  3843                           ;lcd.c: 60:  PORTEbits.RE0=0;
  3844  12C2  1009               	bcf	9,0	;volatile
  3845                           
  3846                           ;lcd.c: 62:  PORTEbits.RE1=1;
  3847  12C3  1489               	bsf	9,1	;volatile
  3848  12C4                     l2959:
  3849                           
  3850                           ;lcd.c: 64:  lcd_cmd(0x38);
  3851  12C4  3038               	movlw	56
  3852  12C5  160A  118A  2190  160A  118A  	fcall	_lcd_cmd
  3853                           
  3854                           ;lcd.c: 66:  lcd_cmd(0x38);
  3855  12CA  3038               	movlw	56
  3856  12CB  160A  118A  2190  160A  118A  	fcall	_lcd_cmd
  3857                           
  3858                           ;lcd.c: 68:  lcd_cmd(0x38);
  3859  12D0  3038               	movlw	56
  3860  12D1  160A  118A  2190  160A  118A  	fcall	_lcd_cmd
  3861                           
  3862                           ;lcd.c: 69:  lcd_cmd(0x08);
  3863  12D6  3008               	movlw	8
  3864  12D7  160A  118A  2190  160A  118A  	fcall	_lcd_cmd
  3865                           
  3866                           ;lcd.c: 70:  lcd_cmd(0x0F);
  3867  12DC  300F               	movlw	15
  3868  12DD  160A  118A  2190  160A  118A  	fcall	_lcd_cmd
  3869                           
  3870                           ;lcd.c: 71:  lcd_cmd(0x01);
  3871  12E2  3001               	movlw	1
  3872  12E3  160A  118A  2190  160A  118A  	fcall	_lcd_cmd
  3873                           
  3874                           ;lcd.c: 72:  lcd_cmd(0x38);
  3875  12E8  3038               	movlw	56
  3876  12E9  160A  118A  2190  160A  118A  	fcall	_lcd_cmd
  3877                           
  3878                           ;lcd.c: 73:     lcd_cmd(0x80);
  3879  12EE  3080               	movlw	128
  3880  12EF  160A  118A  2190  160A  118A  	fcall	_lcd_cmd
  3881  12F4                     l217:
  3882  12F4  0008               	return
  3883  12F5                     __end_of_lcd_init:
  3884                           
  3885                           	psect	text7
  3886  1728                     __ptext7:	
  3887 ;; *************** function _imprimirValoresLcd *****************
  3888 ;; Defined at:
  3889 ;;		line 105 in file "main.c"
  3890 ;; Parameters:    Size  Location     Type
  3891 ;;		None
  3892 ;; Auto vars:     Size  Location     Type
  3893 ;;  centena         2   16[BANK0 ] int 
  3894 ;;  milhar          2   14[BANK0 ] int 
  3895 ;; Return value:  Size  Location     Type
  3896 ;;                  1    wreg      void 
  3897 ;; Registers used:
  3898 ;;		wreg, fsr0l, fsr0h, status,2, status,0, btemp+1, pclath, cstack
  3899 ;; Tracked objects:
  3900 ;;		On entry : 0/0
  3901 ;;		On exit  : 0/0
  3902 ;;		Unchanged: 0/0
  3903 ;; Data sizes:     COMMON   BANK0   BANK1   BANK3   BANK2
  3904 ;;      Params:         0       0       0       0       0
  3905 ;;      Locals:         0       4       0       0       0
  3906 ;;      Temps:          0       1       0       0       0
  3907 ;;      Totals:         0       5       0       0       0
  3908 ;;Total ram usage:        5 bytes
  3909 ;; Hardware stack levels used: 1
  3910 ;; Hardware stack levels required when called: 3
  3911 ;; This function calls:
  3912 ;;		___awdiv
  3913 ;;		___awmod
  3914 ;;		_lcd_cmd
  3915 ;;		_lcd_str
  3916 ;;		_sprintf
  3917 ;; This function is called by:
  3918 ;;		_main
  3919 ;; This function uses a non-reentrant model
  3920 ;;
  3921                           
  3922                           
  3923                           ;psect for function _imprimirValoresLcd
  3924  1728                     _imprimirValoresLcd:
  3925  1728                     l2889:	
  3926                           ;incstack = 0
  3927                           ; Regs used in _imprimirValoresLcd: [wreg-fsr0h+status,2+status,0+btemp+1+pclath+cstack]
  3928                           
  3929                           
  3930                           ;main.c: 106:     if (menu != 1){
  3931  1728  1683               	bsf	3,5	;RP0=1, select bank1
  3932  1729  1303               	bcf	3,6	;RP1=0, select bank1
  3933  172A  036E               	decf	_menu^(0+128),w
  3934  172B  046F               	iorwf	(_menu+1)^(0+128),w
  3935  172C  1903               	btfsc	3,2
  3936  172D  2F2F               	goto	u4441
  3937  172E  2F30               	goto	u4440
  3938  172F                     u4441:
  3939  172F  2FB4               	goto	l2907
  3940  1730                     u4440:
  3941  1730                     l2891:
  3942                           
  3943                           ;main.c: 107:         if (setPoint != setPointReferencia){
  3944  1730  0860               	movf	(_setPointReferencia+1)^(0+128),w
  3945  1731  066D               	xorwf	(_setPoint+1)^(0+128),w
  3946  1732  1D03               	skipz
  3947  1733  2F36               	goto	u4455
  3948  1734  085F               	movf	_setPointReferencia^(0+128),w
  3949  1735  066C               	xorwf	_setPoint^(0+128),w
  3950  1736                     u4455:
  3951  1736  1903               	skipnz
  3952  1737  2F39               	goto	u4451
  3953  1738  2F3A               	goto	u4450
  3954  1739                     u4451:
  3955  1739  2FAD               	goto	l2905
  3956  173A                     u4450:
  3957  173A                     l2893:
  3958                           
  3959                           ;main.c: 108:             int milhar = setPoint/1000;
  3960  173A  30E8               	movlw	232
  3961  173B  00F7               	movwf	___awdiv@divisor
  3962  173C  3003               	movlw	3
  3963  173D  00F8               	movwf	___awdiv@divisor+1
  3964  173E  086D               	movf	(_setPoint+1)^(0+128),w
  3965  173F  00FA               	movwf	___awdiv@dividend+1
  3966  1740  086C               	movf	_setPoint^(0+128),w
  3967  1741  00F9               	movwf	___awdiv@dividend
  3968  1742  120A  118A  2012  160A  118A  	fcall	___awdiv
  3969  1747  0878               	movf	?___awdiv+1,w
  3970  1748  1283               	bcf	3,5	;RP0=0, select bank0
  3971  1749  1303               	bcf	3,6	;RP1=0, select bank0
  3972  174A  00AF               	movwf	imprimirValoresLcd@milhar+1
  3973  174B  0877               	movf	?___awdiv,w
  3974  174C  00AE               	movwf	imprimirValoresLcd@milhar
  3975                           
  3976                           ;main.c: 109:             int centena = (setPoint%1000)/100;
  3977  174D  3064               	movlw	100
  3978  174E  00F7               	movwf	___awdiv@divisor
  3979  174F  3000               	movlw	0
  3980  1750  00F8               	movwf	___awdiv@divisor+1
  3981  1751  1683               	bsf	3,5	;RP0=1, select bank1
  3982  1752  1303               	bcf	3,6	;RP1=0, select bank1
  3983  1753  086D               	movf	(_setPoint+1)^(0+128),w
  3984  1754  00F3               	movwf	___awmod@dividend+1
  3985  1755  086C               	movf	_setPoint^(0+128),w
  3986  1756  00F2               	movwf	___awmod@dividend
  3987  1757  30E8               	movlw	232
  3988  1758  00F0               	movwf	___awmod@divisor
  3989  1759  3003               	movlw	3
  3990  175A  00F1               	movwf	___awmod@divisor+1
  3991  175B  120A  158A  200C  160A  118A  	fcall	___awmod
  3992  1760  0871               	movf	?___awmod+1,w
  3993  1761  00FA               	movwf	___awdiv@dividend+1
  3994  1762  0870               	movf	?___awmod,w
  3995  1763  00F9               	movwf	___awdiv@dividend
  3996  1764  120A  118A  2012  160A  118A  	fcall	___awdiv
  3997  1769  0878               	movf	?___awdiv+1,w
  3998  176A  1283               	bcf	3,5	;RP0=0, select bank0
  3999  176B  1303               	bcf	3,6	;RP1=0, select bank0
  4000  176C  00B1               	movwf	imprimirValoresLcd@centena+1
  4001  176D  0877               	movf	?___awdiv,w
  4002  176E  00B0               	movwf	imprimirValoresLcd@centena
  4003                           
  4004                           ;main.c: 111:             lcd_cmd(0x83);
  4005  176F  3083               	movlw	131
  4006  1770  160A  118A  2190  160A  118A  	fcall	_lcd_cmd
  4007  1775                     l2895:
  4008                           
  4009                           ;main.c: 112:             sprintf(string, "%d", milhar);
  4010  1775  3023               	movlw	(low ((STR_1-__stringbase)| (0+32768)))& (0+255)
  4011  1776  1283               	bcf	3,5	;RP0=0, select bank0
  4012  1777  1303               	bcf	3,6	;RP1=0, select bank0
  4013  1778  00AD               	movwf	??_imprimirValoresLcd
  4014  1779  082D               	movf	??_imprimirValoresLcd,w
  4015  177A  00A0               	movwf	sprintf@f
  4016  177B  082F               	movf	imprimirValoresLcd@milhar+1,w
  4017  177C  00A2               	movwf	?_sprintf+2
  4018  177D  082E               	movf	imprimirValoresLcd@milhar,w
  4019  177E  00A1               	movwf	?_sprintf+1
  4020  177F  30AA               	movlw	(low (_string| (0+256)))& (0+255)
  4021  1780  120A  158A  222D  160A  118A  	fcall	_sprintf
  4022  1785                     l2897:
  4023                           
  4024                           ;main.c: 113:             lcd_str(string);
  4025  1785  30AA               	movlw	(low (_string| (0+256)))& (0+255)
  4026  1786  00F2               	movwf	lcd_str@str
  4027  1787  3001               	movlw	1
  4028  1788  00F3               	movwf	lcd_str@str+1
  4029  1789  160A  118A  222B  160A  118A  	fcall	_lcd_str
  4030  178E                     l2899:
  4031                           
  4032                           ;main.c: 114:             sprintf(string, "%d", centena);
  4033  178E  3023               	movlw	(low ((STR_1-__stringbase)| (0+32768)))& (0+255)
  4034  178F  1283               	bcf	3,5	;RP0=0, select bank0
  4035  1790  1303               	bcf	3,6	;RP1=0, select bank0
  4036  1791  00AD               	movwf	??_imprimirValoresLcd
  4037  1792  082D               	movf	??_imprimirValoresLcd,w
  4038  1793  00A0               	movwf	sprintf@f
  4039  1794  0831               	movf	imprimirValoresLcd@centena+1,w
  4040  1795  00A2               	movwf	?_sprintf+2
  4041  1796  0830               	movf	imprimirValoresLcd@centena,w
  4042  1797  00A1               	movwf	?_sprintf+1
  4043  1798  30AA               	movlw	(low (_string| (0+256)))& (0+255)
  4044  1799  120A  158A  222D  160A  118A  	fcall	_sprintf
  4045  179E                     l2901:
  4046                           
  4047                           ;main.c: 115:             lcd_str(string);
  4048  179E  30AA               	movlw	(low (_string| (0+256)))& (0+255)
  4049  179F  00F2               	movwf	lcd_str@str
  4050  17A0  3001               	movlw	1
  4051  17A1  00F3               	movwf	lcd_str@str+1
  4052  17A2  160A  118A  222B  160A  118A  	fcall	_lcd_str
  4053  17A7                     l2903:
  4054                           
  4055                           ;main.c: 117:             setPointReferencia = setPoint;
  4056  17A7  1683               	bsf	3,5	;RP0=1, select bank1
  4057  17A8  1303               	bcf	3,6	;RP1=0, select bank1
  4058  17A9  086D               	movf	(_setPoint+1)^(0+128),w
  4059  17AA  00E0               	movwf	(_setPointReferencia+1)^(0+128)
  4060  17AB  086C               	movf	_setPoint^(0+128),w
  4061  17AC  00DF               	movwf	_setPointReferencia^(0+128)
  4062  17AD                     l2905:
  4063                           
  4064                           ;main.c: 120:         lcd_cmd(0x89 +6);
  4065  17AD  308F               	movlw	143
  4066  17AE  160A  118A  2190  160A  118A  	fcall	_lcd_cmd
  4067                           
  4068                           ;main.c: 121:     } else {
  4069  17B3  2FFF               	goto	l110
  4070  17B4                     l2907:
  4071                           
  4072                           ;main.c: 122:         if (kp != kpReferencia){
  4073  17B4  1683               	bsf	3,5	;RP0=1, select bank3
  4074  17B5  1703               	bsf	3,6	;RP1=1, select bank3
  4075  17B6  0829               	movf	(_kpReferencia+1)^(0+384),w
  4076  17B7  1683               	bsf	3,5	;RP0=1, select bank1
  4077  17B8  1303               	bcf	3,6	;RP1=0, select bank1
  4078  17B9  066B               	xorwf	(_kp+1)^(0+128),w
  4079  17BA  1D03               	skipz
  4080  17BB  2FC2               	goto	u4465
  4081  17BC  1683               	bsf	3,5	;RP0=1, select bank3
  4082  17BD  1703               	bsf	3,6	;RP1=1, select bank3
  4083  17BE  0828               	movf	_kpReferencia^(0+384),w
  4084  17BF  1683               	bsf	3,5	;RP0=1, select bank1
  4085  17C0  1303               	bcf	3,6	;RP1=0, select bank1
  4086  17C1  066A               	xorwf	_kp^(0+128),w
  4087  17C2                     u4465:
  4088  17C2  1903               	skipnz
  4089  17C3  2FC5               	goto	u4461
  4090  17C4  2FC6               	goto	u4460
  4091  17C5                     u4461:
  4092  17C5  2FF9               	goto	l2917
  4093  17C6                     u4460:
  4094  17C6                     l2909:
  4095                           
  4096                           ;main.c: 123:             lcd_cmd(0xC3);
  4097  17C6  30C3               	movlw	195
  4098  17C7  160A  118A  2190  160A  118A  	fcall	_lcd_cmd
  4099  17CC                     l2911:
  4100                           
  4101                           ;main.c: 124:             sprintf(string, "%d", kp);
  4102  17CC  3023               	movlw	(low ((STR_1-__stringbase)| (0+32768)))& (0+255)
  4103  17CD  1283               	bcf	3,5	;RP0=0, select bank0
  4104  17CE  1303               	bcf	3,6	;RP1=0, select bank0
  4105  17CF  00AD               	movwf	??_imprimirValoresLcd
  4106  17D0  082D               	movf	??_imprimirValoresLcd,w
  4107  17D1  00A0               	movwf	sprintf@f
  4108  17D2  1683               	bsf	3,5	;RP0=1, select bank1
  4109  17D3  1303               	bcf	3,6	;RP1=0, select bank1
  4110  17D4  086B               	movf	(_kp+1)^(0+128),w
  4111  17D5  1283               	bcf	3,5	;RP0=0, select bank0
  4112  17D6  1303               	bcf	3,6	;RP1=0, select bank0
  4113  17D7  00A2               	movwf	?_sprintf+2
  4114  17D8  1683               	bsf	3,5	;RP0=1, select bank1
  4115  17D9  1303               	bcf	3,6	;RP1=0, select bank1
  4116  17DA  086A               	movf	_kp^(0+128),w
  4117  17DB  1283               	bcf	3,5	;RP0=0, select bank0
  4118  17DC  1303               	bcf	3,6	;RP1=0, select bank0
  4119  17DD  00A1               	movwf	?_sprintf+1
  4120  17DE  30AA               	movlw	(low (_string| (0+256)))& (0+255)
  4121  17DF  120A  158A  222D  160A  118A  	fcall	_sprintf
  4122  17E4                     l2913:
  4123                           
  4124                           ;main.c: 125:             lcd_str(string);
  4125  17E4  30AA               	movlw	(low (_string| (0+256)))& (0+255)
  4126  17E5  00F2               	movwf	lcd_str@str
  4127  17E6  3001               	movlw	1
  4128  17E7  00F3               	movwf	lcd_str@str+1
  4129  17E8  160A  118A  222B  160A  118A  	fcall	_lcd_str
  4130  17ED                     l2915:
  4131                           
  4132                           ;main.c: 126:             kpReferencia = kp;
  4133  17ED  1683               	bsf	3,5	;RP0=1, select bank1
  4134  17EE  1303               	bcf	3,6	;RP1=0, select bank1
  4135  17EF  086B               	movf	(_kp+1)^(0+128),w
  4136  17F0  1683               	bsf	3,5	;RP0=1, select bank3
  4137  17F1  1703               	bsf	3,6	;RP1=1, select bank3
  4138  17F2  00A9               	movwf	(_kpReferencia+1)^(0+384)
  4139  17F3  1683               	bsf	3,5	;RP0=1, select bank1
  4140  17F4  1303               	bcf	3,6	;RP1=0, select bank1
  4141  17F5  086A               	movf	_kp^(0+128),w
  4142  17F6  1683               	bsf	3,5	;RP0=1, select bank3
  4143  17F7  1703               	bsf	3,6	;RP1=1, select bank3
  4144  17F8  00A8               	movwf	_kpReferencia^(0+384)
  4145  17F9                     l2917:
  4146                           
  4147                           ;main.c: 129:         lcd_cmd(0xC9 +6);
  4148  17F9  30CF               	movlw	207
  4149  17FA  160A  118A  2190  160A  118A  	fcall	_lcd_cmd
  4150  17FF                     l110:
  4151  17FF  0008               	return
  4152  1800                     __end_of_imprimirValoresLcd:
  4153                           
  4154                           	psect	text8
  4155  0A2D                     __ptext8:	
  4156 ;; *************** function _sprintf *****************
  4157 ;; Defined at:
  4158 ;;		line 505 in file "C:\Program Files\Microchip\xc8\v2.32\pic\sources\c90\common\doprnt.c"
  4159 ;; Parameters:    Size  Location     Type
  4160 ;;  sp              1    wreg     PTR unsigned char 
  4161 ;;		 -> string(32), 
  4162 ;;  f               1    0[BANK0 ] PTR const unsigned char 
  4163 ;;		 -> STR_3(3), STR_2(3), STR_1(3), 
  4164 ;; Auto vars:     Size  Location     Type
  4165 ;;  sp              1   11[BANK0 ] PTR unsigned char 
  4166 ;;		 -> string(32), 
  4167 ;;  tmpval          4    0        struct .
  4168 ;;  val             2    9[BANK0 ] unsigned int 
  4169 ;;  cp              2    0        PTR const unsigned char 
  4170 ;;  len             2    0        unsigned int 
  4171 ;;  c               1   12[BANK0 ] unsigned char 
  4172 ;;  prec            1    8[BANK0 ] char 
  4173 ;;  flag            1    7[BANK0 ] unsigned char 
  4174 ;;  ap              1    6[BANK0 ] PTR void [1]
  4175 ;;		 -> ?_sprintf(2), 
  4176 ;; Return value:  Size  Location     Type
  4177 ;;                  2    0[BANK0 ] int 
  4178 ;; Registers used:
  4179 ;;		wreg, fsr0l, fsr0h, status,2, status,0, btemp+1, pclath, cstack
  4180 ;; Tracked objects:
  4181 ;;		On entry : 0/0
  4182 ;;		On exit  : 0/0
  4183 ;;		Unchanged: 0/0
  4184 ;; Data sizes:     COMMON   BANK0   BANK1   BANK3   BANK2
  4185 ;;      Params:         0       3       0       0       0
  4186 ;;      Locals:         0       7       0       0       0
  4187 ;;      Temps:          0       3       0       0       0
  4188 ;;      Totals:         0      13       0       0       0
  4189 ;;Total ram usage:       13 bytes
  4190 ;; Hardware stack levels used: 1
  4191 ;; Hardware stack levels required when called: 1
  4192 ;; This function calls:
  4193 ;;		___lwdiv
  4194 ;;		___lwmod
  4195 ;; This function is called by:
  4196 ;;		_imprimirValoresLcd
  4197 ;; This function uses a non-reentrant model
  4198 ;;
  4199                           
  4200                           
  4201                           ;psect for function _sprintf
  4202  0A2D                     _sprintf:
  4203                           
  4204                           ;incstack = 0
  4205                           ; Regs used in _sprintf: [wreg-fsr0h+status,2+status,0+btemp+1+pclath+cstack]
  4206                           ;sprintf@sp stored from wreg
  4207  0A2D  1283               	bcf	3,5	;RP0=0, select bank0
  4208  0A2E  1303               	bcf	3,6	;RP1=0, select bank0
  4209  0A2F  00AB               	movwf	sprintf@sp
  4210  0A30                     l2631:
  4211                           
  4212                           ;C:\Program Files\Microchip\xc8\v2.32\pic\sources\c90\common\doprnt.c: 505: sprintf(char
      +                           * sp, const char * f, ...);C:\Program Files\Microchip\xc8\v2.32\pic\sources\c90\common\
      +                          doprnt.c: 506: {;C:\Program Files\Microchip\xc8\v2.32\pic\sources\c90\common\doprnt.c: 5
      +                          07:  va_list ap;;C:\Program Files\Microchip\xc8\v2.32\pic\sources\c90\common\doprnt.c: 5
      +                          12:  char c;;C:\Program Files\Microchip\xc8\v2.32\pic\sources\c90\common\doprnt.c: 521: 
      +                           signed char prec;;C:\Program Files\Microchip\xc8\v2.32\pic\sources\c90\common\doprnt.c:
      +                           525:  unsigned char flag;
  4213  0A30  3021               	movlw	(low ((?_sprintf| 0+1)))& (0+255)
  4214  0A31  00A3               	movwf	??_sprintf
  4215  0A32  0823               	movf	??_sprintf,w
  4216  0A33  00A6               	movwf	sprintf@ap
  4217                           
  4218                           ;C:\Program Files\Microchip\xc8\v2.32\pic\sources\c90\common\doprnt.c: 553:  while((c = 
      +                          *f++)) {
  4219  0A34  2AFE               	goto	l2683
  4220  0A35                     l2633:
  4221                           
  4222                           ;C:\Program Files\Microchip\xc8\v2.32\pic\sources\c90\common\doprnt.c: 555:   if(c != '%
      +                          ')
  4223  0A35  3025               	movlw	37
  4224  0A36  062C               	xorwf	sprintf@c,w
  4225  0A37  1903               	btfsc	3,2
  4226  0A38  2A3A               	goto	u3901
  4227  0A39  2A3B               	goto	u3900
  4228  0A3A                     u3901:
  4229  0A3A  2A47               	goto	l2639
  4230  0A3B                     u3900:
  4231  0A3B                     l2635:
  4232                           
  4233                           ;C:\Program Files\Microchip\xc8\v2.32\pic\sources\c90\common\doprnt.c: 557:   {;C:\Progr
      +                          am Files\Microchip\xc8\v2.32\pic\sources\c90\common\doprnt.c: 558:    ((*sp++ = (c)));
  4234  0A3B  082C               	movf	sprintf@c,w
  4235  0A3C  00A3               	movwf	??_sprintf
  4236  0A3D  082B               	movf	sprintf@sp,w
  4237  0A3E  0084               	movwf	4
  4238  0A3F  0823               	movf	??_sprintf,w
  4239  0A40  1783               	bsf	3,7	;select IRP bank2
  4240  0A41  0080               	movwf	0
  4241  0A42                     l2637:
  4242  0A42  3001               	movlw	1
  4243  0A43  00A3               	movwf	??_sprintf
  4244  0A44  0823               	movf	??_sprintf,w
  4245  0A45  07AB               	addwf	sprintf@sp,f
  4246                           
  4247                           ;C:\Program Files\Microchip\xc8\v2.32\pic\sources\c90\common\doprnt.c: 559:    continue;
  4248  0A46  2AFE               	goto	l2683
  4249  0A47                     l2639:
  4250                           
  4251                           ;C:\Program Files\Microchip\xc8\v2.32\pic\sources\c90\common\doprnt.c: 565:   flag = 0;
  4252  0A47  01A7               	clrf	sprintf@flag
  4253  0A48                     l2643:	
  4254                           ;C:\Program Files\Microchip\xc8\v2.32\pic\sources\c90\common\doprnt.c: 661:   switch(c =
      +                           *f++) {
  4255                           
  4256  0A48  3001               	movlw	1
  4257  0A49  07A0               	addwf	sprintf@f,f
  4258  0A4A  30FF               	movlw	-1
  4259  0A4B  0720               	addwf	sprintf@f,w
  4260  0A4C  0084               	movwf	4
  4261  0A4D  160A  118A  200A  120A  158A  	fcall	stringdir
  4262  0A52  00AC               	movwf	sprintf@c
  4263  0A53  00A3               	movwf	??_sprintf
  4264  0A54  01A4               	clrf	??_sprintf+1
  4265                           
  4266                           ; Switch on 2 bytes has been partitioned into a top level switch of size 1, and 1 sub-sw
      +                          itches
  4267                           ; Switch size 1, requested type "simple"
  4268                           ; Number of cases is 1, Range of values is 0 to 0
  4269                           ; switch strategies available:
  4270                           ; Name         Instructions Cycles
  4271                           ; simple_byte            4     3 (average)
  4272                           ; direct_byte           11     8 (fixed)
  4273                           ; jumptable            260     6 (fixed)
  4274                           ;	Chosen strategy is simple_byte
  4275  0A55  0824               	movf	??_sprintf+1,w
  4276  0A56  3A00               	xorlw	0	; case 0
  4277  0A57  1903               	skipnz
  4278  0A58  2A5A               	goto	l3027
  4279  0A59  2AFE               	goto	l2683
  4280  0A5A                     l3027:
  4281                           
  4282                           ; Switch size 1, requested type "simple"
  4283                           ; Number of cases is 3, Range of values is 0 to 105
  4284                           ; switch strategies available:
  4285                           ; Name         Instructions Cycles
  4286                           ; simple_byte           10     6 (average)
  4287                           ; jumptable            260     6 (fixed)
  4288                           ;	Chosen strategy is simple_byte
  4289  0A5A  0823               	movf	??_sprintf,w
  4290  0A5B  3A00               	xorlw	0	; case 0
  4291  0A5C  1903               	skipnz
  4292  0A5D  2B10               	goto	l2685
  4293  0A5E  3A64               	xorlw	100	; case 100
  4294  0A5F  1903               	skipnz
  4295  0A60  2A65               	goto	l2645
  4296  0A61  3A0D               	xorlw	13	; case 105
  4297  0A62  1903               	skipnz
  4298  0A63  2A65               	goto	l2645
  4299  0A64  2AFE               	goto	l2683
  4300  0A65                     l2645:
  4301                           
  4302                           ;C:\Program Files\Microchip\xc8\v2.32\pic\sources\c90\common\doprnt.c: 1279:   {;C:\Prog
      +                          ram Files\Microchip\xc8\v2.32\pic\sources\c90\common\doprnt.c: 1285:     val = (unsigned
      +                           int)(*(int *)__va_arg((*(int **)ap), (int)0));
  4303  0A65  0826               	movf	sprintf@ap,w
  4304  0A66  0084               	movwf	4
  4305  0A67  1383               	bcf	3,7	;select IRP bank0
  4306  0A68  0800               	movf	0,w
  4307  0A69  00A9               	movwf	sprintf@val
  4308  0A6A  0A84               	incf	4,f
  4309  0A6B  0800               	movf	0,w
  4310  0A6C  00AA               	movwf	sprintf@val+1
  4311  0A6D                     l2647:
  4312  0A6D  3002               	movlw	2
  4313  0A6E  00A3               	movwf	??_sprintf
  4314  0A6F  0823               	movf	??_sprintf,w
  4315  0A70  07A6               	addwf	sprintf@ap,f
  4316  0A71                     l2649:
  4317                           
  4318                           ;C:\Program Files\Microchip\xc8\v2.32\pic\sources\c90\common\doprnt.c: 1287:    if((int)
      +                          val < 0) {
  4319  0A71  1FAA               	btfss	sprintf@val+1,7
  4320  0A72  2A74               	goto	u3911
  4321  0A73  2A75               	goto	u3910
  4322  0A74                     u3911:
  4323  0A74  2A7E               	goto	l2655
  4324  0A75                     u3910:
  4325  0A75                     l2651:
  4326                           
  4327                           ;C:\Program Files\Microchip\xc8\v2.32\pic\sources\c90\common\doprnt.c: 1288:     flag |=
      +                           0x03;
  4328  0A75  3003               	movlw	3
  4329  0A76  00A3               	movwf	??_sprintf
  4330  0A77  0823               	movf	??_sprintf,w
  4331  0A78  04A7               	iorwf	sprintf@flag,f
  4332  0A79                     l2653:
  4333                           
  4334                           ;C:\Program Files\Microchip\xc8\v2.32\pic\sources\c90\common\doprnt.c: 1289:     val = -
      +                          val;
  4335  0A79  09A9               	comf	sprintf@val,f
  4336  0A7A  09AA               	comf	sprintf@val+1,f
  4337  0A7B  0AA9               	incf	sprintf@val,f
  4338  0A7C  1903               	skipnz
  4339  0A7D  0AAA               	incf	sprintf@val+1,f
  4340  0A7E                     l2655:
  4341                           
  4342                           ;C:\Program Files\Microchip\xc8\v2.32\pic\sources\c90\common\doprnt.c: 1292:   };C:\Prog
      +                          ram Files\Microchip\xc8\v2.32\pic\sources\c90\common\doprnt.c: 1331:    for(c = 1 ; c !=
      +                           sizeof dpowers/sizeof dpowers[0] ; c++)
  4343  0A7E  01AC               	clrf	sprintf@c
  4344  0A7F  0AAC               	incf	sprintf@c,f
  4345  0A80                     l2661:
  4346                           
  4347                           ;C:\Program Files\Microchip\xc8\v2.32\pic\sources\c90\common\doprnt.c: 1332:     if(val 
      +                          < dpowers[c])
  4348  0A80  082C               	movf	sprintf@c,w
  4349  0A81  00A3               	movwf	??_sprintf
  4350  0A82  0723               	addwf	??_sprintf,w
  4351  0A83  3E01               	addlw	low ((_dpowers-__stringbase)| (0+32768))
  4352  0A84  0084               	movwf	4
  4353  0A85  160A  118A  200A  120A  158A  	fcall	stringdir
  4354  0A8A  00A4               	movwf	??_sprintf+1
  4355  0A8B  160A  118A  200A  120A  158A  	fcall	stringdir
  4356  0A90  00A5               	movwf	??_sprintf+2
  4357  0A91  0825               	movf	??_sprintf+2,w
  4358  0A92  022A               	subwf	sprintf@val+1,w
  4359  0A93  1D03               	skipz
  4360  0A94  2A97               	goto	u3925
  4361  0A95  0824               	movf	??_sprintf+1,w
  4362  0A96  0229               	subwf	sprintf@val,w
  4363  0A97                     u3925:
  4364  0A97  1803               	skipnc
  4365  0A98  2A9A               	goto	u3921
  4366  0A99  2A9B               	goto	u3920
  4367  0A9A                     u3921:
  4368  0A9A  2A9C               	goto	l2665
  4369  0A9B                     u3920:
  4370  0A9B  2AA6               	goto	l2667
  4371  0A9C                     l2665:
  4372  0A9C  3001               	movlw	1
  4373  0A9D  00A3               	movwf	??_sprintf
  4374  0A9E  0823               	movf	??_sprintf,w
  4375  0A9F  07AC               	addwf	sprintf@c,f
  4376  0AA0  3005               	movlw	5
  4377  0AA1  062C               	xorwf	sprintf@c,w
  4378  0AA2  1D03               	btfss	3,2
  4379  0AA3  2AA5               	goto	u3931
  4380  0AA4  2AA6               	goto	u3930
  4381  0AA5                     u3931:
  4382  0AA5  2A80               	goto	l2661
  4383  0AA6                     u3930:
  4384  0AA6                     l2667:
  4385                           
  4386                           ;C:\Program Files\Microchip\xc8\v2.32\pic\sources\c90\common\doprnt.c: 1448:   {;C:\Prog
      +                          ram Files\Microchip\xc8\v2.32\pic\sources\c90\common\doprnt.c: 1464:    if(flag & 0x03)
  4387  0AA6  0827               	movf	sprintf@flag,w
  4388  0AA7  3903               	andlw	3
  4389  0AA8  1903               	btfsc	3,2
  4390  0AA9  2AAB               	goto	u3941
  4391  0AAA  2AAC               	goto	u3940
  4392  0AAB                     u3941:
  4393  0AAB  2AB7               	goto	l2673
  4394  0AAC                     u3940:
  4395  0AAC                     l2669:
  4396                           
  4397                           ;C:\Program Files\Microchip\xc8\v2.32\pic\sources\c90\common\doprnt.c: 1465:     ((*sp++
      +                           = ('-')));
  4398  0AAC  302D               	movlw	45
  4399  0AAD  00A3               	movwf	??_sprintf
  4400  0AAE  082B               	movf	sprintf@sp,w
  4401  0AAF  0084               	movwf	4
  4402  0AB0  0823               	movf	??_sprintf,w
  4403  0AB1  1783               	bsf	3,7	;select IRP bank2
  4404  0AB2  0080               	movwf	0
  4405  0AB3                     l2671:
  4406  0AB3  3001               	movlw	1
  4407  0AB4  00A3               	movwf	??_sprintf
  4408  0AB5  0823               	movf	??_sprintf,w
  4409  0AB6  07AB               	addwf	sprintf@sp,f
  4410  0AB7                     l2673:
  4411                           
  4412                           ;C:\Program Files\Microchip\xc8\v2.32\pic\sources\c90\common\doprnt.c: 1495:   };C:\Prog
      +                          ram Files\Microchip\xc8\v2.32\pic\sources\c90\common\doprnt.c: 1498:   prec = c;
  4413  0AB7  082C               	movf	sprintf@c,w
  4414  0AB8  00A3               	movwf	??_sprintf
  4415  0AB9  0823               	movf	??_sprintf,w
  4416  0ABA  00A8               	movwf	sprintf@prec
  4417                           
  4418                           ;C:\Program Files\Microchip\xc8\v2.32\pic\sources\c90\common\doprnt.c: 1500:   while(pre
      +                          c--) {
  4419  0ABB  2AF5               	goto	l2681
  4420  0ABC                     l2675:
  4421                           
  4422                           ;C:\Program Files\Microchip\xc8\v2.32\pic\sources\c90\common\doprnt.c: 1504:    {;C:\Pro
      +                          gram Files\Microchip\xc8\v2.32\pic\sources\c90\common\doprnt.c: 1515:     c = (val / dpo
      +                          wers[(unsigned char)prec]) % 10 + '0';
  4423  0ABC  300A               	movlw	10
  4424  0ABD  00F8               	movwf	___lwmod@divisor
  4425  0ABE  3000               	movlw	0
  4426  0ABF  00F9               	movwf	___lwmod@divisor+1
  4427  0AC0  0828               	movf	sprintf@prec,w
  4428  0AC1  00A3               	movwf	??_sprintf
  4429  0AC2  0723               	addwf	??_sprintf,w
  4430  0AC3  3E01               	addlw	low ((_dpowers-__stringbase)| (0+32768))
  4431  0AC4  0084               	movwf	4
  4432  0AC5  160A  118A  200A  120A  158A  	fcall	stringdir
  4433  0ACA  00F0               	movwf	___lwdiv@divisor
  4434  0ACB  160A  118A  200A  120A  158A  	fcall	stringdir
  4435  0AD0  00F1               	movwf	___lwdiv@divisor+1
  4436  0AD1  082A               	movf	sprintf@val+1,w
  4437  0AD2  00F3               	movwf	___lwdiv@dividend+1
  4438  0AD3  0829               	movf	sprintf@val,w
  4439  0AD4  00F2               	movwf	___lwdiv@dividend
  4440  0AD5  160A  118A  2366  120A  158A  	fcall	___lwdiv
  4441  0ADA  0871               	movf	?___lwdiv+1,w
  4442  0ADB  00FB               	movwf	___lwmod@dividend+1
  4443  0ADC  0870               	movf	?___lwdiv,w
  4444  0ADD  00FA               	movwf	___lwmod@dividend
  4445  0ADE  160A  118A  232C  120A  158A  	fcall	___lwmod
  4446  0AE3  0878               	movf	?___lwmod,w
  4447  0AE4  3E30               	addlw	48
  4448  0AE5  1283               	bcf	3,5	;RP0=0, select bank0
  4449  0AE6  1303               	bcf	3,6	;RP1=0, select bank0
  4450  0AE7  00A4               	movwf	??_sprintf+1
  4451  0AE8  0824               	movf	??_sprintf+1,w
  4452  0AE9  00AC               	movwf	sprintf@c
  4453  0AEA                     l2677:
  4454                           
  4455                           ;C:\Program Files\Microchip\xc8\v2.32\pic\sources\c90\common\doprnt.c: 1549:    };C:\Pro
      +                          gram Files\Microchip\xc8\v2.32\pic\sources\c90\common\doprnt.c: 1550:    ((*sp++ = (c)))
      +                          ;
  4456  0AEA  082C               	movf	sprintf@c,w
  4457  0AEB  00A3               	movwf	??_sprintf
  4458  0AEC  082B               	movf	sprintf@sp,w
  4459  0AED  0084               	movwf	4
  4460  0AEE  0823               	movf	??_sprintf,w
  4461  0AEF  1783               	bsf	3,7	;select IRP bank2
  4462  0AF0  0080               	movwf	0
  4463  0AF1                     l2679:
  4464  0AF1  3001               	movlw	1
  4465  0AF2  00A3               	movwf	??_sprintf
  4466  0AF3  0823               	movf	??_sprintf,w
  4467  0AF4  07AB               	addwf	sprintf@sp,f
  4468  0AF5                     l2681:
  4469                           
  4470                           ;C:\Program Files\Microchip\xc8\v2.32\pic\sources\c90\common\doprnt.c: 1500:   while(pre
      +                          c--) {
  4471  0AF5  30FF               	movlw	255
  4472  0AF6  00A3               	movwf	??_sprintf
  4473  0AF7  0823               	movf	??_sprintf,w
  4474  0AF8  07A8               	addwf	sprintf@prec,f
  4475  0AF9  0A28               	incf	sprintf@prec,w
  4476  0AFA  1D03               	btfss	3,2
  4477  0AFB  2AFD               	goto	u3951
  4478  0AFC  2AFE               	goto	u3950
  4479  0AFD                     u3951:
  4480  0AFD  2ABC               	goto	l2675
  4481  0AFE                     u3950:
  4482  0AFE                     l2683:
  4483                           
  4484                           ;C:\Program Files\Microchip\xc8\v2.32\pic\sources\c90\common\doprnt.c: 553:  while((c = 
      +                          *f++)) {
  4485  0AFE  3001               	movlw	1
  4486  0AFF  07A0               	addwf	sprintf@f,f
  4487  0B00  30FF               	movlw	-1
  4488  0B01  0720               	addwf	sprintf@f,w
  4489  0B02  0084               	movwf	4
  4490  0B03  160A  118A  200A  120A  158A  	fcall	stringdir
  4491  0B08  00A3               	movwf	??_sprintf
  4492  0B09  0823               	movf	??_sprintf,w
  4493  0B0A  00AC               	movwf	sprintf@c
  4494  0B0B  082C               	movf	sprintf@c,w
  4495  0B0C  1D03               	btfss	3,2
  4496  0B0D  2B0F               	goto	u3961
  4497  0B0E  2B10               	goto	u3960
  4498  0B0F                     u3961:
  4499  0B0F  2A35               	goto	l2633
  4500  0B10                     u3960:
  4501  0B10                     l2685:
  4502                           
  4503                           ;C:\Program Files\Microchip\xc8\v2.32\pic\sources\c90\common\doprnt.c: 1564:  *sp = 0;
  4504  0B10  082B               	movf	sprintf@sp,w
  4505  0B11  0084               	movwf	4
  4506  0B12  1783               	bsf	3,7	;select IRP bank2
  4507  0B13  0180               	clrf	0
  4508  0B14                     l333:
  4509  0B14  0008               	return
  4510  0B15                     __end_of_sprintf:
  4511                           
  4512                           	psect	text9
  4513  132C                     __ptext9:	
  4514 ;; *************** function ___lwmod *****************
  4515 ;; Defined at:
  4516 ;;		line 5 in file "C:\Program Files\Microchip\xc8\v2.32\pic\sources\c90\common\lwmod.c"
  4517 ;; Parameters:    Size  Location     Type
  4518 ;;  divisor         2    8[COMMON] unsigned int 
  4519 ;;  dividend        2   10[COMMON] unsigned int 
  4520 ;; Auto vars:     Size  Location     Type
  4521 ;;  counter         1   13[COMMON] unsigned char 
  4522 ;; Return value:  Size  Location     Type
  4523 ;;                  2    8[COMMON] unsigned int 
  4524 ;; Registers used:
  4525 ;;		wreg, status,2, status,0
  4526 ;; Tracked objects:
  4527 ;;		On entry : 0/0
  4528 ;;		On exit  : 0/0
  4529 ;;		Unchanged: 0/0
  4530 ;; Data sizes:     COMMON   BANK0   BANK1   BANK3   BANK2
  4531 ;;      Params:         4       0       0       0       0
  4532 ;;      Locals:         1       0       0       0       0
  4533 ;;      Temps:          1       0       0       0       0
  4534 ;;      Totals:         6       0       0       0       0
  4535 ;;Total ram usage:        6 bytes
  4536 ;; Hardware stack levels used: 1
  4537 ;; This function calls:
  4538 ;;		Nothing
  4539 ;; This function is called by:
  4540 ;;		_sprintf
  4541 ;; This function uses a non-reentrant model
  4542 ;;
  4543                           
  4544                           
  4545                           ;psect for function ___lwmod
  4546  132C                     ___lwmod:
  4547  132C                     l2067:	
  4548                           ;incstack = 0
  4549                           ; Regs used in ___lwmod: [wreg+status,2+status,0]
  4550                           
  4551  132C  0878               	movf	___lwmod@divisor,w
  4552  132D  0479               	iorwf	___lwmod@divisor+1,w
  4553  132E  1903               	btfsc	3,2
  4554  132F  2B31               	goto	u2561
  4555  1330  2B32               	goto	u2560
  4556  1331                     u2561:
  4557  1331  2B61               	goto	l2085
  4558  1332                     u2560:
  4559  1332                     l2069:
  4560  1332  01FD               	clrf	___lwmod@counter
  4561  1333  0AFD               	incf	___lwmod@counter,f
  4562  1334  2B40               	goto	l2075
  4563  1335                     l2071:
  4564  1335  3001               	movlw	1
  4565  1336                     u2575:
  4566  1336  1003               	clrc
  4567  1337  0DF8               	rlf	___lwmod@divisor,f
  4568  1338  0DF9               	rlf	___lwmod@divisor+1,f
  4569  1339  3EFF               	addlw	-1
  4570  133A  1D03               	skipz
  4571  133B  2B36               	goto	u2575
  4572  133C                     l2073:
  4573  133C  3001               	movlw	1
  4574  133D  00FC               	movwf	??___lwmod
  4575  133E  087C               	movf	??___lwmod,w
  4576  133F  07FD               	addwf	___lwmod@counter,f
  4577  1340                     l2075:
  4578  1340  1FF9               	btfss	___lwmod@divisor+1,7
  4579  1341  2B43               	goto	u2581
  4580  1342  2B44               	goto	u2580
  4581  1343                     u2581:
  4582  1343  2B35               	goto	l2071
  4583  1344                     u2580:
  4584  1344                     l2077:
  4585  1344  0879               	movf	___lwmod@divisor+1,w
  4586  1345  027B               	subwf	___lwmod@dividend+1,w
  4587  1346  1D03               	skipz
  4588  1347  2B4A               	goto	u2595
  4589  1348  0878               	movf	___lwmod@divisor,w
  4590  1349  027A               	subwf	___lwmod@dividend,w
  4591  134A                     u2595:
  4592  134A  1C03               	skipc
  4593  134B  2B4D               	goto	u2591
  4594  134C  2B4E               	goto	u2590
  4595  134D                     u2591:
  4596  134D  2B54               	goto	l2081
  4597  134E                     u2590:
  4598  134E                     l2079:
  4599  134E  0878               	movf	___lwmod@divisor,w
  4600  134F  02FA               	subwf	___lwmod@dividend,f
  4601  1350  0879               	movf	___lwmod@divisor+1,w
  4602  1351  1C03               	skipc
  4603  1352  03FB               	decf	___lwmod@dividend+1,f
  4604  1353  02FB               	subwf	___lwmod@dividend+1,f
  4605  1354                     l2081:
  4606  1354  3001               	movlw	1
  4607  1355                     u2605:
  4608  1355  1003               	clrc
  4609  1356  0CF9               	rrf	___lwmod@divisor+1,f
  4610  1357  0CF8               	rrf	___lwmod@divisor,f
  4611  1358  3EFF               	addlw	-1
  4612  1359  1D03               	skipz
  4613  135A  2B55               	goto	u2605
  4614  135B                     l2083:
  4615  135B  3001               	movlw	1
  4616  135C  02FD               	subwf	___lwmod@counter,f
  4617  135D  1D03               	btfss	3,2
  4618  135E  2B60               	goto	u2611
  4619  135F  2B61               	goto	u2610
  4620  1360                     u2611:
  4621  1360  2B44               	goto	l2077
  4622  1361                     u2610:
  4623  1361                     l2085:
  4624  1361  087B               	movf	___lwmod@dividend+1,w
  4625  1362  00F9               	movwf	?___lwmod+1
  4626  1363  087A               	movf	___lwmod@dividend,w
  4627  1364  00F8               	movwf	?___lwmod
  4628  1365                     l619:
  4629  1365  0008               	return
  4630  1366                     __end_of___lwmod:
  4631                           
  4632                           	psect	text10
  4633  1366                     __ptext10:	
  4634 ;; *************** function ___lwdiv *****************
  4635 ;; Defined at:
  4636 ;;		line 5 in file "C:\Program Files\Microchip\xc8\v2.32\pic\sources\c90\common\lwdiv.c"
  4637 ;; Parameters:    Size  Location     Type
  4638 ;;  divisor         2    0[COMMON] unsigned int 
  4639 ;;  dividend        2    2[COMMON] unsigned int 
  4640 ;; Auto vars:     Size  Location     Type
  4641 ;;  quotient        2    5[COMMON] unsigned int 
  4642 ;;  counter         1    7[COMMON] unsigned char 
  4643 ;; Return value:  Size  Location     Type
  4644 ;;                  2    0[COMMON] unsigned int 
  4645 ;; Registers used:
  4646 ;;		wreg, status,2, status,0
  4647 ;; Tracked objects:
  4648 ;;		On entry : 0/0
  4649 ;;		On exit  : 0/0
  4650 ;;		Unchanged: 0/0
  4651 ;; Data sizes:     COMMON   BANK0   BANK1   BANK3   BANK2
  4652 ;;      Params:         4       0       0       0       0
  4653 ;;      Locals:         3       0       0       0       0
  4654 ;;      Temps:          1       0       0       0       0
  4655 ;;      Totals:         8       0       0       0       0
  4656 ;;Total ram usage:        8 bytes
  4657 ;; Hardware stack levels used: 1
  4658 ;; This function calls:
  4659 ;;		Nothing
  4660 ;; This function is called by:
  4661 ;;		_sprintf
  4662 ;; This function uses a non-reentrant model
  4663 ;;
  4664                           
  4665                           
  4666                           ;psect for function ___lwdiv
  4667  1366                     ___lwdiv:
  4668  1366                     l2041:	
  4669                           ;incstack = 0
  4670                           ; Regs used in ___lwdiv: [wreg+status,2+status,0]
  4671                           
  4672  1366  01F5               	clrf	___lwdiv@quotient
  4673  1367  01F6               	clrf	___lwdiv@quotient+1
  4674  1368                     l2043:
  4675  1368  0870               	movf	___lwdiv@divisor,w
  4676  1369  0471               	iorwf	___lwdiv@divisor+1,w
  4677  136A  1903               	btfsc	3,2
  4678  136B  2B6D               	goto	u2491
  4679  136C  2B6E               	goto	u2490
  4680  136D                     u2491:
  4681  136D  2BA5               	goto	l2063
  4682  136E                     u2490:
  4683  136E                     l2045:
  4684  136E  01F7               	clrf	___lwdiv@counter
  4685  136F  0AF7               	incf	___lwdiv@counter,f
  4686  1370  2B7C               	goto	l2051
  4687  1371                     l2047:
  4688  1371  3001               	movlw	1
  4689  1372                     u2505:
  4690  1372  1003               	clrc
  4691  1373  0DF0               	rlf	___lwdiv@divisor,f
  4692  1374  0DF1               	rlf	___lwdiv@divisor+1,f
  4693  1375  3EFF               	addlw	-1
  4694  1376  1D03               	skipz
  4695  1377  2B72               	goto	u2505
  4696  1378                     l2049:
  4697  1378  3001               	movlw	1
  4698  1379  00F4               	movwf	??___lwdiv
  4699  137A  0874               	movf	??___lwdiv,w
  4700  137B  07F7               	addwf	___lwdiv@counter,f
  4701  137C                     l2051:
  4702  137C  1FF1               	btfss	___lwdiv@divisor+1,7
  4703  137D  2B7F               	goto	u2511
  4704  137E  2B80               	goto	u2510
  4705  137F                     u2511:
  4706  137F  2B71               	goto	l2047
  4707  1380                     u2510:
  4708  1380                     l2053:
  4709  1380  3001               	movlw	1
  4710  1381                     u2525:
  4711  1381  1003               	clrc
  4712  1382  0DF5               	rlf	___lwdiv@quotient,f
  4713  1383  0DF6               	rlf	___lwdiv@quotient+1,f
  4714  1384  3EFF               	addlw	-1
  4715  1385  1D03               	skipz
  4716  1386  2B81               	goto	u2525
  4717  1387  0871               	movf	___lwdiv@divisor+1,w
  4718  1388  0273               	subwf	___lwdiv@dividend+1,w
  4719  1389  1D03               	skipz
  4720  138A  2B8D               	goto	u2535
  4721  138B  0870               	movf	___lwdiv@divisor,w
  4722  138C  0272               	subwf	___lwdiv@dividend,w
  4723  138D                     u2535:
  4724  138D  1C03               	skipc
  4725  138E  2B90               	goto	u2531
  4726  138F  2B91               	goto	u2530
  4727  1390                     u2531:
  4728  1390  2B98               	goto	l2059
  4729  1391                     u2530:
  4730  1391                     l2055:
  4731  1391  0870               	movf	___lwdiv@divisor,w
  4732  1392  02F2               	subwf	___lwdiv@dividend,f
  4733  1393  0871               	movf	___lwdiv@divisor+1,w
  4734  1394  1C03               	skipc
  4735  1395  03F3               	decf	___lwdiv@dividend+1,f
  4736  1396  02F3               	subwf	___lwdiv@dividend+1,f
  4737  1397                     l2057:
  4738  1397  1475               	bsf	___lwdiv@quotient,0
  4739  1398                     l2059:
  4740  1398  3001               	movlw	1
  4741  1399                     u2545:
  4742  1399  1003               	clrc
  4743  139A  0CF1               	rrf	___lwdiv@divisor+1,f
  4744  139B  0CF0               	rrf	___lwdiv@divisor,f
  4745  139C  3EFF               	addlw	-1
  4746  139D  1D03               	skipz
  4747  139E  2B99               	goto	u2545
  4748  139F                     l2061:
  4749  139F  3001               	movlw	1
  4750  13A0  02F7               	subwf	___lwdiv@counter,f
  4751  13A1  1D03               	btfss	3,2
  4752  13A2  2BA4               	goto	u2551
  4753  13A3  2BA5               	goto	u2550
  4754  13A4                     u2551:
  4755  13A4  2B80               	goto	l2053
  4756  13A5                     u2550:
  4757  13A5                     l2063:
  4758  13A5  0876               	movf	___lwdiv@quotient+1,w
  4759  13A6  00F1               	movwf	?___lwdiv+1
  4760  13A7  0875               	movf	___lwdiv@quotient,w
  4761  13A8  00F0               	movwf	?___lwdiv
  4762  13A9                     l609:
  4763  13A9  0008               	return
  4764  13AA                     __end_of___lwdiv:
  4765                           
  4766                           	psect	text11
  4767  122B                     __ptext11:	
  4768 ;; *************** function _lcd_str *****************
  4769 ;; Defined at:
  4770 ;;		line 76 in file "lcd.c"
  4771 ;; Parameters:    Size  Location     Type
  4772 ;;  str             2    2[COMMON] PTR const unsigned char 
  4773 ;;		 -> STR_5(12), STR_4(12), string(32), 
  4774 ;; Auto vars:     Size  Location     Type
  4775 ;;  i               1    5[COMMON] unsigned char 
  4776 ;; Return value:  Size  Location     Type
  4777 ;;                  1    wreg      void 
  4778 ;; Registers used:
  4779 ;;		wreg, fsr0l, fsr0h, status,2, status,0, btemp+1, pclath, cstack
  4780 ;; Tracked objects:
  4781 ;;		On entry : 0/0
  4782 ;;		On exit  : 0/0
  4783 ;;		Unchanged: 0/0
  4784 ;; Data sizes:     COMMON   BANK0   BANK1   BANK3   BANK2
  4785 ;;      Params:         2       0       0       0       0
  4786 ;;      Locals:         1       0       0       0       0
  4787 ;;      Temps:          1       0       0       0       0
  4788 ;;      Totals:         4       0       0       0       0
  4789 ;;Total ram usage:        4 bytes
  4790 ;; Hardware stack levels used: 1
  4791 ;; Hardware stack levels required when called: 2
  4792 ;; This function calls:
  4793 ;;		_lcd_dat
  4794 ;; This function is called by:
  4795 ;;		_imprimirValoresLcd
  4796 ;;		_main
  4797 ;; This function uses a non-reentrant model
  4798 ;;
  4799                           
  4800                           
  4801                           ;psect for function _lcd_str
  4802  122B                     _lcd_str:
  4803  122B                     l2693:	
  4804                           ;incstack = 0
  4805                           ; Regs used in _lcd_str: [wreg-fsr0h+status,2+status,0+btemp+1+pclath+cstack]
  4806                           
  4807                           
  4808                           ;lcd.c: 76: void lcd_str(const char* str);lcd.c: 77: {;lcd.c: 78:  unsigned char i=0;
  4809  122B  01F5               	clrf	lcd_str@i
  4810                           
  4811                           ;lcd.c: 80:  while(str[i] != 0 )
  4812  122C  2A42               	goto	l2699
  4813  122D                     l2695:
  4814                           
  4815                           ;lcd.c: 81:  {;lcd.c: 82:    lcd_dat(str[i]);
  4816  122D  0875               	movf	lcd_str@i,w
  4817  122E  0772               	addwf	lcd_str@str,w
  4818  122F  0084               	movwf	4
  4819  1230  0873               	movf	lcd_str@str+1,w
  4820  1231  1803               	skipnc
  4821  1232  0A73               	incf	lcd_str@str+1,w
  4822  1233  00FF               	movwf	btemp+1
  4823  1234  160A  118A  2000  160A  118A  	fcall	stringtab
  4824  1239  160A  118A  21A0  160A  118A  	fcall	_lcd_dat
  4825  123E                     l2697:
  4826                           
  4827                           ;lcd.c: 83:    i++;
  4828  123E  3001               	movlw	1
  4829  123F  00F4               	movwf	??_lcd_str
  4830  1240  0874               	movf	??_lcd_str,w
  4831  1241  07F5               	addwf	lcd_str@i,f
  4832  1242                     l2699:
  4833                           
  4834                           ;lcd.c: 80:  while(str[i] != 0 )
  4835  1242  0875               	movf	lcd_str@i,w
  4836  1243  0772               	addwf	lcd_str@str,w
  4837  1244  0084               	movwf	4
  4838  1245  0873               	movf	lcd_str@str+1,w
  4839  1246  1803               	skipnc
  4840  1247  0A73               	incf	lcd_str@str+1,w
  4841  1248  1283               	bcf	3,5	;RP0=0, select bank0
  4842  1249  1303               	bcf	3,6	;RP1=0, select bank0
  4843  124A  00FF               	movwf	btemp+1
  4844  124B  160A  118A  2000  160A  118A  	fcall	stringtab
  4845  1250  3A00               	xorlw	0
  4846  1251  1D03               	skipz
  4847  1252  2A54               	goto	u3971
  4848  1253  2A55               	goto	u3970
  4849  1254                     u3971:
  4850  1254  2A2D               	goto	l2695
  4851  1255                     u3970:
  4852  1255                     l223:
  4853  1255  0008               	return
  4854  1256                     __end_of_lcd_str:
  4855                           
  4856                           	psect	text12
  4857  11A0                     __ptext12:	
  4858 ;; *************** function _lcd_dat *****************
  4859 ;; Defined at:
  4860 ;;		line 46 in file "lcd.c"
  4861 ;; Parameters:    Size  Location     Type
  4862 ;;  val             1    wreg     unsigned char 
  4863 ;; Auto vars:     Size  Location     Type
  4864 ;;  val             1    1[COMMON] unsigned char 
  4865 ;; Return value:  Size  Location     Type
  4866 ;;                  1    wreg      void 
  4867 ;; Registers used:
  4868 ;;		wreg, status,2, status,0, pclath, cstack
  4869 ;; Tracked objects:
  4870 ;;		On entry : 0/0
  4871 ;;		On exit  : 0/0
  4872 ;;		Unchanged: 0/0
  4873 ;; Data sizes:     COMMON   BANK0   BANK1   BANK3   BANK2
  4874 ;;      Params:         0       0       0       0       0
  4875 ;;      Locals:         1       0       0       0       0
  4876 ;;      Temps:          0       0       0       0       0
  4877 ;;      Totals:         1       0       0       0       0
  4878 ;;Total ram usage:        1 bytes
  4879 ;; Hardware stack levels used: 1
  4880 ;; Hardware stack levels required when called: 1
  4881 ;; This function calls:
  4882 ;;		_lcd_wr
  4883 ;; This function is called by:
  4884 ;;		_lcd_str
  4885 ;; This function uses a non-reentrant model
  4886 ;;
  4887                           
  4888                           
  4889                           ;psect for function _lcd_dat
  4890  11A0                     _lcd_dat:
  4891                           
  4892                           ;incstack = 0
  4893                           ; Regs used in _lcd_dat: [wreg+status,2+status,0+pclath+cstack]
  4894                           ;lcd_dat@val stored from wreg
  4895  11A0  00F1               	movwf	lcd_dat@val
  4896  11A1                     l1995:
  4897                           
  4898                           ;lcd.c: 46: void lcd_dat(unsigned char val);lcd.c: 47: {;lcd.c: 48:  PORTEbits.RE1=1;
  4899  11A1  1283               	bcf	3,5	;RP0=0, select bank0
  4900  11A2  1303               	bcf	3,6	;RP1=0, select bank0
  4901  11A3  1489               	bsf	9,1	;volatile
  4902  11A4                     l1997:
  4903                           
  4904                           ;lcd.c: 49:         lcd_wr(val);
  4905  11A4  0871               	movf	lcd_dat@val,w
  4906  11A5  160A  118A  2171  160A  118A  	fcall	_lcd_wr
  4907  11AA                     l1999:
  4908                           
  4909                           ;lcd.c: 50:         PORTEbits.RE0=1;
  4910  11AA  1283               	bcf	3,5	;RP0=0, select bank0
  4911  11AB  1303               	bcf	3,6	;RP1=0, select bank0
  4912  11AC  1409               	bsf	9,0	;volatile
  4913  11AD                     l2001:
  4914                           
  4915                           ;lcd.c: 52:         PORTEbits.RE1=0;
  4916  11AD  1089               	bcf	9,1	;volatile
  4917  11AE                     l2003:
  4918                           
  4919                           ;lcd.c: 54:  PORTEbits.RE1=1;
  4920  11AE  1489               	bsf	9,1	;volatile
  4921  11AF                     l214:
  4922  11AF  0008               	return
  4923  11B0                     __end_of_lcd_dat:
  4924                           
  4925                           	psect	text13
  4926  1190                     __ptext13:	
  4927 ;; *************** function _lcd_cmd *****************
  4928 ;; Defined at:
  4929 ;;		line 35 in file "lcd.c"
  4930 ;; Parameters:    Size  Location     Type
  4931 ;;  val             1    wreg     unsigned char 
  4932 ;; Auto vars:     Size  Location     Type
  4933 ;;  val             1    1[COMMON] unsigned char 
  4934 ;; Return value:  Size  Location     Type
  4935 ;;                  1    wreg      void 
  4936 ;; Registers used:
  4937 ;;		wreg, status,2, status,0, pclath, cstack
  4938 ;; Tracked objects:
  4939 ;;		On entry : 0/0
  4940 ;;		On exit  : 0/0
  4941 ;;		Unchanged: 0/0
  4942 ;; Data sizes:     COMMON   BANK0   BANK1   BANK3   BANK2
  4943 ;;      Params:         0       0       0       0       0
  4944 ;;      Locals:         1       0       0       0       0
  4945 ;;      Temps:          0       0       0       0       0
  4946 ;;      Totals:         1       0       0       0       0
  4947 ;;Total ram usage:        1 bytes
  4948 ;; Hardware stack levels used: 1
  4949 ;; Hardware stack levels required when called: 1
  4950 ;; This function calls:
  4951 ;;		_lcd_wr
  4952 ;; This function is called by:
  4953 ;;		_imprimirValoresLcd
  4954 ;;		_main
  4955 ;;		_lcd_init
  4956 ;; This function uses a non-reentrant model
  4957 ;;
  4958                           
  4959                           
  4960                           ;psect for function _lcd_cmd
  4961  1190                     _lcd_cmd:
  4962                           
  4963                           ;incstack = 0
  4964                           ; Regs used in _lcd_cmd: [wreg+status,2+status,0+pclath+cstack]
  4965                           ;lcd_cmd@val stored from wreg
  4966  1190  00F1               	movwf	lcd_cmd@val
  4967  1191                     l2621:
  4968                           
  4969                           ;lcd.c: 35: void lcd_cmd(unsigned char val);lcd.c: 36: {;lcd.c: 37:  PORTEbits.RE1=1;
  4970  1191  1283               	bcf	3,5	;RP0=0, select bank0
  4971  1192  1303               	bcf	3,6	;RP1=0, select bank0
  4972  1193  1489               	bsf	9,1	;volatile
  4973  1194                     l2623:
  4974                           
  4975                           ;lcd.c: 38:         lcd_wr(val);
  4976  1194  0871               	movf	lcd_cmd@val,w
  4977  1195  160A  118A  2171  160A  118A  	fcall	_lcd_wr
  4978  119A                     l2625:
  4979                           
  4980                           ;lcd.c: 39:         PORTEbits.RE0=0;
  4981  119A  1283               	bcf	3,5	;RP0=0, select bank0
  4982  119B  1303               	bcf	3,6	;RP1=0, select bank0
  4983  119C  1009               	bcf	9,0	;volatile
  4984  119D                     l2627:
  4985                           
  4986                           ;lcd.c: 41:         PORTEbits.RE1=0;
  4987  119D  1089               	bcf	9,1	;volatile
  4988  119E                     l2629:
  4989                           
  4990                           ;lcd.c: 43:  PORTEbits.RE1=1;
  4991  119E  1489               	bsf	9,1	;volatile
  4992  119F                     l211:
  4993  119F  0008               	return
  4994  11A0                     __end_of_lcd_cmd:
  4995                           
  4996                           	psect	text14
  4997  1171                     __ptext14:	
  4998 ;; *************** function _lcd_wr *****************
  4999 ;; Defined at:
  5000 ;;		line 30 in file "lcd.c"
  5001 ;; Parameters:    Size  Location     Type
  5002 ;;  val             1    wreg     unsigned char 
  5003 ;; Auto vars:     Size  Location     Type
  5004 ;;  val             1    0[COMMON] unsigned char 
  5005 ;; Return value:  Size  Location     Type
  5006 ;;                  1    wreg      void 
  5007 ;; Registers used:
  5008 ;;		wreg
  5009 ;; Tracked objects:
  5010 ;;		On entry : 0/0
  5011 ;;		On exit  : 0/0
  5012 ;;		Unchanged: 0/0
  5013 ;; Data sizes:     COMMON   BANK0   BANK1   BANK3   BANK2
  5014 ;;      Params:         0       0       0       0       0
  5015 ;;      Locals:         1       0       0       0       0
  5016 ;;      Temps:          0       0       0       0       0
  5017 ;;      Totals:         1       0       0       0       0
  5018 ;;Total ram usage:        1 bytes
  5019 ;; Hardware stack levels used: 1
  5020 ;; This function calls:
  5021 ;;		Nothing
  5022 ;; This function is called by:
  5023 ;;		_lcd_cmd
  5024 ;;		_lcd_dat
  5025 ;; This function uses a non-reentrant model
  5026 ;;
  5027                           
  5028                           
  5029                           ;psect for function _lcd_wr
  5030  1171                     _lcd_wr:
  5031                           
  5032                           ;incstack = 0
  5033                           ; Regs used in _lcd_wr: [wreg]
  5034                           ;lcd_wr@val stored from wreg
  5035  1171  00F0               	movwf	lcd_wr@val
  5036  1172                     l1937:
  5037                           
  5038                           ;lcd.c: 30: void lcd_wr(unsigned char val);lcd.c: 31: {;lcd.c: 32:   PORTD=val;
  5039  1172  0870               	movf	lcd_wr@val,w
  5040  1173  1283               	bcf	3,5	;RP0=0, select bank0
  5041  1174  1303               	bcf	3,6	;RP1=0, select bank0
  5042  1175  0088               	movwf	8	;volatile
  5043  1176                     l208:
  5044  1176  0008               	return
  5045  1177                     __end_of_lcd_wr:
  5046                           
  5047                           	psect	text15
  5048  080C                     __ptext15:	
  5049 ;; *************** function ___awmod *****************
  5050 ;; Defined at:
  5051 ;;		line 5 in file "C:\Program Files\Microchip\xc8\v2.32\pic\sources\c90\common\awmod.c"
  5052 ;; Parameters:    Size  Location     Type
  5053 ;;  divisor         2    0[COMMON] int 
  5054 ;;  dividend        2    2[COMMON] int 
  5055 ;; Auto vars:     Size  Location     Type
  5056 ;;  sign            1    6[COMMON] unsigned char 
  5057 ;;  counter         1    5[COMMON] unsigned char 
  5058 ;; Return value:  Size  Location     Type
  5059 ;;                  2    0[COMMON] int 
  5060 ;; Registers used:
  5061 ;;		wreg, status,2, status,0
  5062 ;; Tracked objects:
  5063 ;;		On entry : 0/0
  5064 ;;		On exit  : 0/0
  5065 ;;		Unchanged: 0/0
  5066 ;; Data sizes:     COMMON   BANK0   BANK1   BANK3   BANK2
  5067 ;;      Params:         4       0       0       0       0
  5068 ;;      Locals:         2       0       0       0       0
  5069 ;;      Temps:          1       0       0       0       0
  5070 ;;      Totals:         7       0       0       0       0
  5071 ;;Total ram usage:        7 bytes
  5072 ;; Hardware stack levels used: 1
  5073 ;; This function calls:
  5074 ;;		Nothing
  5075 ;; This function is called by:
  5076 ;;		_imprimirValoresLcd
  5077 ;; This function uses a non-reentrant model
  5078 ;;
  5079                           
  5080                           
  5081                           ;psect for function ___awmod
  5082  080C                     ___awmod:
  5083  080C                     l2799:	
  5084                           ;incstack = 0
  5085                           ; Regs used in ___awmod: [wreg+status,2+status,0]
  5086                           
  5087  080C  01F6               	clrf	___awmod@sign
  5088  080D                     l2801:
  5089  080D  1FF3               	btfss	___awmod@dividend+1,7
  5090  080E  2810               	goto	u4231
  5091  080F  2811               	goto	u4230
  5092  0810                     u4231:
  5093  0810  2818               	goto	l2807
  5094  0811                     u4230:
  5095  0811                     l2803:
  5096  0811  09F2               	comf	___awmod@dividend,f
  5097  0812  09F3               	comf	___awmod@dividend+1,f
  5098  0813  0AF2               	incf	___awmod@dividend,f
  5099  0814  1903               	skipnz
  5100  0815  0AF3               	incf	___awmod@dividend+1,f
  5101  0816                     l2805:
  5102  0816  01F6               	clrf	___awmod@sign
  5103  0817  0AF6               	incf	___awmod@sign,f
  5104  0818                     l2807:
  5105  0818  1FF1               	btfss	___awmod@divisor+1,7
  5106  0819  281B               	goto	u4241
  5107  081A  281C               	goto	u4240
  5108  081B                     u4241:
  5109  081B  2821               	goto	l2811
  5110  081C                     u4240:
  5111  081C                     l2809:
  5112  081C  09F0               	comf	___awmod@divisor,f
  5113  081D  09F1               	comf	___awmod@divisor+1,f
  5114  081E  0AF0               	incf	___awmod@divisor,f
  5115  081F  1903               	skipnz
  5116  0820  0AF1               	incf	___awmod@divisor+1,f
  5117  0821                     l2811:
  5118  0821  0870               	movf	___awmod@divisor,w
  5119  0822  0471               	iorwf	___awmod@divisor+1,w
  5120  0823  1903               	btfsc	3,2
  5121  0824  2826               	goto	u4251
  5122  0825  2827               	goto	u4250
  5123  0826                     u4251:
  5124  0826  2856               	goto	l2829
  5125  0827                     u4250:
  5126  0827                     l2813:
  5127  0827  01F5               	clrf	___awmod@counter
  5128  0828  0AF5               	incf	___awmod@counter,f
  5129  0829  2835               	goto	l2819
  5130  082A                     l2815:
  5131  082A  3001               	movlw	1
  5132  082B                     u4265:
  5133  082B  1003               	clrc
  5134  082C  0DF0               	rlf	___awmod@divisor,f
  5135  082D  0DF1               	rlf	___awmod@divisor+1,f
  5136  082E  3EFF               	addlw	-1
  5137  082F  1D03               	skipz
  5138  0830  282B               	goto	u4265
  5139  0831                     l2817:
  5140  0831  3001               	movlw	1
  5141  0832  00F4               	movwf	??___awmod
  5142  0833  0874               	movf	??___awmod,w
  5143  0834  07F5               	addwf	___awmod@counter,f
  5144  0835                     l2819:
  5145  0835  1FF1               	btfss	___awmod@divisor+1,7
  5146  0836  2838               	goto	u4271
  5147  0837  2839               	goto	u4270
  5148  0838                     u4271:
  5149  0838  282A               	goto	l2815
  5150  0839                     u4270:
  5151  0839                     l2821:
  5152  0839  0871               	movf	___awmod@divisor+1,w
  5153  083A  0273               	subwf	___awmod@dividend+1,w
  5154  083B  1D03               	skipz
  5155  083C  283F               	goto	u4285
  5156  083D  0870               	movf	___awmod@divisor,w
  5157  083E  0272               	subwf	___awmod@dividend,w
  5158  083F                     u4285:
  5159  083F  1C03               	skipc
  5160  0840  2842               	goto	u4281
  5161  0841  2843               	goto	u4280
  5162  0842                     u4281:
  5163  0842  2849               	goto	l2825
  5164  0843                     u4280:
  5165  0843                     l2823:
  5166  0843  0870               	movf	___awmod@divisor,w
  5167  0844  02F2               	subwf	___awmod@dividend,f
  5168  0845  0871               	movf	___awmod@divisor+1,w
  5169  0846  1C03               	skipc
  5170  0847  03F3               	decf	___awmod@dividend+1,f
  5171  0848  02F3               	subwf	___awmod@dividend+1,f
  5172  0849                     l2825:
  5173  0849  3001               	movlw	1
  5174  084A                     u4295:
  5175  084A  1003               	clrc
  5176  084B  0CF1               	rrf	___awmod@divisor+1,f
  5177  084C  0CF0               	rrf	___awmod@divisor,f
  5178  084D  3EFF               	addlw	-1
  5179  084E  1D03               	skipz
  5180  084F  284A               	goto	u4295
  5181  0850                     l2827:
  5182  0850  3001               	movlw	1
  5183  0851  02F5               	subwf	___awmod@counter,f
  5184  0852  1D03               	btfss	3,2
  5185  0853  2855               	goto	u4301
  5186  0854  2856               	goto	u4300
  5187  0855                     u4301:
  5188  0855  2839               	goto	l2821
  5189  0856                     u4300:
  5190  0856                     l2829:
  5191  0856  0876               	movf	___awmod@sign,w
  5192  0857  1903               	btfsc	3,2
  5193  0858  285A               	goto	u4311
  5194  0859  285B               	goto	u4310
  5195  085A                     u4311:
  5196  085A  2860               	goto	l2833
  5197  085B                     u4310:
  5198  085B                     l2831:
  5199  085B  09F2               	comf	___awmod@dividend,f
  5200  085C  09F3               	comf	___awmod@dividend+1,f
  5201  085D  0AF2               	incf	___awmod@dividend,f
  5202  085E  1903               	skipnz
  5203  085F  0AF3               	incf	___awmod@dividend+1,f
  5204  0860                     l2833:
  5205  0860  0873               	movf	___awmod@dividend+1,w
  5206  0861  00F1               	movwf	?___awmod+1
  5207  0862  0872               	movf	___awmod@dividend,w
  5208  0863  00F0               	movwf	?___awmod
  5209  0864                     l503:
  5210  0864  0008               	return
  5211  0865                     __end_of___awmod:
  5212                           
  5213                           	psect	text16
  5214  0012                     __ptext16:	
  5215 ;; *************** function ___awdiv *****************
  5216 ;; Defined at:
  5217 ;;		line 5 in file "C:\Program Files\Microchip\xc8\v2.32\pic\sources\c90\common\awdiv.c"
  5218 ;; Parameters:    Size  Location     Type
  5219 ;;  divisor         2    7[COMMON] int 
  5220 ;;  dividend        2    9[COMMON] int 
  5221 ;; Auto vars:     Size  Location     Type
  5222 ;;  quotient        2    2[BANK0 ] int 
  5223 ;;  sign            1    1[BANK0 ] unsigned char 
  5224 ;;  counter         1    0[BANK0 ] unsigned char 
  5225 ;; Return value:  Size  Location     Type
  5226 ;;                  2    7[COMMON] int 
  5227 ;; Registers used:
  5228 ;;		wreg, status,2, status,0
  5229 ;; Tracked objects:
  5230 ;;		On entry : 0/0
  5231 ;;		On exit  : 0/0
  5232 ;;		Unchanged: 0/0
  5233 ;; Data sizes:     COMMON   BANK0   BANK1   BANK3   BANK2
  5234 ;;      Params:         4       0       0       0       0
  5235 ;;      Locals:         0       4       0       0       0
  5236 ;;      Temps:          1       0       0       0       0
  5237 ;;      Totals:         5       4       0       0       0
  5238 ;;Total ram usage:        9 bytes
  5239 ;; Hardware stack levels used: 1
  5240 ;; This function calls:
  5241 ;;		Nothing
  5242 ;; This function is called by:
  5243 ;;		_imprimirValoresLcd
  5244 ;;		_realizarCalculo
  5245 ;; This function uses a non-reentrant model
  5246 ;;
  5247                           
  5248                           
  5249                           ;psect for function ___awdiv
  5250  0012                     ___awdiv:
  5251  0012                     l2755:	
  5252                           ;incstack = 0
  5253                           ; Regs used in ___awdiv: [wreg+status,2+status,0]
  5254                           
  5255  0012  1283               	bcf	3,5	;RP0=0, select bank0
  5256  0013  1303               	bcf	3,6	;RP1=0, select bank0
  5257  0014  01A1               	clrf	___awdiv@sign
  5258  0015                     l2757:
  5259  0015  1FF8               	btfss	___awdiv@divisor+1,7
  5260  0016  2818               	goto	u4131
  5261  0017  2819               	goto	u4130
  5262  0018                     u4131:
  5263  0018  2820               	goto	l2763
  5264  0019                     u4130:
  5265  0019                     l2759:
  5266  0019  09F7               	comf	___awdiv@divisor,f
  5267  001A  09F8               	comf	___awdiv@divisor+1,f
  5268  001B  0AF7               	incf	___awdiv@divisor,f
  5269  001C  1903               	skipnz
  5270  001D  0AF8               	incf	___awdiv@divisor+1,f
  5271  001E                     l2761:
  5272  001E  01A1               	clrf	___awdiv@sign
  5273  001F  0AA1               	incf	___awdiv@sign,f
  5274  0020                     l2763:
  5275  0020  1FFA               	btfss	___awdiv@dividend+1,7
  5276  0021  2823               	goto	u4141
  5277  0022  2824               	goto	u4140
  5278  0023                     u4141:
  5279  0023  282D               	goto	l2769
  5280  0024                     u4140:
  5281  0024                     l2765:
  5282  0024  09F9               	comf	___awdiv@dividend,f
  5283  0025  09FA               	comf	___awdiv@dividend+1,f
  5284  0026  0AF9               	incf	___awdiv@dividend,f
  5285  0027  1903               	skipnz
  5286  0028  0AFA               	incf	___awdiv@dividend+1,f
  5287  0029                     l2767:
  5288  0029  3001               	movlw	1
  5289  002A  00FB               	movwf	??___awdiv
  5290  002B  087B               	movf	??___awdiv,w
  5291  002C  06A1               	xorwf	___awdiv@sign,f
  5292  002D                     l2769:
  5293  002D  01A2               	clrf	___awdiv@quotient
  5294  002E  01A3               	clrf	___awdiv@quotient+1
  5295  002F                     l2771:
  5296  002F  0877               	movf	___awdiv@divisor,w
  5297  0030  0478               	iorwf	___awdiv@divisor+1,w
  5298  0031  1903               	btfsc	3,2
  5299  0032  2834               	goto	u4151
  5300  0033  2835               	goto	u4150
  5301  0034                     u4151:
  5302  0034  286C               	goto	l2791
  5303  0035                     u4150:
  5304  0035                     l2773:
  5305  0035  01A0               	clrf	___awdiv@counter
  5306  0036  0AA0               	incf	___awdiv@counter,f
  5307  0037  2843               	goto	l2779
  5308  0038                     l2775:
  5309  0038  3001               	movlw	1
  5310  0039                     u4165:
  5311  0039  1003               	clrc
  5312  003A  0DF7               	rlf	___awdiv@divisor,f
  5313  003B  0DF8               	rlf	___awdiv@divisor+1,f
  5314  003C  3EFF               	addlw	-1
  5315  003D  1D03               	skipz
  5316  003E  2839               	goto	u4165
  5317  003F                     l2777:
  5318  003F  3001               	movlw	1
  5319  0040  00FB               	movwf	??___awdiv
  5320  0041  087B               	movf	??___awdiv,w
  5321  0042  07A0               	addwf	___awdiv@counter,f
  5322  0043                     l2779:
  5323  0043  1FF8               	btfss	___awdiv@divisor+1,7
  5324  0044  2846               	goto	u4171
  5325  0045  2847               	goto	u4170
  5326  0046                     u4171:
  5327  0046  2838               	goto	l2775
  5328  0047                     u4170:
  5329  0047                     l2781:
  5330  0047  3001               	movlw	1
  5331  0048                     u4185:
  5332  0048  1003               	clrc
  5333  0049  0DA2               	rlf	___awdiv@quotient,f
  5334  004A  0DA3               	rlf	___awdiv@quotient+1,f
  5335  004B  3EFF               	addlw	-1
  5336  004C  1D03               	skipz
  5337  004D  2848               	goto	u4185
  5338  004E  0878               	movf	___awdiv@divisor+1,w
  5339  004F  027A               	subwf	___awdiv@dividend+1,w
  5340  0050  1D03               	skipz
  5341  0051  2854               	goto	u4195
  5342  0052  0877               	movf	___awdiv@divisor,w
  5343  0053  0279               	subwf	___awdiv@dividend,w
  5344  0054                     u4195:
  5345  0054  1C03               	skipc
  5346  0055  2857               	goto	u4191
  5347  0056  2858               	goto	u4190
  5348  0057                     u4191:
  5349  0057  285F               	goto	l2787
  5350  0058                     u4190:
  5351  0058                     l2783:
  5352  0058  0877               	movf	___awdiv@divisor,w
  5353  0059  02F9               	subwf	___awdiv@dividend,f
  5354  005A  0878               	movf	___awdiv@divisor+1,w
  5355  005B  1C03               	skipc
  5356  005C  03FA               	decf	___awdiv@dividend+1,f
  5357  005D  02FA               	subwf	___awdiv@dividend+1,f
  5358  005E                     l2785:
  5359  005E  1422               	bsf	___awdiv@quotient,0
  5360  005F                     l2787:
  5361  005F  3001               	movlw	1
  5362  0060                     u4205:
  5363  0060  1003               	clrc
  5364  0061  0CF8               	rrf	___awdiv@divisor+1,f
  5365  0062  0CF7               	rrf	___awdiv@divisor,f
  5366  0063  3EFF               	addlw	-1
  5367  0064  1D03               	skipz
  5368  0065  2860               	goto	u4205
  5369  0066                     l2789:
  5370  0066  3001               	movlw	1
  5371  0067  02A0               	subwf	___awdiv@counter,f
  5372  0068  1D03               	btfss	3,2
  5373  0069  286B               	goto	u4211
  5374  006A  286C               	goto	u4210
  5375  006B                     u4211:
  5376  006B  2847               	goto	l2781
  5377  006C                     u4210:
  5378  006C                     l2791:
  5379  006C  0821               	movf	___awdiv@sign,w
  5380  006D  1903               	btfsc	3,2
  5381  006E  2870               	goto	u4221
  5382  006F  2871               	goto	u4220
  5383  0070                     u4221:
  5384  0070  2876               	goto	l2795
  5385  0071                     u4220:
  5386  0071                     l2793:
  5387  0071  09A2               	comf	___awdiv@quotient,f
  5388  0072  09A3               	comf	___awdiv@quotient+1,f
  5389  0073  0AA2               	incf	___awdiv@quotient,f
  5390  0074  1903               	skipnz
  5391  0075  0AA3               	incf	___awdiv@quotient+1,f
  5392  0076                     l2795:
  5393  0076  0823               	movf	___awdiv@quotient+1,w
  5394  0077  00F8               	movwf	?___awdiv+1
  5395  0078  0822               	movf	___awdiv@quotient,w
  5396  0079  00F7               	movwf	?___awdiv
  5397  007A                     l490:
  5398  007A  0008               	return
  5399  007B                     __end_of___awdiv:
  5400                           
  5401                           	psect	text17
  5402  1513                     __ptext17:	
  5403 ;; *************** function _controlarValores *****************
  5404 ;; Defined at:
  5405 ;;		line 39 in file "main.c"
  5406 ;; Parameters:    Size  Location     Type
  5407 ;;		None
  5408 ;; Auto vars:     Size  Location     Type
  5409 ;;		None
  5410 ;; Return value:  Size  Location     Type
  5411 ;;                  1    wreg      void 
  5412 ;; Registers used:
  5413 ;;		wreg, status,2, status,0
  5414 ;; Tracked objects:
  5415 ;;		On entry : 0/0
  5416 ;;		On exit  : 0/0
  5417 ;;		Unchanged: 0/0
  5418 ;; Data sizes:     COMMON   BANK0   BANK1   BANK3   BANK2
  5419 ;;      Params:         0       0       0       0       0
  5420 ;;      Locals:         0       0       0       0       0
  5421 ;;      Temps:          1       0       0       0       0
  5422 ;;      Totals:         1       0       0       0       0
  5423 ;;Total ram usage:        1 bytes
  5424 ;; Hardware stack levels used: 1
  5425 ;; This function calls:
  5426 ;;		Nothing
  5427 ;; This function is called by:
  5428 ;;		_main
  5429 ;; This function uses a non-reentrant model
  5430 ;;
  5431                           
  5432                           
  5433                           ;psect for function _controlarValores
  5434  1513                     _controlarValores:
  5435  1513                     l2843:	
  5436                           ;incstack = 0
  5437                           ; Regs used in _controlarValores: [wreg+status,2+status,0]
  5438                           
  5439                           
  5440                           ;main.c: 40:     static char S1Anterior;;main.c: 41:     static char S1Atual;;main.c: 42
      +                          :     static char S2Anterior;;main.c: 43:     static char S2Atual;;main.c: 44:     stati
      +                          c char S3Anterior;;main.c: 45:     static char S3Atual;;main.c: 46:     static char S4An
      +                          terior;;main.c: 47:     static char S4Atual;;main.c: 49:     S1Atual = RB0;
  5441  1513  3000               	movlw	0
  5442  1514  1283               	bcf	3,5	;RP0=0, select bank0
  5443  1515  1303               	bcf	3,6	;RP1=0, select bank0
  5444  1516  1806               	btfsc	6,0	;volatile
  5445  1517  3001               	movlw	1
  5446  1518  00EF               	movwf	controlarValores@S1Atual
  5447  1519                     l2845:
  5448                           
  5449                           ;main.c: 51:     if((S1Atual)&&(!S1Anterior)){
  5450  1519  086F               	movf	controlarValores@S1Atual,w
  5451  151A  1903               	btfsc	3,2
  5452  151B  2D1D               	goto	u4321
  5453  151C  2D1E               	goto	u4320
  5454  151D                     u4321:
  5455  151D  2D38               	goto	l87
  5456  151E                     u4320:
  5457  151E                     l2847:
  5458  151E  1683               	bsf	3,5	;RP0=1, select bank1
  5459  151F  1303               	bcf	3,6	;RP1=0, select bank1
  5460  1520  0867               	movf	controlarValores@S1Anterior^(0+128),w
  5461  1521  1D03               	btfss	3,2
  5462  1522  2D24               	goto	u4331
  5463  1523  2D25               	goto	u4330
  5464  1524                     u4331:
  5465  1524  2D38               	goto	l87
  5466  1525                     u4330:
  5467  1525                     l2849:
  5468                           
  5469                           ;main.c: 52:         if (menu != 1){
  5470  1525  036E               	decf	_menu^(0+128),w
  5471  1526  046F               	iorwf	(_menu+1)^(0+128),w
  5472  1527  1903               	btfsc	3,2
  5473  1528  2D2A               	goto	u4341
  5474  1529  2D2B               	goto	u4340
  5475  152A                     u4341:
  5476  152A  2D32               	goto	l2853
  5477  152B                     u4340:
  5478  152B                     l2851:
  5479                           
  5480                           ;main.c: 53:             setPoint += 100;
  5481  152B  3064               	movlw	100
  5482  152C  07EC               	addwf	_setPoint^(0+128),f
  5483  152D  1803               	skipnc
  5484  152E  0AED               	incf	(_setPoint+1)^(0+128),f
  5485  152F  3000               	movlw	0
  5486  1530  07ED               	addwf	(_setPoint+1)^(0+128),f
  5487                           
  5488                           ;main.c: 54:         } else {
  5489  1531  2D38               	goto	l87
  5490  1532                     l2853:
  5491                           
  5492                           ;main.c: 55:             kp += 10;
  5493  1532  300A               	movlw	10
  5494  1533  07EA               	addwf	_kp^(0+128),f
  5495  1534  1803               	skipnc
  5496  1535  0AEB               	incf	(_kp+1)^(0+128),f
  5497  1536  3000               	movlw	0
  5498  1537  07EB               	addwf	(_kp+1)^(0+128),f
  5499  1538                     l87:	
  5500                           ;main.c: 57:     }
  5501                           
  5502                           
  5503                           ;main.c: 59:     S1Anterior = S1Atual;
  5504  1538  1283               	bcf	3,5	;RP0=0, select bank0
  5505  1539  086F               	movf	controlarValores@S1Atual,w
  5506  153A  00F0               	movwf	??_controlarValores
  5507  153B  0870               	movf	??_controlarValores,w
  5508  153C  1683               	bsf	3,5	;RP0=1, select bank1
  5509  153D  1303               	bcf	3,6	;RP1=0, select bank1
  5510  153E  00E7               	movwf	controlarValores@S1Anterior^(0+128)
  5511  153F                     l2855:
  5512                           
  5513                           ;main.c: 60:     S2Atual = RB1;
  5514  153F  3000               	movlw	0
  5515  1540  1283               	bcf	3,5	;RP0=0, select bank0
  5516  1541  1303               	bcf	3,6	;RP1=0, select bank0
  5517  1542  1886               	btfsc	6,1	;volatile
  5518  1543  3001               	movlw	1
  5519  1544  1683               	bsf	3,5	;RP0=1, select bank1
  5520  1545  1303               	bcf	3,6	;RP1=0, select bank1
  5521  1546  00E5               	movwf	controlarValores@S2Atual^(0+128)
  5522  1547                     l2857:
  5523                           
  5524                           ;main.c: 62:     if((S2Atual)&&(!S2Anterior)){
  5525  1547  0865               	movf	controlarValores@S2Atual^(0+128),w
  5526  1548  1903               	btfsc	3,2
  5527  1549  2D4B               	goto	u4351
  5528  154A  2D4C               	goto	u4350
  5529  154B                     u4351:
  5530  154B  2D64               	goto	l90
  5531  154C                     u4350:
  5532  154C                     l2859:
  5533  154C  0866               	movf	controlarValores@S2Anterior^(0+128),w
  5534  154D  1D03               	btfss	3,2
  5535  154E  2D50               	goto	u4361
  5536  154F  2D51               	goto	u4360
  5537  1550                     u4361:
  5538  1550  2D64               	goto	l90
  5539  1551                     u4360:
  5540  1551                     l2861:
  5541                           
  5542                           ;main.c: 63:         if (menu != 1){
  5543  1551  036E               	decf	_menu^(0+128),w
  5544  1552  046F               	iorwf	(_menu+1)^(0+128),w
  5545  1553  1903               	btfsc	3,2
  5546  1554  2D56               	goto	u4371
  5547  1555  2D57               	goto	u4370
  5548  1556                     u4371:
  5549  1556  2D5E               	goto	l2865
  5550  1557                     u4370:
  5551  1557                     l2863:
  5552                           
  5553                           ;main.c: 64:             setPoint -= 100;
  5554  1557  309C               	movlw	156
  5555  1558  07EC               	addwf	_setPoint^(0+128),f
  5556  1559  1803               	skipnc
  5557  155A  0AED               	incf	(_setPoint+1)^(0+128),f
  5558  155B  30FF               	movlw	255
  5559  155C  07ED               	addwf	(_setPoint+1)^(0+128),f
  5560                           
  5561                           ;main.c: 65:         } else {
  5562  155D  2D64               	goto	l90
  5563  155E                     l2865:
  5564                           
  5565                           ;main.c: 66:             kp -= 10;
  5566  155E  30F6               	movlw	246
  5567  155F  07EA               	addwf	_kp^(0+128),f
  5568  1560  1803               	skipnc
  5569  1561  0AEB               	incf	(_kp+1)^(0+128),f
  5570  1562  30FF               	movlw	255
  5571  1563  07EB               	addwf	(_kp+1)^(0+128),f
  5572  1564                     l90:	
  5573                           ;main.c: 68:     }
  5574                           
  5575                           
  5576                           ;main.c: 70:     S2Anterior = S2Atual;
  5577  1564  0865               	movf	controlarValores@S2Atual^(0+128),w
  5578  1565  00F0               	movwf	??_controlarValores
  5579  1566  0870               	movf	??_controlarValores,w
  5580  1567  00E6               	movwf	controlarValores@S2Anterior^(0+128)
  5581  1568                     l2867:
  5582                           
  5583                           ;main.c: 71:     S3Atual = RB2;
  5584  1568  3000               	movlw	0
  5585  1569  1283               	bcf	3,5	;RP0=0, select bank0
  5586  156A  1303               	bcf	3,6	;RP1=0, select bank0
  5587  156B  1906               	btfsc	6,2	;volatile
  5588  156C  3001               	movlw	1
  5589  156D  1683               	bsf	3,5	;RP0=1, select bank1
  5590  156E  1303               	bcf	3,6	;RP1=0, select bank1
  5591  156F  00E3               	movwf	controlarValores@S3Atual^(0+128)
  5592  1570                     l2869:
  5593                           
  5594                           ;main.c: 73:     if((S3Atual)&&(!S3Anterior)){
  5595  1570  0863               	movf	controlarValores@S3Atual^(0+128),w
  5596  1571  1903               	btfsc	3,2
  5597  1572  2D74               	goto	u4381
  5598  1573  2D75               	goto	u4380
  5599  1574                     u4381:
  5600  1574  2D86               	goto	l93
  5601  1575                     u4380:
  5602  1575                     l2871:
  5603  1575  0864               	movf	controlarValores@S3Anterior^(0+128),w
  5604  1576  1D03               	btfss	3,2
  5605  1577  2D79               	goto	u4391
  5606  1578  2D7A               	goto	u4390
  5607  1579                     u4391:
  5608  1579  2D86               	goto	l93
  5609  157A                     u4390:
  5610  157A                     l2873:
  5611                           
  5612                           ;main.c: 74:         if (menu != 1){
  5613  157A  036E               	decf	_menu^(0+128),w
  5614  157B  046F               	iorwf	(_menu+1)^(0+128),w
  5615  157C  1903               	btfsc	3,2
  5616  157D  2D7F               	goto	u4401
  5617  157E  2D80               	goto	u4400
  5618  157F                     u4401:
  5619  157F  2D86               	goto	l93
  5620  1580                     u4400:
  5621  1580                     l2875:
  5622                           
  5623                           ;main.c: 75:             setPoint += 10;
  5624  1580  300A               	movlw	10
  5625  1581  07EC               	addwf	_setPoint^(0+128),f
  5626  1582  1803               	skipnc
  5627  1583  0AED               	incf	(_setPoint+1)^(0+128),f
  5628  1584  3000               	movlw	0
  5629  1585  07ED               	addwf	(_setPoint+1)^(0+128),f
  5630  1586                     l93:	
  5631                           ;main.c: 77:     }
  5632                           
  5633                           
  5634                           ;main.c: 79:     S3Anterior = S3Atual;
  5635  1586  0863               	movf	controlarValores@S3Atual^(0+128),w
  5636  1587  00F0               	movwf	??_controlarValores
  5637  1588  0870               	movf	??_controlarValores,w
  5638  1589  00E4               	movwf	controlarValores@S3Anterior^(0+128)
  5639  158A                     l2877:
  5640                           
  5641                           ;main.c: 80:     S4Atual = RB3;
  5642  158A  3000               	movlw	0
  5643  158B  1283               	bcf	3,5	;RP0=0, select bank0
  5644  158C  1303               	bcf	3,6	;RP1=0, select bank0
  5645  158D  1986               	btfsc	6,3	;volatile
  5646  158E  3001               	movlw	1
  5647  158F  1683               	bsf	3,5	;RP0=1, select bank1
  5648  1590  1303               	bcf	3,6	;RP1=0, select bank1
  5649  1591  00E1               	movwf	controlarValores@S4Atual^(0+128)
  5650  1592                     l2879:
  5651                           
  5652                           ;main.c: 82:     if((S4Atual)&&(!S4Anterior)){
  5653  1592  0861               	movf	controlarValores@S4Atual^(0+128),w
  5654  1593  1903               	btfsc	3,2
  5655  1594  2D96               	goto	u4411
  5656  1595  2D97               	goto	u4410
  5657  1596                     u4411:
  5658  1596  2DAB               	goto	l95
  5659  1597                     u4410:
  5660  1597                     l2881:
  5661  1597  0862               	movf	controlarValores@S4Anterior^(0+128),w
  5662  1598  1D03               	btfss	3,2
  5663  1599  2D9B               	goto	u4421
  5664  159A  2D9C               	goto	u4420
  5665  159B                     u4421:
  5666  159B  2DAB               	goto	l95
  5667  159C                     u4420:
  5668  159C                     l2883:
  5669                           
  5670                           ;main.c: 83:         if (menu == 1){
  5671  159C  036E               	decf	_menu^(0+128),w
  5672  159D  046F               	iorwf	(_menu+1)^(0+128),w
  5673  159E  1D03               	btfss	3,2
  5674  159F  2DA1               	goto	u4431
  5675  15A0  2DA2               	goto	u4430
  5676  15A1                     u4431:
  5677  15A1  2DA7               	goto	l2887
  5678  15A2                     u4430:
  5679  15A2                     l2885:
  5680                           
  5681                           ;main.c: 84:             menu = 2;
  5682  15A2  3002               	movlw	2
  5683  15A3  00EE               	movwf	_menu^(0+128)
  5684  15A4  3000               	movlw	0
  5685  15A5  00EF               	movwf	(_menu^(0+128)+1)
  5686                           
  5687                           ;main.c: 85:         } else {
  5688  15A6  2DAB               	goto	l95
  5689  15A7                     l2887:
  5690                           
  5691                           ;main.c: 86:             menu = 1;
  5692  15A7  3001               	movlw	1
  5693  15A8  00EE               	movwf	_menu^(0+128)
  5694  15A9  3000               	movlw	0
  5695  15AA  00EF               	movwf	(_menu^(0+128)+1)
  5696  15AB                     l95:	
  5697                           ;main.c: 88:     }
  5698                           
  5699                           
  5700                           ;main.c: 90:     S4Anterior = S4Atual;
  5701  15AB  0861               	movf	controlarValores@S4Atual^(0+128),w
  5702  15AC  00F0               	movwf	??_controlarValores
  5703  15AD  0870               	movf	??_controlarValores,w
  5704  15AE  00E2               	movwf	controlarValores@S4Anterior^(0+128)
  5705  15AF                     l98:
  5706  15AF  0008               	return
  5707  15B0                     __end_of_controlarValores:
  5708                           
  5709                           	psect	text18
  5710  128A                     __ptext18:	
  5711 ;; *************** function _controlarCooler *****************
  5712 ;; Defined at:
  5713 ;;		line 148 in file "main.c"
  5714 ;; Parameters:    Size  Location     Type
  5715 ;;		None
  5716 ;; Auto vars:     Size  Location     Type
  5717 ;;  cooler          2   35[BANK1 ] int 
  5718 ;; Return value:  Size  Location     Type
  5719 ;;                  1    wreg      void 
  5720 ;; Registers used:
  5721 ;;		wreg, status,2, status,0, btemp+1, pclath, cstack
  5722 ;; Tracked objects:
  5723 ;;		On entry : 0/0
  5724 ;;		On exit  : 0/0
  5725 ;;		Unchanged: 0/0
  5726 ;; Data sizes:     COMMON   BANK0   BANK1   BANK3   BANK2
  5727 ;;      Params:         0       0       0       0       0
  5728 ;;      Locals:         0       0       2       0       0
  5729 ;;      Temps:          0       0       0       0       0
  5730 ;;      Totals:         0       0       2       0       0
  5731 ;;Total ram usage:        2 bytes
  5732 ;; Hardware stack levels used: 1
  5733 ;; Hardware stack levels required when called: 3
  5734 ;; This function calls:
  5735 ;;		_ADC_Read
  5736 ;;		_PWM2_Duty
  5737 ;;		_controleMaximoMinimo
  5738 ;; This function is called by:
  5739 ;;		_main
  5740 ;; This function uses a non-reentrant model
  5741 ;;
  5742                           
  5743                           
  5744                           ;psect for function _controlarCooler
  5745  128A                     _controlarCooler:
  5746  128A                     l2945:	
  5747                           ;incstack = 0
  5748                           ; Regs used in _controlarCooler: [wreg+status,2+status,0+btemp+1+pclath+cstack]
  5749                           
  5750                           
  5751                           ;main.c: 150:     int cooler = (unsigned int)ADC_Read(1);
  5752  128A  3001               	movlw	1
  5753  128B  160A  118A  2256  160A  118A  	fcall	_ADC_Read
  5754  1290  0871               	movf	?_ADC_Read+1,w
  5755  1291  1683               	bsf	3,5	;RP0=1, select bank1
  5756  1292  1303               	bcf	3,6	;RP1=0, select bank1
  5757  1293  00C4               	movwf	(controlarCooler@cooler+1)^(0+128)
  5758  1294  0870               	movf	?_ADC_Read,w
  5759  1295  00C3               	movwf	controlarCooler@cooler^(0+128)
  5760  1296                     l2947:
  5761                           
  5762                           ;main.c: 151:     cooler = controleMaximoMinimo(cooler);
  5763  1296  0844               	movf	(controlarCooler@cooler+1)^(0+128),w
  5764  1297  1283               	bcf	3,5	;RP0=0, select bank0
  5765  1298  1303               	bcf	3,6	;RP1=0, select bank0
  5766  1299  00AD               	movwf	controleMaximoMinimo@valor+1
  5767  129A  1683               	bsf	3,5	;RP0=1, select bank1
  5768  129B  1303               	bcf	3,6	;RP1=0, select bank1
  5769  129C  0843               	movf	controlarCooler@cooler^(0+128),w
  5770  129D  1283               	bcf	3,5	;RP0=0, select bank0
  5771  129E  1303               	bcf	3,6	;RP1=0, select bank0
  5772  129F  00AC               	movwf	controleMaximoMinimo@valor
  5773  12A0  160A  118A  21C3  160A  118A  	fcall	_controleMaximoMinimo
  5774  12A5  1283               	bcf	3,5	;RP0=0, select bank0
  5775  12A6  1303               	bcf	3,6	;RP1=0, select bank0
  5776  12A7  082D               	movf	?_controleMaximoMinimo+1,w
  5777  12A8  1683               	bsf	3,5	;RP0=1, select bank1
  5778  12A9  1303               	bcf	3,6	;RP1=0, select bank1
  5779  12AA  00C4               	movwf	(controlarCooler@cooler+1)^(0+128)
  5780  12AB  1283               	bcf	3,5	;RP0=0, select bank0
  5781  12AC  1303               	bcf	3,6	;RP1=0, select bank0
  5782  12AD  082C               	movf	?_controleMaximoMinimo,w
  5783  12AE  1683               	bsf	3,5	;RP0=1, select bank1
  5784  12AF  1303               	bcf	3,6	;RP1=0, select bank1
  5785  12B0  00C3               	movwf	controlarCooler@cooler^(0+128)
  5786  12B1                     l2949:
  5787                           
  5788                           ;main.c: 152:     PWM2_Duty(cooler, 4000);
  5789  12B1  0844               	movf	(controlarCooler@cooler+1)^(0+128),w
  5790  12B2  00BE               	movwf	(PWM2_Duty@duty+1)^(0+128)
  5791  12B3  0843               	movf	controlarCooler@cooler^(0+128),w
  5792  12B4  00BD               	movwf	PWM2_Duty@duty^(0+128)
  5793  12B5  30A0               	movlw	160
  5794  12B6  00BF               	movwf	PWM2_Duty@freq^(0+128)
  5795  12B7  300F               	movlw	15
  5796  12B8  00C0               	movwf	(PWM2_Duty@freq^(0+128)+1)
  5797  12B9  120A  158A  2065  160A  118A  	fcall	_PWM2_Duty
  5798  12BE                     l116:
  5799  12BE  0008               	return
  5800  12BF                     __end_of_controlarCooler:
  5801                           
  5802                           	psect	text19
  5803  11C3                     __ptext19:	
  5804 ;; *************** function _controleMaximoMinimo *****************
  5805 ;; Defined at:
  5806 ;;		line 93 in file "main.c"
  5807 ;; Parameters:    Size  Location     Type
  5808 ;;  valor           2   12[BANK0 ] int 
  5809 ;; Auto vars:     Size  Location     Type
  5810 ;;		None
  5811 ;; Return value:  Size  Location     Type
  5812 ;;                  2   12[BANK0 ] int 
  5813 ;; Registers used:
  5814 ;;		wreg, status,2, btemp+1
  5815 ;; Tracked objects:
  5816 ;;		On entry : 0/0
  5817 ;;		On exit  : 0/0
  5818 ;;		Unchanged: 0/0
  5819 ;; Data sizes:     COMMON   BANK0   BANK1   BANK3   BANK2
  5820 ;;      Params:         0       2       0       0       0
  5821 ;;      Locals:         0       0       0       0       0
  5822 ;;      Temps:          0       0       0       0       0
  5823 ;;      Totals:         0       2       0       0       0
  5824 ;;Total ram usage:        2 bytes
  5825 ;; Hardware stack levels used: 1
  5826 ;; This function calls:
  5827 ;;		Nothing
  5828 ;; This function is called by:
  5829 ;;		_realizarCalculo
  5830 ;;		_controlarCooler
  5831 ;;		_main
  5832 ;; This function uses a non-reentrant model
  5833 ;;
  5834                           
  5835                           
  5836                           ;psect for function _controleMaximoMinimo
  5837  11C3                     _controleMaximoMinimo:
  5838  11C3                     l2609:	
  5839                           ;incstack = 0
  5840                           ; Regs used in _controleMaximoMinimo: [wreg+status,2+btemp+1]
  5841                           
  5842                           
  5843                           ;main.c: 94:     if (valor < 0){
  5844  11C3  1283               	bcf	3,5	;RP0=0, select bank0
  5845  11C4  1303               	bcf	3,6	;RP1=0, select bank0
  5846  11C5  1FAD               	btfss	controleMaximoMinimo@valor+1,7
  5847  11C6  29C8               	goto	u3881
  5848  11C7  29C9               	goto	u3880
  5849  11C8                     u3881:
  5850  11C8  29CB               	goto	l2613
  5851  11C9                     u3880:
  5852  11C9                     l2611:
  5853                           
  5854                           ;main.c: 95:         valor = 0;
  5855  11C9  01AC               	clrf	controleMaximoMinimo@valor
  5856  11CA  01AD               	clrf	controleMaximoMinimo@valor+1
  5857  11CB                     l2613:
  5858                           
  5859                           ;main.c: 98:     if (valor > 1023){
  5860  11CB  082D               	movf	controleMaximoMinimo@valor+1,w
  5861  11CC  3A80               	xorlw	128
  5862  11CD  00FF               	movwf	btemp+1
  5863  11CE  3084               	movlw	132
  5864  11CF  027F               	subwf	btemp+1,w
  5865  11D0  1D03               	skipz
  5866  11D1  29D4               	goto	u3895
  5867  11D2  3000               	movlw	0
  5868  11D3  022C               	subwf	controleMaximoMinimo@valor,w
  5869  11D4                     u3895:
  5870  11D4  1C03               	skipc
  5871  11D5  29D7               	goto	u3891
  5872  11D6  29D8               	goto	u3890
  5873  11D7                     u3891:
  5874  11D7  29DE               	goto	l2617
  5875  11D8                     u3890:
  5876  11D8                     l2615:
  5877                           
  5878                           ;main.c: 99:         valor = 1023;
  5879  11D8  30FF               	movlw	255
  5880  11D9  1283               	bcf	3,5	;RP0=0, select bank0
  5881  11DA  1303               	bcf	3,6	;RP1=0, select bank0
  5882  11DB  00AC               	movwf	controleMaximoMinimo@valor
  5883  11DC  3003               	movlw	3
  5884  11DD  00AD               	movwf	controleMaximoMinimo@valor+1
  5885  11DE                     l2617:
  5886  11DE                     l103:	
  5887                           ;main.c: 102:     return valor;
  5888                           
  5889  11DE  0008               	return
  5890  11DF                     __end_of_controleMaximoMinimo:
  5891                           
  5892                           	psect	text20
  5893  0865                     __ptext20:	
  5894 ;; *************** function _PWM2_Duty *****************
  5895 ;; Defined at:
  5896 ;;		line 29 in file "PWM.c"
  5897 ;; Parameters:    Size  Location     Type
  5898 ;;  duty            2   29[BANK1 ] unsigned int 
  5899 ;;  freq            2   31[BANK1 ] unsigned int 
  5900 ;; Auto vars:     Size  Location     Type
  5901 ;;		None
  5902 ;; Return value:  Size  Location     Type
  5903 ;;                  1    wreg      void 
  5904 ;; Registers used:
  5905 ;;		wreg, status,2, status,0, btemp+1, pclath, cstack
  5906 ;; Tracked objects:
  5907 ;;		On entry : 0/0
  5908 ;;		On exit  : 0/0
  5909 ;;		Unchanged: 0/0
  5910 ;; Data sizes:     COMMON   BANK0   BANK1   BANK3   BANK2
  5911 ;;      Params:         0       0       4       0       0
  5912 ;;      Locals:         0       0       0       0       0
  5913 ;;      Temps:          0       0       2       0       0
  5914 ;;      Totals:         0       0       6       0       0
  5915 ;;Total ram usage:        6 bytes
  5916 ;; Hardware stack levels used: 1
  5917 ;; Hardware stack levels required when called: 2
  5918 ;; This function calls:
  5919 ;;		_PWM_Init
  5920 ;;		___aldiv
  5921 ;;		___fldiv
  5922 ;;		___flmul
  5923 ;;		___fltol
  5924 ;;		___xxtofl
  5925 ;; This function is called by:
  5926 ;;		_controlarCooler
  5927 ;; This function uses a non-reentrant model
  5928 ;;
  5929                           
  5930                           
  5931                           ;psect for function _PWM2_Duty
  5932  0865                     _PWM2_Duty:
  5933  0865                     l2729:	
  5934                           ;incstack = 0
  5935                           ; Regs used in _PWM2_Duty: [wreg+status,2+status,0+btemp+1+pclath+cstack]
  5936                           
  5937                           
  5938                           ;PWM.c: 29: void PWM2_Duty(unsigned int duty, unsigned int freq);PWM.c: 30: {;PWM.c: 31:
      +                             PWM_Init(freq);
  5939  0865  1683               	bsf	3,5	;RP0=1, select bank1
  5940  0866  1303               	bcf	3,6	;RP1=0, select bank1
  5941  0867  083F               	movf	PWM2_Duty@freq^(0+128),w
  5942  0868  1283               	bcf	3,5	;RP0=0, select bank0
  5943  0869  1303               	bcf	3,6	;RP1=0, select bank0
  5944  086A  00A6               	movwf	PWM_Init@freq
  5945  086B  1683               	bsf	3,5	;RP0=1, select bank1
  5946  086C  1303               	bcf	3,6	;RP1=0, select bank1
  5947  086D  0840               	movf	(PWM2_Duty@freq+1)^(0+128),w
  5948  086E  1283               	bcf	3,5	;RP0=0, select bank0
  5949  086F  1303               	bcf	3,6	;RP1=0, select bank0
  5950  0870  00A7               	movwf	PWM_Init@freq+1
  5951  0871  01A8               	clrf	PWM_Init@freq+2
  5952  0872  01A9               	clrf	PWM_Init@freq+3
  5953  0873  160A  118A  22F5  120A  158A  	fcall	_PWM_Init
  5954  0878                     l2731:
  5955                           
  5956                           ;PWM.c: 32:   if(duty<1024)
  5957  0878  3004               	movlw	4
  5958  0879  1683               	bsf	3,5	;RP0=1, select bank1
  5959  087A  1303               	bcf	3,6	;RP1=0, select bank1
  5960  087B  023E               	subwf	(PWM2_Duty@duty+1)^(0+128),w
  5961  087C  3000               	movlw	0
  5962  087D  1903               	skipnz
  5963  087E  023D               	subwf	PWM2_Duty@duty^(0+128),w
  5964  087F  1803               	skipnc
  5965  0880  2882               	goto	u4051
  5966  0881  2883               	goto	u4050
  5967  0882                     u4051:
  5968  0882  2948               	goto	l167
  5969  0883                     u4050:
  5970  0883                     l2733:
  5971                           
  5972                           ;PWM.c: 33:   {;PWM.c: 34:     duty = ((float)duty/1023.0)*(4000000/(freq*4));
  5973  0883  083D               	movf	PWM2_Duty@duty^(0+128),w
  5974  0884  1283               	bcf	3,5	;RP0=0, select bank0
  5975  0885  1303               	bcf	3,6	;RP1=0, select bank0
  5976  0886  00AE               	movwf	___xxtofl@val
  5977  0887  1683               	bsf	3,5	;RP0=1, select bank1
  5978  0888  1303               	bcf	3,6	;RP1=0, select bank1
  5979  0889  083E               	movf	(PWM2_Duty@duty+1)^(0+128),w
  5980  088A  1283               	bcf	3,5	;RP0=0, select bank0
  5981  088B  1303               	bcf	3,6	;RP1=0, select bank0
  5982  088C  00AF               	movwf	___xxtofl@val+1
  5983  088D  01B0               	clrf	___xxtofl@val+2
  5984  088E  01B1               	clrf	___xxtofl@val+3
  5985  088F  3000               	movlw	0
  5986  0890  160A  118A  25B0  120A  158A  	fcall	___xxtofl
  5987  0895  1283               	bcf	3,5	;RP0=0, select bank0
  5988  0896  1303               	bcf	3,6	;RP1=0, select bank0
  5989  0897  0831               	movf	?___xxtofl+3,w
  5990  0898  1683               	bsf	3,5	;RP0=1, select bank1
  5991  0899  1303               	bcf	3,6	;RP1=0, select bank1
  5992  089A  00AF               	movwf	(___fldiv@b+3)^(0+128)
  5993  089B  1283               	bcf	3,5	;RP0=0, select bank0
  5994  089C  1303               	bcf	3,6	;RP1=0, select bank0
  5995  089D  0830               	movf	?___xxtofl+2,w
  5996  089E  1683               	bsf	3,5	;RP0=1, select bank1
  5997  089F  1303               	bcf	3,6	;RP1=0, select bank1
  5998  08A0  00AE               	movwf	(___fldiv@b+2)^(0+128)
  5999  08A1  1283               	bcf	3,5	;RP0=0, select bank0
  6000  08A2  1303               	bcf	3,6	;RP1=0, select bank0
  6001  08A3  082F               	movf	?___xxtofl+1,w
  6002  08A4  1683               	bsf	3,5	;RP0=1, select bank1
  6003  08A5  1303               	bcf	3,6	;RP1=0, select bank1
  6004  08A6  00AD               	movwf	(___fldiv@b+1)^(0+128)
  6005  08A7  1283               	bcf	3,5	;RP0=0, select bank0
  6006  08A8  1303               	bcf	3,6	;RP1=0, select bank0
  6007  08A9  082E               	movf	?___xxtofl,w
  6008  08AA  1683               	bsf	3,5	;RP0=1, select bank1
  6009  08AB  1303               	bcf	3,6	;RP1=0, select bank1
  6010  08AC  00AC               	movwf	___fldiv@b^(0+128)
  6011  08AD  3044               	movlw	68
  6012  08AE  00AB               	movwf	(___fldiv@a+3)^(0+128)
  6013  08AF  307F               	movlw	127
  6014  08B0  00AA               	movwf	(___fldiv@a+2)^(0+128)
  6015  08B1  30C0               	movlw	192
  6016  08B2  00A9               	movwf	(___fldiv@a+1)^(0+128)
  6017  08B3  3000               	movlw	0
  6018  08B4  00A8               	movwf	___fldiv@a^(0+128)
  6019  08B5  120A  158A  2315  120A  158A  	fcall	___fldiv
  6020  08BA  1683               	bsf	3,5	;RP0=1, select bank1
  6021  08BB  1303               	bcf	3,6	;RP1=0, select bank1
  6022  08BC  082B               	movf	(?___fldiv+3)^(0+128),w
  6023  08BD  1283               	bcf	3,5	;RP0=0, select bank0
  6024  08BE  1303               	bcf	3,6	;RP1=0, select bank0
  6025  08BF  00C3               	movwf	___flmul@a+3
  6026  08C0  1683               	bsf	3,5	;RP0=1, select bank1
  6027  08C1  1303               	bcf	3,6	;RP1=0, select bank1
  6028  08C2  082A               	movf	(?___fldiv+2)^(0+128),w
  6029  08C3  1283               	bcf	3,5	;RP0=0, select bank0
  6030  08C4  1303               	bcf	3,6	;RP1=0, select bank0
  6031  08C5  00C2               	movwf	___flmul@a+2
  6032  08C6  1683               	bsf	3,5	;RP0=1, select bank1
  6033  08C7  1303               	bcf	3,6	;RP1=0, select bank1
  6034  08C8  0829               	movf	(?___fldiv+1)^(0+128),w
  6035  08C9  1283               	bcf	3,5	;RP0=0, select bank0
  6036  08CA  1303               	bcf	3,6	;RP1=0, select bank0
  6037  08CB  00C1               	movwf	___flmul@a+1
  6038  08CC  1683               	bsf	3,5	;RP0=1, select bank1
  6039  08CD  1303               	bcf	3,6	;RP1=0, select bank1
  6040  08CE  0828               	movf	?___fldiv^(0+128),w
  6041  08CF  1283               	bcf	3,5	;RP0=0, select bank0
  6042  08D0  1303               	bcf	3,6	;RP1=0, select bank0
  6043  08D1  00C0               	movwf	___flmul@a
  6044  08D2  3000               	movlw	0
  6045  08D3  00F7               	movwf	___aldiv@dividend+3
  6046  08D4  303D               	movlw	61
  6047  08D5  00F6               	movwf	___aldiv@dividend+2
  6048  08D6  3009               	movlw	9
  6049  08D7  00F5               	movwf	___aldiv@dividend+1
  6050  08D8  3000               	movlw	0
  6051  08D9  00F4               	movwf	___aldiv@dividend
  6052  08DA  1683               	bsf	3,5	;RP0=1, select bank1
  6053  08DB  1303               	bcf	3,6	;RP1=0, select bank1
  6054  08DC  0840               	movf	(PWM2_Duty@freq+1)^(0+128),w
  6055  08DD  00C2               	movwf	(??_PWM2_Duty^(0+128)+1)
  6056  08DE  083F               	movf	PWM2_Duty@freq^(0+128),w
  6057  08DF  00C1               	movwf	??_PWM2_Duty^(0+128)
  6058  08E0  1003               	clrc
  6059  08E1  0DC1               	rlf	??_PWM2_Duty^(0+128),f
  6060  08E2  0DC2               	rlf	(??_PWM2_Duty^(0+128)+1),f
  6061  08E3  1003               	clrc
  6062  08E4  0DC1               	rlf	??_PWM2_Duty^(0+128),f
  6063  08E5  0DC2               	rlf	(??_PWM2_Duty^(0+128)+1),f
  6064  08E6  0841               	movf	??_PWM2_Duty^(0+128),w
  6065  08E7  00F0               	movwf	___aldiv@divisor
  6066  08E8  0842               	movf	(??_PWM2_Duty+1)^(0+128),w
  6067  08E9  00F1               	movwf	___aldiv@divisor+1
  6068  08EA  01F2               	clrf	___aldiv@divisor+2
  6069  08EB  01F3               	clrf	___aldiv@divisor+3
  6070  08EC  160A  118A  2476  120A  158A  	fcall	___aldiv
  6071  08F1  0873               	movf	?___aldiv+3,w
  6072  08F2  1283               	bcf	3,5	;RP0=0, select bank0
  6073  08F3  1303               	bcf	3,6	;RP1=0, select bank0
  6074  08F4  00B1               	movwf	___xxtofl@val+3
  6075  08F5  0872               	movf	?___aldiv+2,w
  6076  08F6  00B0               	movwf	___xxtofl@val+2
  6077  08F7  0871               	movf	?___aldiv+1,w
  6078  08F8  00AF               	movwf	___xxtofl@val+1
  6079  08F9  0870               	movf	?___aldiv,w
  6080  08FA  00AE               	movwf	___xxtofl@val
  6081  08FB  3001               	movlw	1
  6082  08FC  160A  118A  25B0  120A  158A  	fcall	___xxtofl
  6083  0901  1283               	bcf	3,5	;RP0=0, select bank0
  6084  0902  1303               	bcf	3,6	;RP1=0, select bank0
  6085  0903  0831               	movf	?___xxtofl+3,w
  6086  0904  00BF               	movwf	___flmul@b+3
  6087  0905  0830               	movf	?___xxtofl+2,w
  6088  0906  00BE               	movwf	___flmul@b+2
  6089  0907  082F               	movf	?___xxtofl+1,w
  6090  0908  00BD               	movwf	___flmul@b+1
  6091  0909  082E               	movf	?___xxtofl,w
  6092  090A  00BC               	movwf	___flmul@b
  6093  090B  120A  118A  207B  120A  158A  	fcall	___flmul
  6094  0910  1283               	bcf	3,5	;RP0=0, select bank0
  6095  0911  1303               	bcf	3,6	;RP1=0, select bank0
  6096  0912  083F               	movf	?___flmul+3,w
  6097  0913  00A9               	movwf	___fltol@f1+3
  6098  0914  083E               	movf	?___flmul+2,w
  6099  0915  00A8               	movwf	___fltol@f1+2
  6100  0916  083D               	movf	?___flmul+1,w
  6101  0917  00A7               	movwf	___fltol@f1+1
  6102  0918  083C               	movf	?___flmul,w
  6103  0919  00A6               	movwf	___fltol@f1
  6104  091A  160A  118A  23FA  120A  158A  	fcall	___fltol
  6105  091F  1283               	bcf	3,5	;RP0=0, select bank0
  6106  0920  1303               	bcf	3,6	;RP1=0, select bank0
  6107  0921  0827               	movf	?___fltol+1,w
  6108  0922  1683               	bsf	3,5	;RP0=1, select bank1
  6109  0923  1303               	bcf	3,6	;RP1=0, select bank1
  6110  0924  00BE               	movwf	(PWM2_Duty@duty+1)^(0+128)
  6111  0925  1283               	bcf	3,5	;RP0=0, select bank0
  6112  0926  1303               	bcf	3,6	;RP1=0, select bank0
  6113  0927  0826               	movf	?___fltol,w
  6114  0928  1683               	bsf	3,5	;RP0=1, select bank1
  6115  0929  1303               	bcf	3,6	;RP1=0, select bank1
  6116  092A  00BD               	movwf	PWM2_Duty@duty^(0+128)
  6117  092B                     l2735:
  6118                           
  6119                           ;PWM.c: 35:     CCP2X = duty & 0b00000010;;
  6120  092B  1283               	bcf	3,5	;RP0=0, select bank0
  6121  092C  1303               	bcf	3,6	;RP1=0, select bank0
  6122  092D  129D               	bcf	29,5	;volatile
  6123  092E                     l2737:
  6124                           
  6125                           ;PWM.c: 36:     CCP2Y = duty & 0b00000001;;
  6126  092E  1683               	bsf	3,5	;RP0=1, select bank1
  6127  092F  1303               	bcf	3,6	;RP1=0, select bank1
  6128  0930  183D               	btfsc	PWM2_Duty@duty^(0+128),0
  6129  0931  2933               	goto	u4061
  6130  0932  2937               	goto	u4060
  6131  0933                     u4061:
  6132  0933  1283               	bcf	3,5	;RP0=0, select bank0
  6133  0934  1303               	bcf	3,6	;RP1=0, select bank0
  6134  0935  161D               	bsf	29,4	;volatile
  6135  0936  293A               	goto	u4074
  6136  0937                     u4060:
  6137  0937  1283               	bcf	3,5	;RP0=0, select bank0
  6138  0938  1303               	bcf	3,6	;RP1=0, select bank0
  6139  0939  121D               	bcf	29,4	;volatile
  6140  093A                     u4074:
  6141  093A                     l2739:
  6142                           
  6143                           ;PWM.c: 37:     CCPR2L = (unsigned char)duty>>2;
  6144  093A  1683               	bsf	3,5	;RP0=1, select bank1
  6145  093B  1303               	bcf	3,6	;RP1=0, select bank1
  6146  093C  083D               	movf	PWM2_Duty@duty^(0+128),w
  6147  093D  00C1               	movwf	??_PWM2_Duty^(0+128)
  6148  093E  3002               	movlw	2
  6149  093F                     u4085:
  6150  093F  1003               	clrc
  6151  0940  0CC1               	rrf	??_PWM2_Duty^(0+128),f
  6152  0941  3EFF               	addlw	-1
  6153  0942  1D03               	skipz
  6154  0943  293F               	goto	u4085
  6155  0944  0841               	movf	??_PWM2_Duty^(0+128),w
  6156  0945  1283               	bcf	3,5	;RP0=0, select bank0
  6157  0946  1303               	bcf	3,6	;RP1=0, select bank0
  6158  0947  009B               	movwf	27	;volatile
  6159  0948                     l167:
  6160  0948  0008               	return
  6161  0949                     __end_of_PWM2_Duty:
  6162                           
  6163                           	psect	text21
  6164  15B0                     __ptext21:	
  6165 ;; *************** function ___xxtofl *****************
  6166 ;; Defined at:
  6167 ;;		line 10 in file "C:\Program Files\Microchip\xc8\v2.32\pic\sources\c90\common\xxtofl.c"
  6168 ;; Parameters:    Size  Location     Type
  6169 ;;  sign            1    wreg     unsigned char 
  6170 ;;  val             4   14[BANK0 ] long 
  6171 ;; Auto vars:     Size  Location     Type
  6172 ;;  sign            1   22[BANK0 ] unsigned char 
  6173 ;;  arg             4   24[BANK0 ] unsigned long 
  6174 ;;  exp             1   23[BANK0 ] unsigned char 
  6175 ;; Return value:  Size  Location     Type
  6176 ;;                  4   14[BANK0 ] unsigned char 
  6177 ;; Registers used:
  6178 ;;		wreg, status,2, status,0
  6179 ;; Tracked objects:
  6180 ;;		On entry : 0/0
  6181 ;;		On exit  : 0/0
  6182 ;;		Unchanged: 0/0
  6183 ;; Data sizes:     COMMON   BANK0   BANK1   BANK3   BANK2
  6184 ;;      Params:         0       4       0       0       0
  6185 ;;      Locals:         0       6       0       0       0
  6186 ;;      Temps:          0       4       0       0       0
  6187 ;;      Totals:         0      14       0       0       0
  6188 ;;Total ram usage:       14 bytes
  6189 ;; Hardware stack levels used: 1
  6190 ;; This function calls:
  6191 ;;		Nothing
  6192 ;; This function is called by:
  6193 ;;		_realizarCalculo
  6194 ;;		_PWM1_Duty
  6195 ;;		_PWM2_Duty
  6196 ;; This function uses a non-reentrant model
  6197 ;;
  6198                           
  6199                           
  6200                           ;psect for function ___xxtofl
  6201  15B0                     ___xxtofl:
  6202                           
  6203                           ;incstack = 0
  6204                           ; Regs used in ___xxtofl: [wreg+status,2+status,0]
  6205                           ;___xxtofl@sign stored from wreg
  6206  15B0  1283               	bcf	3,5	;RP0=0, select bank0
  6207  15B1  1303               	bcf	3,6	;RP1=0, select bank0
  6208  15B2  00B6               	movwf	___xxtofl@sign
  6209  15B3                     l2565:
  6210  15B3  0836               	movf	___xxtofl@sign,w
  6211  15B4  1903               	btfsc	3,2
  6212  15B5  2DB7               	goto	u3741
  6213  15B6  2DB8               	goto	u3740
  6214  15B7                     u3741:
  6215  15B7  2DCC               	goto	l2571
  6216  15B8                     u3740:
  6217  15B8                     l2567:
  6218  15B8  1FB1               	btfss	___xxtofl@val+3,7
  6219  15B9  2DBB               	goto	u3751
  6220  15BA  2DBC               	goto	u3750
  6221  15BB                     u3751:
  6222  15BB  2DCC               	goto	l2571
  6223  15BC                     u3750:
  6224  15BC                     l2569:
  6225  15BC  092E               	comf	___xxtofl@val,w
  6226  15BD  00B8               	movwf	___xxtofl@arg
  6227  15BE  092F               	comf	___xxtofl@val+1,w
  6228  15BF  00B9               	movwf	___xxtofl@arg+1
  6229  15C0  0930               	comf	___xxtofl@val+2,w
  6230  15C1  00BA               	movwf	___xxtofl@arg+2
  6231  15C2  0931               	comf	___xxtofl@val+3,w
  6232  15C3  00BB               	movwf	___xxtofl@arg+3
  6233  15C4  0AB8               	incf	___xxtofl@arg,f
  6234  15C5  1903               	skipnz
  6235  15C6  0AB9               	incf	___xxtofl@arg+1,f
  6236  15C7  1903               	skipnz
  6237  15C8  0ABA               	incf	___xxtofl@arg+2,f
  6238  15C9  1903               	skipnz
  6239  15CA  0ABB               	incf	___xxtofl@arg+3,f
  6240  15CB  2DD4               	goto	l770
  6241  15CC                     l2571:
  6242  15CC  0831               	movf	___xxtofl@val+3,w
  6243  15CD  00BB               	movwf	___xxtofl@arg+3
  6244  15CE  0830               	movf	___xxtofl@val+2,w
  6245  15CF  00BA               	movwf	___xxtofl@arg+2
  6246  15D0  082F               	movf	___xxtofl@val+1,w
  6247  15D1  00B9               	movwf	___xxtofl@arg+1
  6248  15D2  082E               	movf	___xxtofl@val,w
  6249  15D3  00B8               	movwf	___xxtofl@arg
  6250  15D4                     l770:
  6251  15D4  0831               	movf	___xxtofl@val+3,w
  6252  15D5  0430               	iorwf	___xxtofl@val+2,w
  6253  15D6  042F               	iorwf	___xxtofl@val+1,w
  6254  15D7  042E               	iorwf	___xxtofl@val,w
  6255  15D8  1D03               	skipz
  6256  15D9  2DDB               	goto	u3761
  6257  15DA  2DDC               	goto	u3760
  6258  15DB                     u3761:
  6259  15DB  2DE5               	goto	l2577
  6260  15DC                     u3760:
  6261  15DC                     l2573:
  6262  15DC  3000               	movlw	0
  6263  15DD  00B1               	movwf	?___xxtofl+3
  6264  15DE  3000               	movlw	0
  6265  15DF  00B0               	movwf	?___xxtofl+2
  6266  15E0  3000               	movlw	0
  6267  15E1  00AF               	movwf	?___xxtofl+1
  6268  15E2  3000               	movlw	0
  6269  15E3  00AE               	movwf	?___xxtofl
  6270  15E4  2E6B               	goto	l772
  6271  15E5                     l2577:
  6272  15E5  3096               	movlw	150
  6273  15E6  00B2               	movwf	??___xxtofl
  6274  15E7  0832               	movf	??___xxtofl,w
  6275  15E8  00B7               	movwf	___xxtofl@exp
  6276  15E9  2DF7               	goto	l2581
  6277  15EA                     l2579:
  6278  15EA  3001               	movlw	1
  6279  15EB  00B2               	movwf	??___xxtofl
  6280  15EC  0832               	movf	??___xxtofl,w
  6281  15ED  07B7               	addwf	___xxtofl@exp,f
  6282  15EE  3001               	movlw	1
  6283  15EF                     u3775:
  6284  15EF  1003               	clrc
  6285  15F0  0CBB               	rrf	___xxtofl@arg+3,f
  6286  15F1  0CBA               	rrf	___xxtofl@arg+2,f
  6287  15F2  0CB9               	rrf	___xxtofl@arg+1,f
  6288  15F3  0CB8               	rrf	___xxtofl@arg,f
  6289  15F4  3EFF               	addlw	-1
  6290  15F5  1D03               	skipz
  6291  15F6  2DEF               	goto	u3775
  6292  15F7                     l2581:
  6293  15F7  30FE               	movlw	254
  6294  15F8  053B               	andwf	___xxtofl@arg+3,w
  6295  15F9  1D03               	btfss	3,2
  6296  15FA  2DFC               	goto	u3781
  6297  15FB  2DFD               	goto	u3780
  6298  15FC                     u3781:
  6299  15FC  2DEA               	goto	l2579
  6300  15FD                     u3780:
  6301  15FD  2E19               	goto	l776
  6302  15FE                     l2583:
  6303  15FE  3001               	movlw	1
  6304  15FF  00B2               	movwf	??___xxtofl
  6305  1600  0832               	movf	??___xxtofl,w
  6306  1601  07B7               	addwf	___xxtofl@exp,f
  6307  1602                     l2585:
  6308  1602  3001               	movlw	1
  6309  1603  07B8               	addwf	___xxtofl@arg,f
  6310  1604  3000               	movlw	0
  6311  1605  1803               	skipnc
  6312  1606  3001               	movlw	1
  6313  1607  07B9               	addwf	___xxtofl@arg+1,f
  6314  1608  3000               	movlw	0
  6315  1609  1803               	skipnc
  6316  160A  3001               	movlw	1
  6317  160B  07BA               	addwf	___xxtofl@arg+2,f
  6318  160C  3000               	movlw	0
  6319  160D  1803               	skipnc
  6320  160E  3001               	movlw	1
  6321  160F  07BB               	addwf	___xxtofl@arg+3,f
  6322  1610                     l2587:
  6323  1610  3001               	movlw	1
  6324  1611                     u3795:
  6325  1611  1003               	clrc
  6326  1612  0CBB               	rrf	___xxtofl@arg+3,f
  6327  1613  0CBA               	rrf	___xxtofl@arg+2,f
  6328  1614  0CB9               	rrf	___xxtofl@arg+1,f
  6329  1615  0CB8               	rrf	___xxtofl@arg,f
  6330  1616  3EFF               	addlw	-1
  6331  1617  1D03               	skipz
  6332  1618  2E11               	goto	u3795
  6333  1619                     l776:
  6334  1619  30FF               	movlw	255
  6335  161A  053B               	andwf	___xxtofl@arg+3,w
  6336  161B  1D03               	btfss	3,2
  6337  161C  2E1E               	goto	u3801
  6338  161D  2E1F               	goto	u3800
  6339  161E                     u3801:
  6340  161E  2DFE               	goto	l2583
  6341  161F                     u3800:
  6342  161F  2E2B               	goto	l2591
  6343  1620                     l2589:
  6344  1620  3001               	movlw	1
  6345  1621  02B7               	subwf	___xxtofl@exp,f
  6346  1622  3001               	movlw	1
  6347  1623  00B2               	movwf	??___xxtofl
  6348  1624                     u3815:
  6349  1624  1003               	clrc
  6350  1625  0DB8               	rlf	___xxtofl@arg,f
  6351  1626  0DB9               	rlf	___xxtofl@arg+1,f
  6352  1627  0DBA               	rlf	___xxtofl@arg+2,f
  6353  1628  0DBB               	rlf	___xxtofl@arg+3,f
  6354  1629  0BB2               	decfsz	??___xxtofl,f
  6355  162A  2E24               	goto	u3815
  6356  162B                     l2591:
  6357  162B  1BBA               	btfsc	___xxtofl@arg+2,7
  6358  162C  2E2E               	goto	u3821
  6359  162D  2E2F               	goto	u3820
  6360  162E                     u3821:
  6361  162E  2E35               	goto	l783
  6362  162F                     u3820:
  6363  162F                     l2593:
  6364  162F  3002               	movlw	2
  6365  1630  0237               	subwf	___xxtofl@exp,w
  6366  1631  1803               	skipnc
  6367  1632  2E34               	goto	u3831
  6368  1633  2E35               	goto	u3830
  6369  1634                     u3831:
  6370  1634  2E20               	goto	l2589
  6371  1635                     u3830:
  6372  1635                     l783:
  6373  1635  1837               	btfsc	___xxtofl@exp,0
  6374  1636  2E38               	goto	u3841
  6375  1637  2E39               	goto	u3840
  6376  1638                     u3841:
  6377  1638  2E41               	goto	l784
  6378  1639                     u3840:
  6379  1639                     l2595:
  6380  1639  30FF               	movlw	255
  6381  163A  05B8               	andwf	___xxtofl@arg,f
  6382  163B  30FF               	movlw	255
  6383  163C  05B9               	andwf	___xxtofl@arg+1,f
  6384  163D  307F               	movlw	127
  6385  163E  05BA               	andwf	___xxtofl@arg+2,f
  6386  163F  30FF               	movlw	255
  6387  1640  05BB               	andwf	___xxtofl@arg+3,f
  6388  1641                     l784:
  6389  1641  1003               	clrc
  6390  1642  0CB7               	rrf	___xxtofl@exp,f
  6391  1643                     l2597:
  6392  1643  0837               	movf	___xxtofl@exp,w
  6393  1644  00B2               	movwf	??___xxtofl
  6394  1645  01B3               	clrf	??___xxtofl+1
  6395  1646  01B4               	clrf	??___xxtofl+2
  6396  1647  01B5               	clrf	??___xxtofl+3
  6397  1648  3018               	movlw	24
  6398  1649                     u3855:
  6399  1649  1003               	clrc
  6400  164A  0DB2               	rlf	??___xxtofl,f
  6401  164B  0DB3               	rlf	??___xxtofl+1,f
  6402  164C  0DB4               	rlf	??___xxtofl+2,f
  6403  164D  0DB5               	rlf	??___xxtofl+3,f
  6404  164E                     u3850:
  6405  164E  3EFF               	addlw	-1
  6406  164F  1D03               	skipz
  6407  1650  2E49               	goto	u3855
  6408  1651  0832               	movf	??___xxtofl,w
  6409  1652  04B8               	iorwf	___xxtofl@arg,f
  6410  1653  0833               	movf	??___xxtofl+1,w
  6411  1654  04B9               	iorwf	___xxtofl@arg+1,f
  6412  1655  0834               	movf	??___xxtofl+2,w
  6413  1656  04BA               	iorwf	___xxtofl@arg+2,f
  6414  1657  0835               	movf	??___xxtofl+3,w
  6415  1658  04BB               	iorwf	___xxtofl@arg+3,f
  6416  1659                     l2599:
  6417  1659  0836               	movf	___xxtofl@sign,w
  6418  165A  1903               	btfsc	3,2
  6419  165B  2E5D               	goto	u3861
  6420  165C  2E5E               	goto	u3860
  6421  165D                     u3861:
  6422  165D  2E63               	goto	l2605
  6423  165E                     u3860:
  6424  165E                     l2601:
  6425  165E  1FB1               	btfss	___xxtofl@val+3,7
  6426  165F  2E61               	goto	u3871
  6427  1660  2E62               	goto	u3870
  6428  1661                     u3871:
  6429  1661  2E63               	goto	l2605
  6430  1662                     u3870:
  6431  1662                     l2603:
  6432  1662  17BB               	bsf	___xxtofl@arg+3,7
  6433  1663                     l2605:
  6434  1663  083B               	movf	___xxtofl@arg+3,w
  6435  1664  00B1               	movwf	?___xxtofl+3
  6436  1665  083A               	movf	___xxtofl@arg+2,w
  6437  1666  00B0               	movwf	?___xxtofl+2
  6438  1667  0839               	movf	___xxtofl@arg+1,w
  6439  1668  00AF               	movwf	?___xxtofl+1
  6440  1669  0838               	movf	___xxtofl@arg,w
  6441  166A  00AE               	movwf	?___xxtofl
  6442  166B                     l772:
  6443  166B  0008               	return
  6444  166C                     __end_of___xxtofl:
  6445                           
  6446                           	psect	text22
  6447  13FA                     __ptext22:	
  6448 ;; *************** function ___fltol *****************
  6449 ;; Defined at:
  6450 ;;		line 43 in file "C:\Program Files\Microchip\xc8\v2.32\pic\sources\c90\common\fltol.c"
  6451 ;; Parameters:    Size  Location     Type
  6452 ;;  f1              4    6[BANK0 ] unsigned char 
  6453 ;; Auto vars:     Size  Location     Type
  6454 ;;  exp1            1   11[BANK0 ] unsigned char 
  6455 ;;  sign1           1   10[BANK0 ] unsigned char 
  6456 ;; Return value:  Size  Location     Type
  6457 ;;                  4    6[BANK0 ] long 
  6458 ;; Registers used:
  6459 ;;		wreg, status,2, status,0
  6460 ;; Tracked objects:
  6461 ;;		On entry : 0/0
  6462 ;;		On exit  : 0/0
  6463 ;;		Unchanged: 0/0
  6464 ;; Data sizes:     COMMON   BANK0   BANK1   BANK3   BANK2
  6465 ;;      Params:         0       4       0       0       0
  6466 ;;      Locals:         0       2       0       0       0
  6467 ;;      Temps:          5       0       0       0       0
  6468 ;;      Totals:         5       6       0       0       0
  6469 ;;Total ram usage:       11 bytes
  6470 ;; Hardware stack levels used: 1
  6471 ;; This function calls:
  6472 ;;		Nothing
  6473 ;; This function is called by:
  6474 ;;		_realizarCalculo
  6475 ;;		_PWM1_Duty
  6476 ;;		_PWM2_Duty
  6477 ;; This function uses a non-reentrant model
  6478 ;;
  6479                           
  6480                           
  6481                           ;psect for function ___fltol
  6482  13FA                     ___fltol:
  6483  13FA                     l2005:	
  6484                           ;incstack = 0
  6485                           ; Regs used in ___fltol: [wreg+status,2+status,0]
  6486                           
  6487  13FA  1003               	clrc
  6488  13FB  1283               	bcf	3,5	;RP0=0, select bank0
  6489  13FC  1303               	bcf	3,6	;RP1=0, select bank0
  6490  13FD  0D28               	rlf	___fltol@f1+2,w
  6491  13FE  0D29               	rlf	___fltol@f1+3,w
  6492  13FF  00F9               	movwf	??___fltol
  6493  1400  0879               	movf	??___fltol,w
  6494  1401  00AB               	movwf	___fltol@exp1
  6495  1402  082B               	movf	___fltol@exp1,w
  6496  1403  1D03               	btfss	3,2
  6497  1404  2C06               	goto	u2391
  6498  1405  2C07               	goto	u2390
  6499  1406                     u2391:
  6500  1406  2C10               	goto	l2011
  6501  1407                     u2390:
  6502  1407                     l2007:
  6503  1407  3000               	movlw	0
  6504  1408  00A9               	movwf	?___fltol+3
  6505  1409  3000               	movlw	0
  6506  140A  00A8               	movwf	?___fltol+2
  6507  140B  3000               	movlw	0
  6508  140C  00A7               	movwf	?___fltol+1
  6509  140D  3000               	movlw	0
  6510  140E  00A6               	movwf	?___fltol
  6511  140F  2C75               	goto	l523
  6512  1410                     l2011:
  6513  1410  0826               	movf	___fltol@f1,w
  6514  1411  00F9               	movwf	??___fltol
  6515  1412  0827               	movf	___fltol@f1+1,w
  6516  1413  00FA               	movwf	??___fltol+1
  6517  1414  0828               	movf	___fltol@f1+2,w
  6518  1415  00FB               	movwf	??___fltol+2
  6519  1416  0829               	movf	___fltol@f1+3,w
  6520  1417  00FC               	movwf	??___fltol+3
  6521  1418  301F               	movlw	31
  6522  1419                     u2405:
  6523  1419  1003               	clrc
  6524  141A  0CFC               	rrf	??___fltol+3,f
  6525  141B  0CFB               	rrf	??___fltol+2,f
  6526  141C  0CFA               	rrf	??___fltol+1,f
  6527  141D  0CF9               	rrf	??___fltol,f
  6528  141E                     u2400:
  6529  141E  3EFF               	addlw	-1
  6530  141F  1D03               	skipz
  6531  1420  2C19               	goto	u2405
  6532  1421  0879               	movf	??___fltol,w
  6533  1422  00FD               	movwf	??___fltol+4
  6534  1423  087D               	movf	??___fltol+4,w
  6535  1424  00AA               	movwf	___fltol@sign1
  6536  1425                     l2013:
  6537  1425  17A8               	bsf	___fltol@f1+2,7
  6538  1426                     l2015:
  6539  1426  30FF               	movlw	255
  6540  1427  05A6               	andwf	___fltol@f1,f
  6541  1428  30FF               	movlw	255
  6542  1429  05A7               	andwf	___fltol@f1+1,f
  6543  142A  30FF               	movlw	255
  6544  142B  05A8               	andwf	___fltol@f1+2,f
  6545  142C  3000               	movlw	0
  6546  142D  05A9               	andwf	___fltol@f1+3,f
  6547  142E                     l2017:
  6548  142E  3096               	movlw	150
  6549  142F  02AB               	subwf	___fltol@exp1,f
  6550  1430                     l2019:
  6551  1430  1FAB               	btfss	___fltol@exp1,7
  6552  1431  2C33               	goto	u2411
  6553  1432  2C34               	goto	u2410
  6554  1433                     u2411:
  6555  1433  2C4E               	goto	l2029
  6556  1434                     u2410:
  6557  1434                     l2021:
  6558  1434  082B               	movf	___fltol@exp1,w
  6559  1435  3A80               	xorlw	128
  6560  1436  3E97               	addlw	151
  6561  1437  1803               	skipnc
  6562  1438  2C3A               	goto	u2421
  6563  1439  2C3B               	goto	u2420
  6564  143A                     u2421:
  6565  143A  2C3C               	goto	l2027
  6566  143B                     u2420:
  6567  143B  2C07               	goto	l2007
  6568  143C                     l2027:
  6569  143C  3001               	movlw	1
  6570  143D                     u2435:
  6571  143D  1003               	clrc
  6572  143E  0CA9               	rrf	___fltol@f1+3,f
  6573  143F  0CA8               	rrf	___fltol@f1+2,f
  6574  1440  0CA7               	rrf	___fltol@f1+1,f
  6575  1441  0CA6               	rrf	___fltol@f1,f
  6576  1442  3EFF               	addlw	-1
  6577  1443  1D03               	skipz
  6578  1444  2C3D               	goto	u2435
  6579  1445  3001               	movlw	1
  6580  1446  00F9               	movwf	??___fltol
  6581  1447  0879               	movf	??___fltol,w
  6582  1448  07AB               	addwf	___fltol@exp1,f
  6583  1449  1D03               	btfss	3,2
  6584  144A  2C4C               	goto	u2441
  6585  144B  2C4D               	goto	u2440
  6586  144C                     u2441:
  6587  144C  2C3C               	goto	l2027
  6588  144D                     u2440:
  6589  144D  2C65               	goto	l2037
  6590  144E                     l2029:
  6591  144E  3020               	movlw	32
  6592  144F  022B               	subwf	___fltol@exp1,w
  6593  1450  1C03               	skipc
  6594  1451  2C53               	goto	u2451
  6595  1452  2C54               	goto	u2450
  6596  1453                     u2451:
  6597  1453  2C60               	goto	l530
  6598  1454                     u2450:
  6599  1454  2C07               	goto	l2007
  6600  1455                     l2035:
  6601  1455  3001               	movlw	1
  6602  1456  00F9               	movwf	??___fltol
  6603  1457                     u2465:
  6604  1457  1003               	clrc
  6605  1458  0DA6               	rlf	___fltol@f1,f
  6606  1459  0DA7               	rlf	___fltol@f1+1,f
  6607  145A  0DA8               	rlf	___fltol@f1+2,f
  6608  145B  0DA9               	rlf	___fltol@f1+3,f
  6609  145C  0BF9               	decfsz	??___fltol,f
  6610  145D  2C57               	goto	u2465
  6611  145E  3001               	movlw	1
  6612  145F  02AB               	subwf	___fltol@exp1,f
  6613  1460                     l530:
  6614  1460  082B               	movf	___fltol@exp1,w
  6615  1461  1D03               	btfss	3,2
  6616  1462  2C64               	goto	u2471
  6617  1463  2C65               	goto	u2470
  6618  1464                     u2471:
  6619  1464  2C55               	goto	l2035
  6620  1465                     u2470:
  6621  1465                     l2037:
  6622  1465  082A               	movf	___fltol@sign1,w
  6623  1466  1903               	btfsc	3,2
  6624  1467  2C69               	goto	u2481
  6625  1468  2C6A               	goto	u2480
  6626  1469                     u2481:
  6627  1469  2C75               	goto	l533
  6628  146A                     u2480:
  6629  146A                     l2039:
  6630  146A  09A6               	comf	___fltol@f1,f
  6631  146B  09A7               	comf	___fltol@f1+1,f
  6632  146C  09A8               	comf	___fltol@f1+2,f
  6633  146D  09A9               	comf	___fltol@f1+3,f
  6634  146E  0AA6               	incf	___fltol@f1,f
  6635  146F  1903               	skipnz
  6636  1470  0AA7               	incf	___fltol@f1+1,f
  6637  1471  1903               	skipnz
  6638  1472  0AA8               	incf	___fltol@f1+2,f
  6639  1473  1903               	skipnz
  6640  1474  0AA9               	incf	___fltol@f1+3,f
  6641  1475                     l533:
  6642  1475                     l523:
  6643  1475  0008               	return
  6644  1476                     __end_of___fltol:
  6645                           
  6646                           	psect	text23
  6647  007B                     __ptext23:	
  6648 ;; *************** function ___flmul *****************
  6649 ;; Defined at:
  6650 ;;		line 8 in file "C:\Program Files\Microchip\xc8\v2.32\pic\sources\c90\common\sprcmul.c"
  6651 ;; Parameters:    Size  Location     Type
  6652 ;;  b               4   28[BANK0 ] long 
  6653 ;;  a               4   32[BANK0 ] long 
  6654 ;; Auto vars:     Size  Location     Type
  6655 ;;  prod            4   48[BANK0 ] struct .
  6656 ;;  grs             4   42[BANK0 ] unsigned long 
  6657 ;;  temp            2   52[BANK0 ] struct .
  6658 ;;  bexp            1   47[BANK0 ] unsigned char 
  6659 ;;  aexp            1   46[BANK0 ] unsigned char 
  6660 ;;  sign            1   41[BANK0 ] unsigned char 
  6661 ;; Return value:  Size  Location     Type
  6662 ;;                  4   28[BANK0 ] unsigned char 
  6663 ;; Registers used:
  6664 ;;		wreg, status,2, status,0, btemp+1, pclath, cstack
  6665 ;; Tracked objects:
  6666 ;;		On entry : 0/0
  6667 ;;		On exit  : 0/0
  6668 ;;		Unchanged: 0/0
  6669 ;; Data sizes:     COMMON   BANK0   BANK1   BANK3   BANK2
  6670 ;;      Params:         0       8       0       0       0
  6671 ;;      Locals:         0      13       0       0       0
  6672 ;;      Temps:          0       5       0       0       0
  6673 ;;      Totals:         0      26       0       0       0
  6674 ;;Total ram usage:       26 bytes
  6675 ;; Hardware stack levels used: 1
  6676 ;; Hardware stack levels required when called: 1
  6677 ;; This function calls:
  6678 ;;		__Umul8_16
  6679 ;; This function is called by:
  6680 ;;		_realizarCalculo
  6681 ;;		_PWM1_Duty
  6682 ;;		_PWM2_Duty
  6683 ;; This function uses a non-reentrant model
  6684 ;;
  6685                           
  6686                           
  6687                           ;psect for function ___flmul
  6688  007B                     ___flmul:
  6689  007B                     l2425:	
  6690                           ;incstack = 0
  6691                           ; Regs used in ___flmul: [wreg+status,2+status,0+btemp+1+pclath+cstack]
  6692                           
  6693  007B  1283               	bcf	3,5	;RP0=0, select bank0
  6694  007C  1303               	bcf	3,6	;RP1=0, select bank0
  6695  007D  083F               	movf	___flmul@b+3,w
  6696  007E  3980               	andlw	128
  6697  007F  00C4               	movwf	??___flmul
  6698  0080  0844               	movf	??___flmul,w
  6699  0081  00C9               	movwf	___flmul@sign
  6700  0082                     l2427:
  6701  0082  083F               	movf	___flmul@b+3,w
  6702  0083  00C4               	movwf	??___flmul
  6703  0084  0744               	addwf	??___flmul,w
  6704  0085  00C5               	movwf	??___flmul+1
  6705  0086  0845               	movf	??___flmul+1,w
  6706  0087  00CF               	movwf	___flmul@bexp
  6707  0088                     l2429:
  6708  0088  1FBE               	btfss	___flmul@b+2,7
  6709  0089  288B               	goto	u3371
  6710  008A  288C               	goto	u3370
  6711  008B                     u3371:
  6712  008B  288D               	goto	l2433
  6713  008C                     u3370:
  6714  008C                     l2431:
  6715  008C  144F               	bsf	___flmul@bexp,0
  6716  008D                     l2433:
  6717  008D  084F               	movf	___flmul@bexp,w
  6718  008E  1903               	btfsc	3,2
  6719  008F  2891               	goto	u3381
  6720  0090  2892               	goto	u3380
  6721  0091                     u3381:
  6722  0091  28A1               	goto	l2441
  6723  0092                     u3380:
  6724  0092                     l2435:
  6725  0092  0A4F               	incf	___flmul@bexp,w
  6726  0093  1D03               	btfss	3,2
  6727  0094  2896               	goto	u3391
  6728  0095  2897               	goto	u3390
  6729  0096                     u3391:
  6730  0096  289F               	goto	l2439
  6731  0097                     u3390:
  6732  0097                     l2437:
  6733  0097  3000               	movlw	0
  6734  0098  00BF               	movwf	___flmul@b+3
  6735  0099  3000               	movlw	0
  6736  009A  00BE               	movwf	___flmul@b+2
  6737  009B  3000               	movlw	0
  6738  009C  00BD               	movwf	___flmul@b+1
  6739  009D  3000               	movlw	0
  6740  009E  00BC               	movwf	___flmul@b
  6741  009F                     l2439:
  6742  009F  17BE               	bsf	___flmul@b+2,7
  6743  00A0  28A9               	goto	l2443
  6744  00A1                     l2441:
  6745  00A1  3000               	movlw	0
  6746  00A2  00BF               	movwf	___flmul@b+3
  6747  00A3  3000               	movlw	0
  6748  00A4  00BE               	movwf	___flmul@b+2
  6749  00A5  3000               	movlw	0
  6750  00A6  00BD               	movwf	___flmul@b+1
  6751  00A7  3000               	movlw	0
  6752  00A8  00BC               	movwf	___flmul@b
  6753  00A9                     l2443:
  6754  00A9  0843               	movf	___flmul@a+3,w
  6755  00AA  3980               	andlw	128
  6756  00AB  00C4               	movwf	??___flmul
  6757  00AC  0844               	movf	??___flmul,w
  6758  00AD  06C9               	xorwf	___flmul@sign,f
  6759  00AE                     l2445:
  6760  00AE  0843               	movf	___flmul@a+3,w
  6761  00AF  00C4               	movwf	??___flmul
  6762  00B0  0744               	addwf	??___flmul,w
  6763  00B1  00C5               	movwf	??___flmul+1
  6764  00B2  0845               	movf	??___flmul+1,w
  6765  00B3  00CE               	movwf	___flmul@aexp
  6766  00B4                     l2447:
  6767  00B4  1FC2               	btfss	___flmul@a+2,7
  6768  00B5  28B7               	goto	u3401
  6769  00B6  28B8               	goto	u3400
  6770  00B7                     u3401:
  6771  00B7  28B9               	goto	l2451
  6772  00B8                     u3400:
  6773  00B8                     l2449:
  6774  00B8  144E               	bsf	___flmul@aexp,0
  6775  00B9                     l2451:
  6776  00B9  084E               	movf	___flmul@aexp,w
  6777  00BA  1903               	btfsc	3,2
  6778  00BB  28BD               	goto	u3411
  6779  00BC  28BE               	goto	u3410
  6780  00BD                     u3411:
  6781  00BD  28CD               	goto	l2459
  6782  00BE                     u3410:
  6783  00BE                     l2453:
  6784  00BE  0A4E               	incf	___flmul@aexp,w
  6785  00BF  1D03               	btfss	3,2
  6786  00C0  28C2               	goto	u3421
  6787  00C1  28C3               	goto	u3420
  6788  00C2                     u3421:
  6789  00C2  28CB               	goto	l2457
  6790  00C3                     u3420:
  6791  00C3                     l2455:
  6792  00C3  3000               	movlw	0
  6793  00C4  00C3               	movwf	___flmul@a+3
  6794  00C5  3000               	movlw	0
  6795  00C6  00C2               	movwf	___flmul@a+2
  6796  00C7  3000               	movlw	0
  6797  00C8  00C1               	movwf	___flmul@a+1
  6798  00C9  3000               	movlw	0
  6799  00CA  00C0               	movwf	___flmul@a
  6800  00CB                     l2457:
  6801  00CB  17C2               	bsf	___flmul@a+2,7
  6802  00CC  28D5               	goto	l2461
  6803  00CD                     l2459:
  6804  00CD  3000               	movlw	0
  6805  00CE  00C3               	movwf	___flmul@a+3
  6806  00CF  3000               	movlw	0
  6807  00D0  00C2               	movwf	___flmul@a+2
  6808  00D1  3000               	movlw	0
  6809  00D2  00C1               	movwf	___flmul@a+1
  6810  00D3  3000               	movlw	0
  6811  00D4  00C0               	movwf	___flmul@a
  6812  00D5                     l2461:
  6813  00D5  084E               	movf	___flmul@aexp,w
  6814  00D6  1903               	btfsc	3,2
  6815  00D7  28D9               	goto	u3431
  6816  00D8  28DA               	goto	u3430
  6817  00D9                     u3431:
  6818  00D9  28DF               	goto	l2465
  6819  00DA                     u3430:
  6820  00DA                     l2463:
  6821  00DA  084F               	movf	___flmul@bexp,w
  6822  00DB  1D03               	btfss	3,2
  6823  00DC  28DE               	goto	u3441
  6824  00DD  28DF               	goto	u3440
  6825  00DE                     u3441:
  6826  00DE  28E8               	goto	l2469
  6827  00DF                     u3440:
  6828  00DF                     l2465:
  6829  00DF  3000               	movlw	0
  6830  00E0  00BF               	movwf	?___flmul+3
  6831  00E1  3000               	movlw	0
  6832  00E2  00BE               	movwf	?___flmul+2
  6833  00E3  3000               	movlw	0
  6834  00E4  00BD               	movwf	?___flmul+1
  6835  00E5  3000               	movlw	0
  6836  00E6  00BC               	movwf	?___flmul
  6837  00E7  2BDB               	goto	l726
  6838  00E8                     l2469:
  6839  00E8  083C               	movf	___flmul@b,w
  6840  00E9  00C4               	movwf	??___flmul
  6841  00EA  0844               	movf	??___flmul,w
  6842  00EB  00F0               	movwf	__Umul8_16@multiplicand
  6843  00EC  0842               	movf	___flmul@a+2,w
  6844  00ED  160A  118A  2204  120A  118A  	fcall	__Umul8_16
  6845  00F2  0871               	movf	?__Umul8_16+1,w
  6846  00F3  1283               	bcf	3,5	;RP0=0, select bank0
  6847  00F4  1303               	bcf	3,6	;RP1=0, select bank0
  6848  00F5  00D5               	movwf	___flmul@temp+1
  6849  00F6  0870               	movf	?__Umul8_16,w
  6850  00F7  00D4               	movwf	___flmul@temp
  6851  00F8                     l2471:
  6852  00F8  0854               	movf	___flmul@temp,w
  6853  00F9  00C4               	movwf	??___flmul
  6854  00FA  01C5               	clrf	??___flmul+1
  6855  00FB  01C6               	clrf	??___flmul+2
  6856  00FC  01C7               	clrf	??___flmul+3
  6857  00FD  0847               	movf	??___flmul+3,w
  6858  00FE  00CD               	movwf	___flmul@grs+3
  6859  00FF  0846               	movf	??___flmul+2,w
  6860  0100  00CC               	movwf	___flmul@grs+2
  6861  0101  0845               	movf	??___flmul+1,w
  6862  0102  00CB               	movwf	___flmul@grs+1
  6863  0103  0844               	movf	??___flmul,w
  6864  0104  00CA               	movwf	___flmul@grs
  6865  0105                     l2473:
  6866  0105  0855               	movf	___flmul@temp+1,w
  6867  0106  00C4               	movwf	??___flmul
  6868  0107  01C5               	clrf	??___flmul+1
  6869  0108  01C6               	clrf	??___flmul+2
  6870  0109  01C7               	clrf	??___flmul+3
  6871  010A  0847               	movf	??___flmul+3,w
  6872  010B  00D3               	movwf	___flmul@prod+3
  6873  010C  0846               	movf	??___flmul+2,w
  6874  010D  00D2               	movwf	___flmul@prod+2
  6875  010E  0845               	movf	??___flmul+1,w
  6876  010F  00D1               	movwf	___flmul@prod+1
  6877  0110  0844               	movf	??___flmul,w
  6878  0111  00D0               	movwf	___flmul@prod
  6879  0112  083D               	movf	___flmul@b+1,w
  6880  0113  00C4               	movwf	??___flmul
  6881  0114  0844               	movf	??___flmul,w
  6882  0115  00F0               	movwf	__Umul8_16@multiplicand
  6883  0116  0841               	movf	___flmul@a+1,w
  6884  0117  160A  118A  2204  120A  118A  	fcall	__Umul8_16
  6885  011C  0871               	movf	?__Umul8_16+1,w
  6886  011D  1283               	bcf	3,5	;RP0=0, select bank0
  6887  011E  1303               	bcf	3,6	;RP1=0, select bank0
  6888  011F  00D5               	movwf	___flmul@temp+1
  6889  0120  0870               	movf	?__Umul8_16,w
  6890  0121  00D4               	movwf	___flmul@temp
  6891  0122                     l2475:
  6892  0122  0854               	movf	___flmul@temp,w
  6893  0123  00C4               	movwf	??___flmul
  6894  0124  01C5               	clrf	??___flmul+1
  6895  0125  01C6               	clrf	??___flmul+2
  6896  0126  01C7               	clrf	??___flmul+3
  6897  0127  0844               	movf	??___flmul,w
  6898  0128  07CA               	addwf	___flmul@grs,f
  6899  0129  0845               	movf	??___flmul+1,w
  6900  012A  1103               	clrz
  6901  012B  1803               	skipnc
  6902  012C  3E01               	addlw	1
  6903  012D  1903               	skipnz
  6904  012E  2930               	goto	u3451
  6905  012F  07CB               	addwf	___flmul@grs+1,f
  6906  0130                     u3451:
  6907  0130  0846               	movf	??___flmul+2,w
  6908  0131  1103               	clrz
  6909  0132  1803               	skipnc
  6910  0133  3E01               	addlw	1
  6911  0134  1903               	skipnz
  6912  0135  2937               	goto	u3452
  6913  0136  07CC               	addwf	___flmul@grs+2,f
  6914  0137                     u3452:
  6915  0137  0847               	movf	??___flmul+3,w
  6916  0138  1103               	clrz
  6917  0139  1803               	skipnc
  6918  013A  3E01               	addlw	1
  6919  013B  1903               	skipnz
  6920  013C  293E               	goto	u3453
  6921  013D  07CD               	addwf	___flmul@grs+3,f
  6922  013E                     u3453:
  6923  013E                     l2477:
  6924  013E  0855               	movf	___flmul@temp+1,w
  6925  013F  00C4               	movwf	??___flmul
  6926  0140  01C5               	clrf	??___flmul+1
  6927  0141  01C6               	clrf	??___flmul+2
  6928  0142  01C7               	clrf	??___flmul+3
  6929  0143  0844               	movf	??___flmul,w
  6930  0144  07D0               	addwf	___flmul@prod,f
  6931  0145  0845               	movf	??___flmul+1,w
  6932  0146  1103               	clrz
  6933  0147  1803               	skipnc
  6934  0148  3E01               	addlw	1
  6935  0149  1903               	skipnz
  6936  014A  294C               	goto	u3461
  6937  014B  07D1               	addwf	___flmul@prod+1,f
  6938  014C                     u3461:
  6939  014C  0846               	movf	??___flmul+2,w
  6940  014D  1103               	clrz
  6941  014E  1803               	skipnc
  6942  014F  3E01               	addlw	1
  6943  0150  1903               	skipnz
  6944  0151  2953               	goto	u3462
  6945  0152  07D2               	addwf	___flmul@prod+2,f
  6946  0153                     u3462:
  6947  0153  0847               	movf	??___flmul+3,w
  6948  0154  1103               	clrz
  6949  0155  1803               	skipnc
  6950  0156  3E01               	addlw	1
  6951  0157  1903               	skipnz
  6952  0158  295A               	goto	u3463
  6953  0159  07D3               	addwf	___flmul@prod+3,f
  6954  015A                     u3463:
  6955  015A  083E               	movf	___flmul@b+2,w
  6956  015B  00C4               	movwf	??___flmul
  6957  015C  0844               	movf	??___flmul,w
  6958  015D  00F0               	movwf	__Umul8_16@multiplicand
  6959  015E  0840               	movf	___flmul@a,w
  6960  015F  160A  118A  2204  120A  118A  	fcall	__Umul8_16
  6961  0164  0871               	movf	?__Umul8_16+1,w
  6962  0165  1283               	bcf	3,5	;RP0=0, select bank0
  6963  0166  1303               	bcf	3,6	;RP1=0, select bank0
  6964  0167  00D5               	movwf	___flmul@temp+1
  6965  0168  0870               	movf	?__Umul8_16,w
  6966  0169  00D4               	movwf	___flmul@temp
  6967  016A                     l2479:
  6968  016A  0854               	movf	___flmul@temp,w
  6969  016B  00C4               	movwf	??___flmul
  6970  016C  01C5               	clrf	??___flmul+1
  6971  016D  01C6               	clrf	??___flmul+2
  6972  016E  01C7               	clrf	??___flmul+3
  6973  016F  0844               	movf	??___flmul,w
  6974  0170  07CA               	addwf	___flmul@grs,f
  6975  0171  0845               	movf	??___flmul+1,w
  6976  0172  1103               	clrz
  6977  0173  1803               	skipnc
  6978  0174  3E01               	addlw	1
  6979  0175  1903               	skipnz
  6980  0176  2978               	goto	u3471
  6981  0177  07CB               	addwf	___flmul@grs+1,f
  6982  0178                     u3471:
  6983  0178  0846               	movf	??___flmul+2,w
  6984  0179  1103               	clrz
  6985  017A  1803               	skipnc
  6986  017B  3E01               	addlw	1
  6987  017C  1903               	skipnz
  6988  017D  297F               	goto	u3472
  6989  017E  07CC               	addwf	___flmul@grs+2,f
  6990  017F                     u3472:
  6991  017F  0847               	movf	??___flmul+3,w
  6992  0180  1103               	clrz
  6993  0181  1803               	skipnc
  6994  0182  3E01               	addlw	1
  6995  0183  1903               	skipnz
  6996  0184  2986               	goto	u3473
  6997  0185  07CD               	addwf	___flmul@grs+3,f
  6998  0186                     u3473:
  6999  0186                     l2481:
  7000  0186  0855               	movf	___flmul@temp+1,w
  7001  0187  00C4               	movwf	??___flmul
  7002  0188  01C5               	clrf	??___flmul+1
  7003  0189  01C6               	clrf	??___flmul+2
  7004  018A  01C7               	clrf	??___flmul+3
  7005  018B  0844               	movf	??___flmul,w
  7006  018C  07D0               	addwf	___flmul@prod,f
  7007  018D  0845               	movf	??___flmul+1,w
  7008  018E  1103               	clrz
  7009  018F  1803               	skipnc
  7010  0190  3E01               	addlw	1
  7011  0191  1903               	skipnz
  7012  0192  2994               	goto	u3481
  7013  0193  07D1               	addwf	___flmul@prod+1,f
  7014  0194                     u3481:
  7015  0194  0846               	movf	??___flmul+2,w
  7016  0195  1103               	clrz
  7017  0196  1803               	skipnc
  7018  0197  3E01               	addlw	1
  7019  0198  1903               	skipnz
  7020  0199  299B               	goto	u3482
  7021  019A  07D2               	addwf	___flmul@prod+2,f
  7022  019B                     u3482:
  7023  019B  0847               	movf	??___flmul+3,w
  7024  019C  1103               	clrz
  7025  019D  1803               	skipnc
  7026  019E  3E01               	addlw	1
  7027  019F  1903               	skipnz
  7028  01A0  29A2               	goto	u3483
  7029  01A1  07D3               	addwf	___flmul@prod+3,f
  7030  01A2                     u3483:
  7031  01A2                     l2483:
  7032  01A2  3008               	movlw	8
  7033  01A3  00C4               	movwf	??___flmul
  7034  01A4                     u3495:
  7035  01A4  1003               	clrc
  7036  01A5  0DCA               	rlf	___flmul@grs,f
  7037  01A6  0DCB               	rlf	___flmul@grs+1,f
  7038  01A7  0DCC               	rlf	___flmul@grs+2,f
  7039  01A8  0DCD               	rlf	___flmul@grs+3,f
  7040  01A9  0BC4               	decfsz	??___flmul,f
  7041  01AA  29A4               	goto	u3495
  7042  01AB                     l2485:
  7043  01AB  083D               	movf	___flmul@b+1,w
  7044  01AC  00C4               	movwf	??___flmul
  7045  01AD  0844               	movf	??___flmul,w
  7046  01AE  00F0               	movwf	__Umul8_16@multiplicand
  7047  01AF  0840               	movf	___flmul@a,w
  7048  01B0  160A  118A  2204  120A  118A  	fcall	__Umul8_16
  7049  01B5  0871               	movf	?__Umul8_16+1,w
  7050  01B6  1283               	bcf	3,5	;RP0=0, select bank0
  7051  01B7  1303               	bcf	3,6	;RP1=0, select bank0
  7052  01B8  00D5               	movwf	___flmul@temp+1
  7053  01B9  0870               	movf	?__Umul8_16,w
  7054  01BA  00D4               	movwf	___flmul@temp
  7055  01BB                     l2487:
  7056  01BB  0854               	movf	___flmul@temp,w
  7057  01BC  00C4               	movwf	??___flmul
  7058  01BD  0855               	movf	___flmul@temp+1,w
  7059  01BE  00C5               	movwf	??___flmul+1
  7060  01BF  01C6               	clrf	??___flmul+2
  7061  01C0  01C7               	clrf	??___flmul+3
  7062  01C1  0844               	movf	??___flmul,w
  7063  01C2  07CA               	addwf	___flmul@grs,f
  7064  01C3  0845               	movf	??___flmul+1,w
  7065  01C4  1103               	clrz
  7066  01C5  1803               	skipnc
  7067  01C6  3E01               	addlw	1
  7068  01C7  1903               	skipnz
  7069  01C8  29CA               	goto	u3501
  7070  01C9  07CB               	addwf	___flmul@grs+1,f
  7071  01CA                     u3501:
  7072  01CA  0846               	movf	??___flmul+2,w
  7073  01CB  1103               	clrz
  7074  01CC  1803               	skipnc
  7075  01CD  3E01               	addlw	1
  7076  01CE  1903               	skipnz
  7077  01CF  29D1               	goto	u3502
  7078  01D0  07CC               	addwf	___flmul@grs+2,f
  7079  01D1                     u3502:
  7080  01D1  0847               	movf	??___flmul+3,w
  7081  01D2  1103               	clrz
  7082  01D3  1803               	skipnc
  7083  01D4  3E01               	addlw	1
  7084  01D5  1903               	skipnz
  7085  01D6  29D8               	goto	u3503
  7086  01D7  07CD               	addwf	___flmul@grs+3,f
  7087  01D8                     u3503:
  7088  01D8                     l2489:
  7089  01D8  083C               	movf	___flmul@b,w
  7090  01D9  00C4               	movwf	??___flmul
  7091  01DA  0844               	movf	??___flmul,w
  7092  01DB  00F0               	movwf	__Umul8_16@multiplicand
  7093  01DC  0841               	movf	___flmul@a+1,w
  7094  01DD  160A  118A  2204  120A  118A  	fcall	__Umul8_16
  7095  01E2  0871               	movf	?__Umul8_16+1,w
  7096  01E3  1283               	bcf	3,5	;RP0=0, select bank0
  7097  01E4  1303               	bcf	3,6	;RP1=0, select bank0
  7098  01E5  00D5               	movwf	___flmul@temp+1
  7099  01E6  0870               	movf	?__Umul8_16,w
  7100  01E7  00D4               	movwf	___flmul@temp
  7101  01E8                     l2491:
  7102  01E8  0854               	movf	___flmul@temp,w
  7103  01E9  00C4               	movwf	??___flmul
  7104  01EA  0855               	movf	___flmul@temp+1,w
  7105  01EB  00C5               	movwf	??___flmul+1
  7106  01EC  01C6               	clrf	??___flmul+2
  7107  01ED  01C7               	clrf	??___flmul+3
  7108  01EE  0844               	movf	??___flmul,w
  7109  01EF  07CA               	addwf	___flmul@grs,f
  7110  01F0  0845               	movf	??___flmul+1,w
  7111  01F1  1103               	clrz
  7112  01F2  1803               	skipnc
  7113  01F3  3E01               	addlw	1
  7114  01F4  1903               	skipnz
  7115  01F5  29F7               	goto	u3511
  7116  01F6  07CB               	addwf	___flmul@grs+1,f
  7117  01F7                     u3511:
  7118  01F7  0846               	movf	??___flmul+2,w
  7119  01F8  1103               	clrz
  7120  01F9  1803               	skipnc
  7121  01FA  3E01               	addlw	1
  7122  01FB  1903               	skipnz
  7123  01FC  29FE               	goto	u3512
  7124  01FD  07CC               	addwf	___flmul@grs+2,f
  7125  01FE                     u3512:
  7126  01FE  0847               	movf	??___flmul+3,w
  7127  01FF  1103               	clrz
  7128  0200  1803               	skipnc
  7129  0201  3E01               	addlw	1
  7130  0202  1903               	skipnz
  7131  0203  2A05               	goto	u3513
  7132  0204  07CD               	addwf	___flmul@grs+3,f
  7133  0205                     u3513:
  7134  0205                     l2493:
  7135  0205  3008               	movlw	8
  7136  0206  00C4               	movwf	??___flmul
  7137  0207                     u3525:
  7138  0207  1003               	clrc
  7139  0208  0DCA               	rlf	___flmul@grs,f
  7140  0209  0DCB               	rlf	___flmul@grs+1,f
  7141  020A  0DCC               	rlf	___flmul@grs+2,f
  7142  020B  0DCD               	rlf	___flmul@grs+3,f
  7143  020C  0BC4               	decfsz	??___flmul,f
  7144  020D  2A07               	goto	u3525
  7145  020E  083C               	movf	___flmul@b,w
  7146  020F  00C4               	movwf	??___flmul
  7147  0210  0844               	movf	??___flmul,w
  7148  0211  00F0               	movwf	__Umul8_16@multiplicand
  7149  0212  0840               	movf	___flmul@a,w
  7150  0213  160A  118A  2204  120A  118A  	fcall	__Umul8_16
  7151  0218  0871               	movf	?__Umul8_16+1,w
  7152  0219  1283               	bcf	3,5	;RP0=0, select bank0
  7153  021A  1303               	bcf	3,6	;RP1=0, select bank0
  7154  021B  00D5               	movwf	___flmul@temp+1
  7155  021C  0870               	movf	?__Umul8_16,w
  7156  021D  00D4               	movwf	___flmul@temp
  7157  021E                     l2495:
  7158  021E  0854               	movf	___flmul@temp,w
  7159  021F  00C4               	movwf	??___flmul
  7160  0220  0855               	movf	___flmul@temp+1,w
  7161  0221  00C5               	movwf	??___flmul+1
  7162  0222  01C6               	clrf	??___flmul+2
  7163  0223  01C7               	clrf	??___flmul+3
  7164  0224  0844               	movf	??___flmul,w
  7165  0225  07CA               	addwf	___flmul@grs,f
  7166  0226  0845               	movf	??___flmul+1,w
  7167  0227  1103               	clrz
  7168  0228  1803               	skipnc
  7169  0229  3E01               	addlw	1
  7170  022A  1903               	skipnz
  7171  022B  2A2D               	goto	u3531
  7172  022C  07CB               	addwf	___flmul@grs+1,f
  7173  022D                     u3531:
  7174  022D  0846               	movf	??___flmul+2,w
  7175  022E  1103               	clrz
  7176  022F  1803               	skipnc
  7177  0230  3E01               	addlw	1
  7178  0231  1903               	skipnz
  7179  0232  2A34               	goto	u3532
  7180  0233  07CC               	addwf	___flmul@grs+2,f
  7181  0234                     u3532:
  7182  0234  0847               	movf	??___flmul+3,w
  7183  0235  1103               	clrz
  7184  0236  1803               	skipnc
  7185  0237  3E01               	addlw	1
  7186  0238  1903               	skipnz
  7187  0239  2A3B               	goto	u3533
  7188  023A  07CD               	addwf	___flmul@grs+3,f
  7189  023B                     u3533:
  7190  023B                     l2497:
  7191  023B  083D               	movf	___flmul@b+1,w
  7192  023C  00C4               	movwf	??___flmul
  7193  023D  0844               	movf	??___flmul,w
  7194  023E  00F0               	movwf	__Umul8_16@multiplicand
  7195  023F  0842               	movf	___flmul@a+2,w
  7196  0240  160A  118A  2204  120A  118A  	fcall	__Umul8_16
  7197  0245  0871               	movf	?__Umul8_16+1,w
  7198  0246  1283               	bcf	3,5	;RP0=0, select bank0
  7199  0247  1303               	bcf	3,6	;RP1=0, select bank0
  7200  0248  00D5               	movwf	___flmul@temp+1
  7201  0249  0870               	movf	?__Umul8_16,w
  7202  024A  00D4               	movwf	___flmul@temp
  7203  024B  0854               	movf	___flmul@temp,w
  7204  024C  00C4               	movwf	??___flmul
  7205  024D  0855               	movf	___flmul@temp+1,w
  7206  024E  00C5               	movwf	??___flmul+1
  7207  024F  01C6               	clrf	??___flmul+2
  7208  0250  01C7               	clrf	??___flmul+3
  7209  0251  0844               	movf	??___flmul,w
  7210  0252  07D0               	addwf	___flmul@prod,f
  7211  0253  0845               	movf	??___flmul+1,w
  7212  0254  1103               	clrz
  7213  0255  1803               	skipnc
  7214  0256  3E01               	addlw	1
  7215  0257  1903               	skipnz
  7216  0258  2A5A               	goto	u3541
  7217  0259  07D1               	addwf	___flmul@prod+1,f
  7218  025A                     u3541:
  7219  025A  0846               	movf	??___flmul+2,w
  7220  025B  1103               	clrz
  7221  025C  1803               	skipnc
  7222  025D  3E01               	addlw	1
  7223  025E  1903               	skipnz
  7224  025F  2A61               	goto	u3542
  7225  0260  07D2               	addwf	___flmul@prod+2,f
  7226  0261                     u3542:
  7227  0261  0847               	movf	??___flmul+3,w
  7228  0262  1103               	clrz
  7229  0263  1803               	skipnc
  7230  0264  3E01               	addlw	1
  7231  0265  1903               	skipnz
  7232  0266  2A68               	goto	u3543
  7233  0267  07D3               	addwf	___flmul@prod+3,f
  7234  0268                     u3543:
  7235  0268                     l2499:
  7236  0268  083E               	movf	___flmul@b+2,w
  7237  0269  00C4               	movwf	??___flmul
  7238  026A  0844               	movf	??___flmul,w
  7239  026B  00F0               	movwf	__Umul8_16@multiplicand
  7240  026C  0841               	movf	___flmul@a+1,w
  7241  026D  160A  118A  2204  120A  118A  	fcall	__Umul8_16
  7242  0272  0871               	movf	?__Umul8_16+1,w
  7243  0273  1283               	bcf	3,5	;RP0=0, select bank0
  7244  0274  1303               	bcf	3,6	;RP1=0, select bank0
  7245  0275  00D5               	movwf	___flmul@temp+1
  7246  0276  0870               	movf	?__Umul8_16,w
  7247  0277  00D4               	movwf	___flmul@temp
  7248  0278                     l2501:
  7249  0278  0854               	movf	___flmul@temp,w
  7250  0279  00C4               	movwf	??___flmul
  7251  027A  0855               	movf	___flmul@temp+1,w
  7252  027B  00C5               	movwf	??___flmul+1
  7253  027C  01C6               	clrf	??___flmul+2
  7254  027D  01C7               	clrf	??___flmul+3
  7255  027E  0844               	movf	??___flmul,w
  7256  027F  07D0               	addwf	___flmul@prod,f
  7257  0280  0845               	movf	??___flmul+1,w
  7258  0281  1103               	clrz
  7259  0282  1803               	skipnc
  7260  0283  3E01               	addlw	1
  7261  0284  1903               	skipnz
  7262  0285  2A87               	goto	u3551
  7263  0286  07D1               	addwf	___flmul@prod+1,f
  7264  0287                     u3551:
  7265  0287  0846               	movf	??___flmul+2,w
  7266  0288  1103               	clrz
  7267  0289  1803               	skipnc
  7268  028A  3E01               	addlw	1
  7269  028B  1903               	skipnz
  7270  028C  2A8E               	goto	u3552
  7271  028D  07D2               	addwf	___flmul@prod+2,f
  7272  028E                     u3552:
  7273  028E  0847               	movf	??___flmul+3,w
  7274  028F  1103               	clrz
  7275  0290  1803               	skipnc
  7276  0291  3E01               	addlw	1
  7277  0292  1903               	skipnz
  7278  0293  2A95               	goto	u3553
  7279  0294  07D3               	addwf	___flmul@prod+3,f
  7280  0295                     u3553:
  7281  0295  083E               	movf	___flmul@b+2,w
  7282  0296  00C4               	movwf	??___flmul
  7283  0297  0844               	movf	??___flmul,w
  7284  0298  00F0               	movwf	__Umul8_16@multiplicand
  7285  0299  0842               	movf	___flmul@a+2,w
  7286  029A  160A  118A  2204  120A  118A  	fcall	__Umul8_16
  7287  029F  0871               	movf	?__Umul8_16+1,w
  7288  02A0  1283               	bcf	3,5	;RP0=0, select bank0
  7289  02A1  1303               	bcf	3,6	;RP1=0, select bank0
  7290  02A2  00D5               	movwf	___flmul@temp+1
  7291  02A3  0870               	movf	?__Umul8_16,w
  7292  02A4  00D4               	movwf	___flmul@temp
  7293  02A5                     l2503:
  7294  02A5  0854               	movf	___flmul@temp,w
  7295  02A6  00C4               	movwf	??___flmul
  7296  02A7  0855               	movf	___flmul@temp+1,w
  7297  02A8  00C5               	movwf	??___flmul+1
  7298  02A9  01C6               	clrf	??___flmul+2
  7299  02AA  01C7               	clrf	??___flmul+3
  7300  02AB  3008               	movlw	8
  7301  02AC                     u3565:
  7302  02AC  1003               	clrc
  7303  02AD  0DC4               	rlf	??___flmul,f
  7304  02AE  0DC5               	rlf	??___flmul+1,f
  7305  02AF  0DC6               	rlf	??___flmul+2,f
  7306  02B0  0DC7               	rlf	??___flmul+3,f
  7307  02B1                     u3560:
  7308  02B1  3EFF               	addlw	-1
  7309  02B2  1D03               	skipz
  7310  02B3  2AAC               	goto	u3565
  7311  02B4  0844               	movf	??___flmul,w
  7312  02B5  07D0               	addwf	___flmul@prod,f
  7313  02B6  0845               	movf	??___flmul+1,w
  7314  02B7  1103               	clrz
  7315  02B8  1803               	skipnc
  7316  02B9  3E01               	addlw	1
  7317  02BA  1903               	skipnz
  7318  02BB  2ABD               	goto	u3571
  7319  02BC  07D1               	addwf	___flmul@prod+1,f
  7320  02BD                     u3571:
  7321  02BD  0846               	movf	??___flmul+2,w
  7322  02BE  1103               	clrz
  7323  02BF  1803               	skipnc
  7324  02C0  3E01               	addlw	1
  7325  02C1  1903               	skipnz
  7326  02C2  2AC4               	goto	u3572
  7327  02C3  07D2               	addwf	___flmul@prod+2,f
  7328  02C4                     u3572:
  7329  02C4  0847               	movf	??___flmul+3,w
  7330  02C5  1103               	clrz
  7331  02C6  1803               	skipnc
  7332  02C7  3E01               	addlw	1
  7333  02C8  1903               	skipnz
  7334  02C9  2ACB               	goto	u3573
  7335  02CA  07D3               	addwf	___flmul@prod+3,f
  7336  02CB                     u3573:
  7337  02CB                     l2505:
  7338  02CB  084A               	movf	___flmul@grs,w
  7339  02CC  00C4               	movwf	??___flmul
  7340  02CD  084B               	movf	___flmul@grs+1,w
  7341  02CE  00C5               	movwf	??___flmul+1
  7342  02CF  084C               	movf	___flmul@grs+2,w
  7343  02D0  00C6               	movwf	??___flmul+2
  7344  02D1  084D               	movf	___flmul@grs+3,w
  7345  02D2  00C7               	movwf	??___flmul+3
  7346  02D3  3018               	movlw	24
  7347  02D4                     u3585:
  7348  02D4  1003               	clrc
  7349  02D5  0CC7               	rrf	??___flmul+3,f
  7350  02D6  0CC6               	rrf	??___flmul+2,f
  7351  02D7  0CC5               	rrf	??___flmul+1,f
  7352  02D8  0CC4               	rrf	??___flmul,f
  7353  02D9                     u3580:
  7354  02D9  3EFF               	addlw	-1
  7355  02DA  1D03               	skipz
  7356  02DB  2AD4               	goto	u3585
  7357  02DC  0844               	movf	??___flmul,w
  7358  02DD  07D0               	addwf	___flmul@prod,f
  7359  02DE  0845               	movf	??___flmul+1,w
  7360  02DF  1103               	clrz
  7361  02E0  1803               	skipnc
  7362  02E1  3E01               	addlw	1
  7363  02E2  1903               	skipnz
  7364  02E3  2AE5               	goto	u3591
  7365  02E4  07D1               	addwf	___flmul@prod+1,f
  7366  02E5                     u3591:
  7367  02E5  0846               	movf	??___flmul+2,w
  7368  02E6  1103               	clrz
  7369  02E7  1803               	skipnc
  7370  02E8  3E01               	addlw	1
  7371  02E9  1903               	skipnz
  7372  02EA  2AEC               	goto	u3592
  7373  02EB  07D2               	addwf	___flmul@prod+2,f
  7374  02EC                     u3592:
  7375  02EC  0847               	movf	??___flmul+3,w
  7376  02ED  1103               	clrz
  7377  02EE  1803               	skipnc
  7378  02EF  3E01               	addlw	1
  7379  02F0  1903               	skipnz
  7380  02F1  2AF3               	goto	u3593
  7381  02F2  07D3               	addwf	___flmul@prod+3,f
  7382  02F3                     u3593:
  7383  02F3                     l2507:
  7384  02F3  3008               	movlw	8
  7385  02F4  00C4               	movwf	??___flmul
  7386  02F5                     u3605:
  7387  02F5  1003               	clrc
  7388  02F6  0DCA               	rlf	___flmul@grs,f
  7389  02F7  0DCB               	rlf	___flmul@grs+1,f
  7390  02F8  0DCC               	rlf	___flmul@grs+2,f
  7391  02F9  0DCD               	rlf	___flmul@grs+3,f
  7392  02FA  0BC4               	decfsz	??___flmul,f
  7393  02FB  2AF5               	goto	u3605
  7394  02FC                     l2509:
  7395  02FC  084F               	movf	___flmul@bexp,w
  7396  02FD  074E               	addwf	___flmul@aexp,w
  7397  02FE  00C4               	movwf	??___flmul
  7398  02FF  01C5               	clrf	??___flmul+1
  7399  0300  0DC5               	rlf	??___flmul+1,f
  7400  0301  0844               	movf	??___flmul,w
  7401  0302  3E82               	addlw	130
  7402  0303  00D4               	movwf	___flmul@temp
  7403  0304  0845               	movf	??___flmul+1,w
  7404  0305  1803               	skipnc
  7405  0306  3E01               	addlw	1
  7406  0307  3EFF               	addlw	255
  7407  0308  00D5               	movwf	___flmul@temp+1
  7408  0309  2B27               	goto	l2521
  7409  030A                     l2511:
  7410  030A  3001               	movlw	1
  7411  030B  00C4               	movwf	??___flmul
  7412  030C                     u3615:
  7413  030C  1003               	clrc
  7414  030D  0DD0               	rlf	___flmul@prod,f
  7415  030E  0DD1               	rlf	___flmul@prod+1,f
  7416  030F  0DD2               	rlf	___flmul@prod+2,f
  7417  0310  0DD3               	rlf	___flmul@prod+3,f
  7418  0311  0BC4               	decfsz	??___flmul,f
  7419  0312  2B0C               	goto	u3615
  7420  0313                     l2513:
  7421  0313  1FCD               	btfss	___flmul@grs+3,7
  7422  0314  2B16               	goto	u3621
  7423  0315  2B17               	goto	u3620
  7424  0316                     u3621:
  7425  0316  2B18               	goto	l2517
  7426  0317                     u3620:
  7427  0317                     l2515:
  7428  0317  1450               	bsf	___flmul@prod,0
  7429  0318                     l2517:
  7430  0318  3001               	movlw	1
  7431  0319  00C4               	movwf	??___flmul
  7432  031A                     u3635:
  7433  031A  1003               	clrc
  7434  031B  0DCA               	rlf	___flmul@grs,f
  7435  031C  0DCB               	rlf	___flmul@grs+1,f
  7436  031D  0DCC               	rlf	___flmul@grs+2,f
  7437  031E  0DCD               	rlf	___flmul@grs+3,f
  7438  031F  0BC4               	decfsz	??___flmul,f
  7439  0320  2B1A               	goto	u3635
  7440  0321                     l2519:
  7441  0321  30FF               	movlw	255
  7442  0322  07D4               	addwf	___flmul@temp,f
  7443  0323  1803               	skipnc
  7444  0324  0AD5               	incf	___flmul@temp+1,f
  7445  0325  30FF               	movlw	255
  7446  0326  07D5               	addwf	___flmul@temp+1,f
  7447  0327                     l2521:
  7448  0327  1FD2               	btfss	___flmul@prod+2,7
  7449  0328  2B2A               	goto	u3641
  7450  0329  2B2B               	goto	u3640
  7451  032A                     u3641:
  7452  032A  2B0A               	goto	l2511
  7453  032B                     u3640:
  7454  032B                     l2523:
  7455  032B  01CE               	clrf	___flmul@aexp
  7456  032C                     l2525:
  7457  032C  1FCD               	btfss	___flmul@grs+3,7
  7458  032D  2B2F               	goto	u3651
  7459  032E  2B30               	goto	u3650
  7460  032F                     u3651:
  7461  032F  2B4C               	goto	l2533
  7462  0330                     u3650:
  7463  0330                     l2527:
  7464  0330  30FF               	movlw	255
  7465  0331  054A               	andwf	___flmul@grs,w
  7466  0332  00C4               	movwf	??___flmul
  7467  0333  30FF               	movlw	255
  7468  0334  054B               	andwf	___flmul@grs+1,w
  7469  0335  00C5               	movwf	??___flmul+1
  7470  0336  30FF               	movlw	255
  7471  0337  054C               	andwf	___flmul@grs+2,w
  7472  0338  00C6               	movwf	??___flmul+2
  7473  0339  307F               	movlw	127
  7474  033A  054D               	andwf	___flmul@grs+3,w
  7475  033B  00C7               	movwf	??___flmul+3
  7476  033C  0847               	movf	??___flmul+3,w
  7477  033D  0446               	iorwf	??___flmul+2,w
  7478  033E  0445               	iorwf	??___flmul+1,w
  7479  033F  0444               	iorwf	??___flmul,w
  7480  0340  1903               	skipnz
  7481  0341  2B43               	goto	u3661
  7482  0342  2B44               	goto	u3660
  7483  0343                     u3661:
  7484  0343  2B47               	goto	l732
  7485  0344                     u3660:
  7486  0344                     l2529:
  7487  0344  01CE               	clrf	___flmul@aexp
  7488  0345  0ACE               	incf	___flmul@aexp,f
  7489  0346  2B4C               	goto	l2533
  7490  0347                     l732:
  7491  0347  1C50               	btfss	___flmul@prod,0
  7492  0348  2B4A               	goto	u3671
  7493  0349  2B4B               	goto	u3670
  7494  034A                     u3671:
  7495  034A  2B4C               	goto	l2533
  7496  034B                     u3670:
  7497  034B  2B44               	goto	l2529
  7498  034C                     l2533:
  7499  034C  084E               	movf	___flmul@aexp,w
  7500  034D  1903               	btfsc	3,2
  7501  034E  2B50               	goto	u3681
  7502  034F  2B51               	goto	u3680
  7503  0350                     u3681:
  7504  0350  2B82               	goto	l2543
  7505  0351                     u3680:
  7506  0351                     l2535:
  7507  0351  3001               	movlw	1
  7508  0352  07D0               	addwf	___flmul@prod,f
  7509  0353  3000               	movlw	0
  7510  0354  1803               	skipnc
  7511  0355  3001               	movlw	1
  7512  0356  07D1               	addwf	___flmul@prod+1,f
  7513  0357  3000               	movlw	0
  7514  0358  1803               	skipnc
  7515  0359  3001               	movlw	1
  7516  035A  07D2               	addwf	___flmul@prod+2,f
  7517  035B  3000               	movlw	0
  7518  035C  1803               	skipnc
  7519  035D  3001               	movlw	1
  7520  035E  07D3               	addwf	___flmul@prod+3,f
  7521  035F                     l2537:
  7522  035F  1C53               	btfss	___flmul@prod+3,0
  7523  0360  2B62               	goto	u3691
  7524  0361  2B63               	goto	u3690
  7525  0362                     u3691:
  7526  0362  2B82               	goto	l2543
  7527  0363                     u3690:
  7528  0363                     l2539:
  7529  0363  0850               	movf	___flmul@prod,w
  7530  0364  00C4               	movwf	??___flmul
  7531  0365  0851               	movf	___flmul@prod+1,w
  7532  0366  00C5               	movwf	??___flmul+1
  7533  0367  0852               	movf	___flmul@prod+2,w
  7534  0368  00C6               	movwf	??___flmul+2
  7535  0369  0853               	movf	___flmul@prod+3,w
  7536  036A  00C7               	movwf	??___flmul+3
  7537  036B  3001               	movlw	1
  7538  036C  00C8               	movwf	??___flmul+4
  7539  036D                     u3705:
  7540  036D  0D47               	rlf	??___flmul+3,w
  7541  036E  0CC7               	rrf	??___flmul+3,f
  7542  036F  0CC6               	rrf	??___flmul+2,f
  7543  0370  0CC5               	rrf	??___flmul+1,f
  7544  0371  0CC4               	rrf	??___flmul,f
  7545  0372                     u3700:
  7546  0372  0BC8               	decfsz	??___flmul+4,f
  7547  0373  2B6D               	goto	u3705
  7548  0374  0847               	movf	??___flmul+3,w
  7549  0375  00D3               	movwf	___flmul@prod+3
  7550  0376  0846               	movf	??___flmul+2,w
  7551  0377  00D2               	movwf	___flmul@prod+2
  7552  0378  0845               	movf	??___flmul+1,w
  7553  0379  00D1               	movwf	___flmul@prod+1
  7554  037A  0844               	movf	??___flmul,w
  7555  037B  00D0               	movwf	___flmul@prod
  7556  037C                     l2541:
  7557  037C  3001               	movlw	1
  7558  037D  07D4               	addwf	___flmul@temp,f
  7559  037E  1803               	skipnc
  7560  037F  0AD5               	incf	___flmul@temp+1,f
  7561  0380  3000               	movlw	0
  7562  0381  07D5               	addwf	___flmul@temp+1,f
  7563  0382                     l2543:
  7564  0382  0855               	movf	___flmul@temp+1,w
  7565  0383  3A80               	xorlw	128
  7566  0384  00FF               	movwf	btemp+1
  7567  0385  3080               	movlw	128
  7568  0386  027F               	subwf	btemp+1,w
  7569  0387  1D03               	skipz
  7570  0388  2B8B               	goto	u3715
  7571  0389  30FF               	movlw	255
  7572  038A  0254               	subwf	___flmul@temp,w
  7573  038B                     u3715:
  7574  038B  1C03               	skipc
  7575  038C  2B8E               	goto	u3711
  7576  038D  2B8F               	goto	u3710
  7577  038E                     u3711:
  7578  038E  2B9A               	goto	l2547
  7579  038F                     u3710:
  7580  038F                     l2545:
  7581  038F  307F               	movlw	127
  7582  0390  1283               	bcf	3,5	;RP0=0, select bank0
  7583  0391  1303               	bcf	3,6	;RP1=0, select bank0
  7584  0392  00D3               	movwf	___flmul@prod+3
  7585  0393  3080               	movlw	128
  7586  0394  00D2               	movwf	___flmul@prod+2
  7587  0395  3000               	movlw	0
  7588  0396  00D1               	movwf	___flmul@prod+1
  7589  0397  3000               	movlw	0
  7590  0398  00D0               	movwf	___flmul@prod
  7591  0399  2BCF               	goto	l738
  7592  039A                     l2547:
  7593  039A  1283               	bcf	3,5	;RP0=0, select bank0
  7594  039B  1303               	bcf	3,6	;RP1=0, select bank0
  7595  039C  0855               	movf	___flmul@temp+1,w
  7596  039D  3A80               	xorlw	128
  7597  039E  00FF               	movwf	btemp+1
  7598  039F  3080               	movlw	128
  7599  03A0  027F               	subwf	btemp+1,w
  7600  03A1  1D03               	skipz
  7601  03A2  2BA5               	goto	u3725
  7602  03A3  3001               	movlw	1
  7603  03A4  0254               	subwf	___flmul@temp,w
  7604  03A5                     u3725:
  7605  03A5  1803               	skipnc
  7606  03A6  2BA8               	goto	u3721
  7607  03A7  2BA9               	goto	u3720
  7608  03A8                     u3721:
  7609  03A8  2BB5               	goto	l2553
  7610  03A9                     u3720:
  7611  03A9                     l2549:
  7612  03A9  3000               	movlw	0
  7613  03AA  1283               	bcf	3,5	;RP0=0, select bank0
  7614  03AB  1303               	bcf	3,6	;RP1=0, select bank0
  7615  03AC  00D3               	movwf	___flmul@prod+3
  7616  03AD  3000               	movlw	0
  7617  03AE  00D2               	movwf	___flmul@prod+2
  7618  03AF  3000               	movlw	0
  7619  03B0  00D1               	movwf	___flmul@prod+1
  7620  03B1  3000               	movlw	0
  7621  03B2  00D0               	movwf	___flmul@prod
  7622  03B3                     l2551:
  7623  03B3  01C9               	clrf	___flmul@sign
  7624  03B4  2BCF               	goto	l738
  7625  03B5                     l2553:
  7626  03B5  1283               	bcf	3,5	;RP0=0, select bank0
  7627  03B6  1303               	bcf	3,6	;RP1=0, select bank0
  7628  03B7  0854               	movf	___flmul@temp,w
  7629  03B8  00C4               	movwf	??___flmul
  7630  03B9  0844               	movf	??___flmul,w
  7631  03BA  00CF               	movwf	___flmul@bexp
  7632  03BB  30FF               	movlw	255
  7633  03BC  05D0               	andwf	___flmul@prod,f
  7634  03BD  30FF               	movlw	255
  7635  03BE  05D1               	andwf	___flmul@prod+1,f
  7636  03BF  307F               	movlw	127
  7637  03C0  05D2               	andwf	___flmul@prod+2,f
  7638  03C1  3000               	movlw	0
  7639  03C2  05D3               	andwf	___flmul@prod+3,f
  7640  03C3                     l2555:
  7641  03C3  1C4F               	btfss	___flmul@bexp,0
  7642  03C4  2BC6               	goto	u3731
  7643  03C5  2BC7               	goto	u3730
  7644  03C6                     u3731:
  7645  03C6  2BC8               	goto	l2559
  7646  03C7                     u3730:
  7647  03C7                     l2557:
  7648  03C7  17D2               	bsf	___flmul@prod+2,7
  7649  03C8                     l2559:
  7650  03C8  084F               	movf	___flmul@bexp,w
  7651  03C9  00C4               	movwf	??___flmul
  7652  03CA  1003               	clrc
  7653  03CB  0C44               	rrf	??___flmul,w
  7654  03CC  00C5               	movwf	??___flmul+1
  7655  03CD  0845               	movf	??___flmul+1,w
  7656  03CE  00D3               	movwf	___flmul@prod+3
  7657  03CF                     l738:
  7658  03CF  0849               	movf	___flmul@sign,w
  7659  03D0  00C4               	movwf	??___flmul
  7660  03D1  0844               	movf	??___flmul,w
  7661  03D2  04D3               	iorwf	___flmul@prod+3,f
  7662  03D3                     l2561:
  7663  03D3  0853               	movf	___flmul@prod+3,w
  7664  03D4  00BF               	movwf	?___flmul+3
  7665  03D5  0852               	movf	___flmul@prod+2,w
  7666  03D6  00BE               	movwf	?___flmul+2
  7667  03D7  0851               	movf	___flmul@prod+1,w
  7668  03D8  00BD               	movwf	?___flmul+1
  7669  03D9  0850               	movf	___flmul@prod,w
  7670  03DA  00BC               	movwf	?___flmul
  7671  03DB                     l726:
  7672  03DB  0008               	return
  7673  03DC                     __end_of___flmul:
  7674                           
  7675                           	psect	text24
  7676  1204                     __ptext24:	
  7677 ;; *************** function __Umul8_16 *****************
  7678 ;; Defined at:
  7679 ;;		line 4 in file "C:\Program Files\Microchip\xc8\v2.32\pic\sources\c90\common\Umul8_16.c"
  7680 ;; Parameters:    Size  Location     Type
  7681 ;;  multiplier      1    wreg     unsigned char 
  7682 ;;  multiplicand    1    0[COMMON] unsigned char 
  7683 ;; Auto vars:     Size  Location     Type
  7684 ;;  multiplier      1    8[COMMON] unsigned char 
  7685 ;;  word_mpld       2    6[COMMON] unsigned int 
  7686 ;;  product         2    4[COMMON] unsigned int 
  7687 ;; Return value:  Size  Location     Type
  7688 ;;                  2    0[COMMON] unsigned int 
  7689 ;; Registers used:
  7690 ;;		wreg, status,2, status,0
  7691 ;; Tracked objects:
  7692 ;;		On entry : 0/0
  7693 ;;		On exit  : 0/0
  7694 ;;		Unchanged: 0/0
  7695 ;; Data sizes:     COMMON   BANK0   BANK1   BANK3   BANK2
  7696 ;;      Params:         2       0       0       0       0
  7697 ;;      Locals:         5       0       0       0       0
  7698 ;;      Temps:          2       0       0       0       0
  7699 ;;      Totals:         9       0       0       0       0
  7700 ;;Total ram usage:        9 bytes
  7701 ;; Hardware stack levels used: 1
  7702 ;; This function calls:
  7703 ;;		Nothing
  7704 ;; This function is called by:
  7705 ;;		___flmul
  7706 ;; This function uses a non-reentrant model
  7707 ;;
  7708                           
  7709                           
  7710                           ;psect for function __Umul8_16
  7711  1204                     __Umul8_16:
  7712                           
  7713                           ;incstack = 0
  7714                           ; Regs used in __Umul8_16: [wreg+status,2+status,0]
  7715                           ;__Umul8_16@multiplier stored from wreg
  7716  1204  00F8               	movwf	__Umul8_16@multiplier
  7717  1205                     l1979:
  7718  1205  01F4               	clrf	__Umul8_16@product
  7719  1206  01F5               	clrf	__Umul8_16@product+1
  7720  1207                     l1981:
  7721  1207  0870               	movf	__Umul8_16@multiplicand,w
  7722  1208  00F2               	movwf	??__Umul8_16
  7723  1209  01F3               	clrf	??__Umul8_16+1
  7724  120A  0872               	movf	??__Umul8_16,w
  7725  120B  00F6               	movwf	__Umul8_16@word_mpld
  7726  120C  0873               	movf	??__Umul8_16+1,w
  7727  120D  00F7               	movwf	__Umul8_16@word_mpld+1
  7728  120E                     l1983:
  7729  120E  1C78               	btfss	__Umul8_16@multiplier,0
  7730  120F  2A11               	goto	u2341
  7731  1210  2A12               	goto	u2340
  7732  1211                     u2341:
  7733  1211  2A18               	goto	l745
  7734  1212                     u2340:
  7735  1212                     l1985:
  7736  1212  0876               	movf	__Umul8_16@word_mpld,w
  7737  1213  07F4               	addwf	__Umul8_16@product,f
  7738  1214  1803               	skipnc
  7739  1215  0AF5               	incf	__Umul8_16@product+1,f
  7740  1216  0877               	movf	__Umul8_16@word_mpld+1,w
  7741  1217  07F5               	addwf	__Umul8_16@product+1,f
  7742  1218                     l745:
  7743  1218  3001               	movlw	1
  7744  1219                     u2355:
  7745  1219  1003               	clrc
  7746  121A  0DF6               	rlf	__Umul8_16@word_mpld,f
  7747  121B  0DF7               	rlf	__Umul8_16@word_mpld+1,f
  7748  121C  3EFF               	addlw	-1
  7749  121D  1D03               	skipz
  7750  121E  2A19               	goto	u2355
  7751  121F  1003               	clrc
  7752  1220  0CF8               	rrf	__Umul8_16@multiplier,f
  7753  1221                     l1987:
  7754  1221  0878               	movf	__Umul8_16@multiplier,w
  7755  1222  1D03               	btfss	3,2
  7756  1223  2A25               	goto	u2361
  7757  1224  2A26               	goto	u2360
  7758  1225                     u2361:
  7759  1225  2A0E               	goto	l1983
  7760  1226                     u2360:
  7761  1226                     l1989:
  7762  1226  0875               	movf	__Umul8_16@product+1,w
  7763  1227  00F1               	movwf	?__Umul8_16+1
  7764  1228  0874               	movf	__Umul8_16@product,w
  7765  1229  00F0               	movwf	?__Umul8_16
  7766  122A                     l747:
  7767  122A  0008               	return
  7768  122B                     __end_of__Umul8_16:
  7769                           
  7770                           	psect	text25
  7771  0B15                     __ptext25:	
  7772 ;; *************** function ___fldiv *****************
  7773 ;; Defined at:
  7774 ;;		line 8 in file "C:\Program Files\Microchip\xc8\v2.32\pic\sources\c90\common\sprcdiv.c"
  7775 ;; Parameters:    Size  Location     Type
  7776 ;;  a               4    8[BANK1 ] unsigned int 
  7777 ;;  b               4   12[BANK1 ] unsigned int 
  7778 ;; Auto vars:     Size  Location     Type
  7779 ;;  grs             4   23[BANK1 ] unsigned long 
  7780 ;;  rem             4   16[BANK1 ] unsigned long 
  7781 ;;  new_exp         2   21[BANK1 ] int 
  7782 ;;  aexp            1   28[BANK1 ] unsigned char 
  7783 ;;  bexp            1   27[BANK1 ] unsigned char 
  7784 ;;  sign            1   20[BANK1 ] unsigned char 
  7785 ;; Return value:  Size  Location     Type
  7786 ;;                  4    8[BANK1 ] unsigned char 
  7787 ;; Registers used:
  7788 ;;		wreg, status,2, status,0, btemp+1
  7789 ;; Tracked objects:
  7790 ;;		On entry : 0/0
  7791 ;;		On exit  : 0/0
  7792 ;;		Unchanged: 0/0
  7793 ;; Data sizes:     COMMON   BANK0   BANK1   BANK3   BANK2
  7794 ;;      Params:         0       0       8       0       0
  7795 ;;      Locals:         0       0      13       0       0
  7796 ;;      Temps:          0       5       0       0       0
  7797 ;;      Totals:         0       5      21       0       0
  7798 ;;Total ram usage:       26 bytes
  7799 ;; Hardware stack levels used: 1
  7800 ;; This function calls:
  7801 ;;		Nothing
  7802 ;; This function is called by:
  7803 ;;		_realizarCalculo
  7804 ;;		_PWM1_Duty
  7805 ;;		_PWM2_Duty
  7806 ;; This function uses a non-reentrant model
  7807 ;;
  7808                           
  7809                           
  7810                           ;psect for function ___fldiv
  7811  0B15                     ___fldiv:
  7812  0B15                     l2283:	
  7813                           ;incstack = 0
  7814                           ; Regs used in ___fldiv: [wreg+status,2+status,0+btemp+1]
  7815                           
  7816  0B15  1683               	bsf	3,5	;RP0=1, select bank1
  7817  0B16  1303               	bcf	3,6	;RP1=0, select bank1
  7818  0B17  082F               	movf	(___fldiv@b^(0+128)+3),w
  7819  0B18  3980               	andlw	128
  7820  0B19  1283               	bcf	3,5	;RP0=0, select bank0
  7821  0B1A  1303               	bcf	3,6	;RP1=0, select bank0
  7822  0B1B  00EA               	movwf	??___fldiv
  7823  0B1C  086A               	movf	??___fldiv,w
  7824  0B1D  1683               	bsf	3,5	;RP0=1, select bank1
  7825  0B1E  1303               	bcf	3,6	;RP1=0, select bank1
  7826  0B1F  00B4               	movwf	___fldiv@sign^(0+128)
  7827  0B20                     l2285:
  7828  0B20  082F               	movf	(___fldiv@b^(0+128)+3),w
  7829  0B21  1283               	bcf	3,5	;RP0=0, select bank0
  7830  0B22  1303               	bcf	3,6	;RP1=0, select bank0
  7831  0B23  00EA               	movwf	??___fldiv
  7832  0B24  076A               	addwf	??___fldiv,w
  7833  0B25  00EB               	movwf	??___fldiv+1
  7834  0B26  086B               	movf	??___fldiv+1,w
  7835  0B27  1683               	bsf	3,5	;RP0=1, select bank1
  7836  0B28  1303               	bcf	3,6	;RP1=0, select bank1
  7837  0B29  00BB               	movwf	___fldiv@bexp^(0+128)
  7838  0B2A                     l2287:
  7839  0B2A  1FAE               	btfss	(___fldiv@b^(0+128)+2),7
  7840  0B2B  2B2D               	goto	u3081
  7841  0B2C  2B2E               	goto	u3080
  7842  0B2D                     u3081:
  7843  0B2D  2B2F               	goto	l2291
  7844  0B2E                     u3080:
  7845  0B2E                     l2289:
  7846  0B2E  143B               	bsf	___fldiv@bexp^(0+128),0
  7847  0B2F                     l2291:
  7848  0B2F  083B               	movf	___fldiv@bexp^(0+128),w
  7849  0B30  1903               	btfsc	3,2
  7850  0B31  2B33               	goto	u3091
  7851  0B32  2B34               	goto	u3090
  7852  0B33                     u3091:
  7853  0B33  2B44               	goto	l2301
  7854  0B34                     u3090:
  7855  0B34                     l2293:
  7856  0B34  0A3B               	incf	___fldiv@bexp^(0+128),w
  7857  0B35  1D03               	btfss	3,2
  7858  0B36  2B38               	goto	u3101
  7859  0B37  2B39               	goto	u3100
  7860  0B38                     u3101:
  7861  0B38  2B41               	goto	l2297
  7862  0B39                     u3100:
  7863  0B39                     l2295:
  7864  0B39  3000               	movlw	0
  7865  0B3A  00AF               	movwf	(___fldiv@b+3)^(0+128)
  7866  0B3B  3000               	movlw	0
  7867  0B3C  00AE               	movwf	(___fldiv@b+2)^(0+128)
  7868  0B3D  3000               	movlw	0
  7869  0B3E  00AD               	movwf	(___fldiv@b+1)^(0+128)
  7870  0B3F  3000               	movlw	0
  7871  0B40  00AC               	movwf	___fldiv@b^(0+128)
  7872  0B41                     l2297:
  7873  0B41  17AE               	bsf	(___fldiv@b^(0+128)+2),7
  7874  0B42                     l2299:
  7875  0B42  01AF               	clrf	(___fldiv@b^(0+128)+3)
  7876  0B43  2B4C               	goto	l2303
  7877  0B44                     l2301:
  7878  0B44  3000               	movlw	0
  7879  0B45  00AF               	movwf	(___fldiv@b+3)^(0+128)
  7880  0B46  3000               	movlw	0
  7881  0B47  00AE               	movwf	(___fldiv@b+2)^(0+128)
  7882  0B48  3000               	movlw	0
  7883  0B49  00AD               	movwf	(___fldiv@b+1)^(0+128)
  7884  0B4A  3000               	movlw	0
  7885  0B4B  00AC               	movwf	___fldiv@b^(0+128)
  7886  0B4C                     l2303:
  7887  0B4C  082B               	movf	(___fldiv@a^(0+128)+3),w
  7888  0B4D  3980               	andlw	128
  7889  0B4E  1283               	bcf	3,5	;RP0=0, select bank0
  7890  0B4F  1303               	bcf	3,6	;RP1=0, select bank0
  7891  0B50  00EA               	movwf	??___fldiv
  7892  0B51  086A               	movf	??___fldiv,w
  7893  0B52  1683               	bsf	3,5	;RP0=1, select bank1
  7894  0B53  1303               	bcf	3,6	;RP1=0, select bank1
  7895  0B54  06B4               	xorwf	___fldiv@sign^(0+128),f
  7896  0B55                     l2305:
  7897  0B55  082B               	movf	(___fldiv@a^(0+128)+3),w
  7898  0B56  1283               	bcf	3,5	;RP0=0, select bank0
  7899  0B57  1303               	bcf	3,6	;RP1=0, select bank0
  7900  0B58  00EA               	movwf	??___fldiv
  7901  0B59  076A               	addwf	??___fldiv,w
  7902  0B5A  00EB               	movwf	??___fldiv+1
  7903  0B5B  086B               	movf	??___fldiv+1,w
  7904  0B5C  1683               	bsf	3,5	;RP0=1, select bank1
  7905  0B5D  1303               	bcf	3,6	;RP1=0, select bank1
  7906  0B5E  00BC               	movwf	___fldiv@aexp^(0+128)
  7907  0B5F                     l2307:
  7908  0B5F  1FAA               	btfss	(___fldiv@a^(0+128)+2),7
  7909  0B60  2B62               	goto	u3111
  7910  0B61  2B63               	goto	u3110
  7911  0B62                     u3111:
  7912  0B62  2B64               	goto	l2311
  7913  0B63                     u3110:
  7914  0B63                     l2309:
  7915  0B63  143C               	bsf	___fldiv@aexp^(0+128),0
  7916  0B64                     l2311:
  7917  0B64  083C               	movf	___fldiv@aexp^(0+128),w
  7918  0B65  1903               	btfsc	3,2
  7919  0B66  2B68               	goto	u3121
  7920  0B67  2B69               	goto	u3120
  7921  0B68                     u3121:
  7922  0B68  2B79               	goto	l2321
  7923  0B69                     u3120:
  7924  0B69                     l2313:
  7925  0B69  0A3C               	incf	___fldiv@aexp^(0+128),w
  7926  0B6A  1D03               	btfss	3,2
  7927  0B6B  2B6D               	goto	u3131
  7928  0B6C  2B6E               	goto	u3130
  7929  0B6D                     u3131:
  7930  0B6D  2B76               	goto	l2317
  7931  0B6E                     u3130:
  7932  0B6E                     l2315:
  7933  0B6E  3000               	movlw	0
  7934  0B6F  00AB               	movwf	(___fldiv@a+3)^(0+128)
  7935  0B70  3000               	movlw	0
  7936  0B71  00AA               	movwf	(___fldiv@a+2)^(0+128)
  7937  0B72  3000               	movlw	0
  7938  0B73  00A9               	movwf	(___fldiv@a+1)^(0+128)
  7939  0B74  3000               	movlw	0
  7940  0B75  00A8               	movwf	___fldiv@a^(0+128)
  7941  0B76                     l2317:
  7942  0B76  17AA               	bsf	(___fldiv@a^(0+128)+2),7
  7943  0B77                     l2319:
  7944  0B77  01AB               	clrf	(___fldiv@a^(0+128)+3)
  7945  0B78  2B81               	goto	l686
  7946  0B79                     l2321:
  7947  0B79  3000               	movlw	0
  7948  0B7A  00AB               	movwf	(___fldiv@a+3)^(0+128)
  7949  0B7B  3000               	movlw	0
  7950  0B7C  00AA               	movwf	(___fldiv@a+2)^(0+128)
  7951  0B7D  3000               	movlw	0
  7952  0B7E  00A9               	movwf	(___fldiv@a+1)^(0+128)
  7953  0B7F  3000               	movlw	0
  7954  0B80  00A8               	movwf	___fldiv@a^(0+128)
  7955  0B81                     l686:
  7956  0B81  082B               	movf	(___fldiv@a+3)^(0+128),w
  7957  0B82  042A               	iorwf	(___fldiv@a+2)^(0+128),w
  7958  0B83  0429               	iorwf	(___fldiv@a+1)^(0+128),w
  7959  0B84  0428               	iorwf	___fldiv@a^(0+128),w
  7960  0B85  1D03               	skipz
  7961  0B86  2B88               	goto	u3141
  7962  0B87  2B89               	goto	u3140
  7963  0B88                     u3141:
  7964  0B88  2BA6               	goto	l2331
  7965  0B89                     u3140:
  7966  0B89                     l2323:
  7967  0B89  3000               	movlw	0
  7968  0B8A  00AF               	movwf	(___fldiv@b+3)^(0+128)
  7969  0B8B  3000               	movlw	0
  7970  0B8C  00AE               	movwf	(___fldiv@b+2)^(0+128)
  7971  0B8D  3000               	movlw	0
  7972  0B8E  00AD               	movwf	(___fldiv@b+1)^(0+128)
  7973  0B8F  3000               	movlw	0
  7974  0B90  00AC               	movwf	___fldiv@b^(0+128)
  7975  0B91  3080               	movlw	128
  7976  0B92  04AE               	iorwf	(___fldiv@b^(0+128)+2),f
  7977  0B93  307F               	movlw	127
  7978  0B94  04AF               	iorwf	((___fldiv@b+1)^(0+128)+2),f
  7979  0B95                     l2325:
  7980  0B95  0834               	movf	___fldiv@sign^(0+128),w
  7981  0B96  1283               	bcf	3,5	;RP0=0, select bank0
  7982  0B97  1303               	bcf	3,6	;RP1=0, select bank0
  7983  0B98  00EA               	movwf	??___fldiv
  7984  0B99  086A               	movf	??___fldiv,w
  7985  0B9A  1683               	bsf	3,5	;RP0=1, select bank1
  7986  0B9B  1303               	bcf	3,6	;RP1=0, select bank1
  7987  0B9C  04AF               	iorwf	(___fldiv@b^(0+128)+3),f
  7988  0B9D                     l2327:
  7989  0B9D  082F               	movf	(___fldiv@b+3)^(0+128),w
  7990  0B9E  00AB               	movwf	(?___fldiv+3)^(0+128)
  7991  0B9F  082E               	movf	(___fldiv@b+2)^(0+128),w
  7992  0BA0  00AA               	movwf	(?___fldiv+2)^(0+128)
  7993  0BA1  082D               	movf	(___fldiv@b+1)^(0+128),w
  7994  0BA2  00A9               	movwf	(?___fldiv+1)^(0+128)
  7995  0BA3  082C               	movf	___fldiv@b^(0+128),w
  7996  0BA4  00A8               	movwf	?___fldiv^(0+128)
  7997  0BA5  2D77               	goto	l688
  7998  0BA6                     l2331:
  7999  0BA6  083B               	movf	___fldiv@bexp^(0+128),w
  8000  0BA7  1D03               	btfss	3,2
  8001  0BA8  2BAA               	goto	u3151
  8002  0BA9  2BAB               	goto	u3150
  8003  0BAA                     u3151:
  8004  0BAA  2BB4               	goto	l2337
  8005  0BAB                     u3150:
  8006  0BAB                     l2333:
  8007  0BAB  3000               	movlw	0
  8008  0BAC  00AB               	movwf	(?___fldiv+3)^(0+128)
  8009  0BAD  3000               	movlw	0
  8010  0BAE  00AA               	movwf	(?___fldiv+2)^(0+128)
  8011  0BAF  3000               	movlw	0
  8012  0BB0  00A9               	movwf	(?___fldiv+1)^(0+128)
  8013  0BB1  3000               	movlw	0
  8014  0BB2  00A8               	movwf	?___fldiv^(0+128)
  8015  0BB3  2D77               	goto	l688
  8016  0BB4                     l2337:
  8017  0BB4  083B               	movf	___fldiv@bexp^(0+128),w
  8018  0BB5  1283               	bcf	3,5	;RP0=0, select bank0
  8019  0BB6  1303               	bcf	3,6	;RP1=0, select bank0
  8020  0BB7  00EA               	movwf	??___fldiv
  8021  0BB8  01EB               	clrf	??___fldiv+1
  8022  0BB9  086B               	movf	??___fldiv+1,w
  8023  0BBA  00ED               	movwf	??___fldiv+3
  8024  0BBB  1683               	bsf	3,5	;RP0=1, select bank1
  8025  0BBC  1303               	bcf	3,6	;RP1=0, select bank1
  8026  0BBD  083C               	movf	___fldiv@aexp^(0+128),w
  8027  0BBE  1283               	bcf	3,5	;RP0=0, select bank0
  8028  0BBF  1303               	bcf	3,6	;RP1=0, select bank0
  8029  0BC0  026A               	subwf	??___fldiv,w
  8030  0BC1  00EC               	movwf	??___fldiv+2
  8031  0BC2  1C03               	skipc
  8032  0BC3  03ED               	decf	??___fldiv+3,f
  8033  0BC4  086C               	movf	??___fldiv+2,w
  8034  0BC5  3E7F               	addlw	127
  8035  0BC6  1683               	bsf	3,5	;RP0=1, select bank1
  8036  0BC7  1303               	bcf	3,6	;RP1=0, select bank1
  8037  0BC8  00B5               	movwf	___fldiv@new_exp^(0+128)
  8038  0BC9  1283               	bcf	3,5	;RP0=0, select bank0
  8039  0BCA  1303               	bcf	3,6	;RP1=0, select bank0
  8040  0BCB  086D               	movf	??___fldiv+3,w
  8041  0BCC  1803               	skipnc
  8042  0BCD  3E01               	addlw	1
  8043  0BCE  3E00               	addlw	0
  8044  0BCF  1683               	bsf	3,5	;RP0=1, select bank1
  8045  0BD0  1303               	bcf	3,6	;RP1=0, select bank1
  8046  0BD1  00B6               	movwf	(___fldiv@new_exp+1)^(0+128)
  8047  0BD2                     l2339:
  8048  0BD2  082F               	movf	(___fldiv@b+3)^(0+128),w
  8049  0BD3  00B3               	movwf	(___fldiv@rem+3)^(0+128)
  8050  0BD4  082E               	movf	(___fldiv@b+2)^(0+128),w
  8051  0BD5  00B2               	movwf	(___fldiv@rem+2)^(0+128)
  8052  0BD6  082D               	movf	(___fldiv@b+1)^(0+128),w
  8053  0BD7  00B1               	movwf	(___fldiv@rem+1)^(0+128)
  8054  0BD8  082C               	movf	___fldiv@b^(0+128),w
  8055  0BD9  00B0               	movwf	___fldiv@rem^(0+128)
  8056  0BDA                     l2341:
  8057  0BDA  3000               	movlw	0
  8058  0BDB  00AF               	movwf	(___fldiv@b+3)^(0+128)
  8059  0BDC  3000               	movlw	0
  8060  0BDD  00AE               	movwf	(___fldiv@b+2)^(0+128)
  8061  0BDE  3000               	movlw	0
  8062  0BDF  00AD               	movwf	(___fldiv@b+1)^(0+128)
  8063  0BE0  3000               	movlw	0
  8064  0BE1  00AC               	movwf	___fldiv@b^(0+128)
  8065  0BE2                     l2343:
  8066  0BE2  3000               	movlw	0
  8067  0BE3  00BA               	movwf	(___fldiv@grs+3)^(0+128)
  8068  0BE4  3000               	movlw	0
  8069  0BE5  00B9               	movwf	(___fldiv@grs+2)^(0+128)
  8070  0BE6  3000               	movlw	0
  8071  0BE7  00B8               	movwf	(___fldiv@grs+1)^(0+128)
  8072  0BE8  3000               	movlw	0
  8073  0BE9  00B7               	movwf	___fldiv@grs^(0+128)
  8074  0BEA                     l2345:
  8075  0BEA  01BC               	clrf	___fldiv@aexp^(0+128)
  8076  0BEB  2C4E               	goto	l2365
  8077  0BEC                     l2347:
  8078  0BEC  083C               	movf	___fldiv@aexp^(0+128),w
  8079  0BED  1903               	btfsc	3,2
  8080  0BEE  2BF0               	goto	u3161
  8081  0BEF  2BF1               	goto	u3160
  8082  0BF0                     u3161:
  8083  0BF0  2C23               	goto	l2357
  8084  0BF1                     u3160:
  8085  0BF1                     l2349:
  8086  0BF1  3001               	movlw	1
  8087  0BF2  1283               	bcf	3,5	;RP0=0, select bank0
  8088  0BF3  1303               	bcf	3,6	;RP1=0, select bank0
  8089  0BF4  00EA               	movwf	??___fldiv
  8090  0BF5                     u3175:
  8091  0BF5  1003               	clrc
  8092  0BF6  1683               	bsf	3,5	;RP0=1, select bank1
  8093  0BF7  1303               	bcf	3,6	;RP1=0, select bank1
  8094  0BF8  0DB0               	rlf	___fldiv@rem^(0+128),f
  8095  0BF9  0DB1               	rlf	(___fldiv@rem+1)^(0+128),f
  8096  0BFA  0DB2               	rlf	(___fldiv@rem+2)^(0+128),f
  8097  0BFB  0DB3               	rlf	(___fldiv@rem+3)^(0+128),f
  8098  0BFC  1283               	bcf	3,5	;RP0=0, select bank0
  8099  0BFD  1303               	bcf	3,6	;RP1=0, select bank0
  8100  0BFE  0BEA               	decfsz	??___fldiv,f
  8101  0BFF  2BF5               	goto	u3175
  8102  0C00  3001               	movlw	1
  8103  0C01  00EA               	movwf	??___fldiv
  8104  0C02                     u3185:
  8105  0C02  1003               	clrc
  8106  0C03  1683               	bsf	3,5	;RP0=1, select bank1
  8107  0C04  1303               	bcf	3,6	;RP1=0, select bank1
  8108  0C05  0DAC               	rlf	___fldiv@b^(0+128),f
  8109  0C06  0DAD               	rlf	(___fldiv@b+1)^(0+128),f
  8110  0C07  0DAE               	rlf	(___fldiv@b+2)^(0+128),f
  8111  0C08  0DAF               	rlf	(___fldiv@b+3)^(0+128),f
  8112  0C09  1283               	bcf	3,5	;RP0=0, select bank0
  8113  0C0A  1303               	bcf	3,6	;RP1=0, select bank0
  8114  0C0B  0BEA               	decfsz	??___fldiv,f
  8115  0C0C  2C02               	goto	u3185
  8116  0C0D                     l2351:
  8117  0C0D  1683               	bsf	3,5	;RP0=1, select bank1
  8118  0C0E  1303               	bcf	3,6	;RP1=0, select bank1
  8119  0C0F  1FBA               	btfss	(___fldiv@grs+3)^(0+128),7
  8120  0C10  2C12               	goto	u3191
  8121  0C11  2C13               	goto	u3190
  8122  0C12                     u3191:
  8123  0C12  2C14               	goto	l2355
  8124  0C13                     u3190:
  8125  0C13                     l2353:
  8126  0C13  142C               	bsf	___fldiv@b^(0+128),0
  8127  0C14                     l2355:
  8128  0C14  3001               	movlw	1
  8129  0C15  1283               	bcf	3,5	;RP0=0, select bank0
  8130  0C16  1303               	bcf	3,6	;RP1=0, select bank0
  8131  0C17  00EA               	movwf	??___fldiv
  8132  0C18                     u3205:
  8133  0C18  1003               	clrc
  8134  0C19  1683               	bsf	3,5	;RP0=1, select bank1
  8135  0C1A  1303               	bcf	3,6	;RP1=0, select bank1
  8136  0C1B  0DB7               	rlf	___fldiv@grs^(0+128),f
  8137  0C1C  0DB8               	rlf	(___fldiv@grs+1)^(0+128),f
  8138  0C1D  0DB9               	rlf	(___fldiv@grs+2)^(0+128),f
  8139  0C1E  0DBA               	rlf	(___fldiv@grs+3)^(0+128),f
  8140  0C1F  1283               	bcf	3,5	;RP0=0, select bank0
  8141  0C20  1303               	bcf	3,6	;RP1=0, select bank0
  8142  0C21  0BEA               	decfsz	??___fldiv,f
  8143  0C22  2C18               	goto	u3205
  8144  0C23                     l2357:
  8145  0C23  1683               	bsf	3,5	;RP0=1, select bank1
  8146  0C24  1303               	bcf	3,6	;RP1=0, select bank1
  8147  0C25  082B               	movf	(___fldiv@a+3)^(0+128),w
  8148  0C26  0233               	subwf	(___fldiv@rem+3)^(0+128),w
  8149  0C27  1D03               	skipz
  8150  0C28  2C33               	goto	u3215
  8151  0C29  082A               	movf	(___fldiv@a+2)^(0+128),w
  8152  0C2A  0232               	subwf	(___fldiv@rem+2)^(0+128),w
  8153  0C2B  1D03               	skipz
  8154  0C2C  2C33               	goto	u3215
  8155  0C2D  0829               	movf	(___fldiv@a+1)^(0+128),w
  8156  0C2E  0231               	subwf	(___fldiv@rem+1)^(0+128),w
  8157  0C2F  1D03               	skipz
  8158  0C30  2C33               	goto	u3215
  8159  0C31  0828               	movf	___fldiv@a^(0+128),w
  8160  0C32  0230               	subwf	___fldiv@rem^(0+128),w
  8161  0C33                     u3215:
  8162  0C33  1C03               	skipc
  8163  0C34  2C36               	goto	u3211
  8164  0C35  2C37               	goto	u3210
  8165  0C36                     u3211:
  8166  0C36  2C46               	goto	l2363
  8167  0C37                     u3210:
  8168  0C37                     l2359:
  8169  0C37  173A               	bsf	(___fldiv@grs^(0+128)+3),6
  8170  0C38                     l2361:
  8171  0C38  0828               	movf	___fldiv@a^(0+128),w
  8172  0C39  02B0               	subwf	___fldiv@rem^(0+128),f
  8173  0C3A  0829               	movf	(___fldiv@a+1)^(0+128),w
  8174  0C3B  1C03               	skipc
  8175  0C3C  0F29               	incfsz	(___fldiv@a+1)^(0+128),w
  8176  0C3D  02B1               	subwf	(___fldiv@rem+1)^(0+128),f
  8177  0C3E  082A               	movf	(___fldiv@a+2)^(0+128),w
  8178  0C3F  1C03               	skipc
  8179  0C40  0F2A               	incfsz	(___fldiv@a+2)^(0+128),w
  8180  0C41  02B2               	subwf	(___fldiv@rem+2)^(0+128),f
  8181  0C42  082B               	movf	(___fldiv@a+3)^(0+128),w
  8182  0C43  1C03               	skipc
  8183  0C44  0F2B               	incfsz	(___fldiv@a+3)^(0+128),w
  8184  0C45  02B3               	subwf	(___fldiv@rem+3)^(0+128),f
  8185  0C46                     l2363:
  8186  0C46  3001               	movlw	1
  8187  0C47  1283               	bcf	3,5	;RP0=0, select bank0
  8188  0C48  1303               	bcf	3,6	;RP1=0, select bank0
  8189  0C49  00EA               	movwf	??___fldiv
  8190  0C4A  086A               	movf	??___fldiv,w
  8191  0C4B  1683               	bsf	3,5	;RP0=1, select bank1
  8192  0C4C  1303               	bcf	3,6	;RP1=0, select bank1
  8193  0C4D  07BC               	addwf	___fldiv@aexp^(0+128),f
  8194  0C4E                     l2365:
  8195  0C4E  301A               	movlw	26
  8196  0C4F  023C               	subwf	___fldiv@aexp^(0+128),w
  8197  0C50  1C03               	skipc
  8198  0C51  2C53               	goto	u3221
  8199  0C52  2C54               	goto	u3220
  8200  0C53                     u3221:
  8201  0C53  2BEC               	goto	l2347
  8202  0C54                     u3220:
  8203  0C54                     l2367:
  8204  0C54  0833               	movf	(___fldiv@rem+3)^(0+128),w
  8205  0C55  0432               	iorwf	(___fldiv@rem+2)^(0+128),w
  8206  0C56  0431               	iorwf	(___fldiv@rem+1)^(0+128),w
  8207  0C57  0430               	iorwf	___fldiv@rem^(0+128),w
  8208  0C58  1903               	skipnz
  8209  0C59  2C5B               	goto	u3231
  8210  0C5A  2C5C               	goto	u3230
  8211  0C5B                     u3231:
  8212  0C5B  2C8B               	goto	l2381
  8213  0C5C                     u3230:
  8214  0C5C                     l2369:
  8215  0C5C  1437               	bsf	___fldiv@grs^(0+128),0
  8216  0C5D  2C8B               	goto	l2381
  8217  0C5E                     l2371:
  8218  0C5E  3001               	movlw	1
  8219  0C5F  1283               	bcf	3,5	;RP0=0, select bank0
  8220  0C60  1303               	bcf	3,6	;RP1=0, select bank0
  8221  0C61  00EA               	movwf	??___fldiv
  8222  0C62                     u3245:
  8223  0C62  1003               	clrc
  8224  0C63  1683               	bsf	3,5	;RP0=1, select bank1
  8225  0C64  1303               	bcf	3,6	;RP1=0, select bank1
  8226  0C65  0DAC               	rlf	___fldiv@b^(0+128),f
  8227  0C66  0DAD               	rlf	(___fldiv@b+1)^(0+128),f
  8228  0C67  0DAE               	rlf	(___fldiv@b+2)^(0+128),f
  8229  0C68  0DAF               	rlf	(___fldiv@b+3)^(0+128),f
  8230  0C69  1283               	bcf	3,5	;RP0=0, select bank0
  8231  0C6A  1303               	bcf	3,6	;RP1=0, select bank0
  8232  0C6B  0BEA               	decfsz	??___fldiv,f
  8233  0C6C  2C62               	goto	u3245
  8234  0C6D                     l2373:
  8235  0C6D  1683               	bsf	3,5	;RP0=1, select bank1
  8236  0C6E  1303               	bcf	3,6	;RP1=0, select bank1
  8237  0C6F  1FBA               	btfss	(___fldiv@grs+3)^(0+128),7
  8238  0C70  2C72               	goto	u3251
  8239  0C71  2C73               	goto	u3250
  8240  0C72                     u3251:
  8241  0C72  2C74               	goto	l2377
  8242  0C73                     u3250:
  8243  0C73                     l2375:
  8244  0C73  142C               	bsf	___fldiv@b^(0+128),0
  8245  0C74                     l2377:
  8246  0C74  3001               	movlw	1
  8247  0C75  1283               	bcf	3,5	;RP0=0, select bank0
  8248  0C76  1303               	bcf	3,6	;RP1=0, select bank0
  8249  0C77  00EA               	movwf	??___fldiv
  8250  0C78                     u3265:
  8251  0C78  1003               	clrc
  8252  0C79  1683               	bsf	3,5	;RP0=1, select bank1
  8253  0C7A  1303               	bcf	3,6	;RP1=0, select bank1
  8254  0C7B  0DB7               	rlf	___fldiv@grs^(0+128),f
  8255  0C7C  0DB8               	rlf	(___fldiv@grs+1)^(0+128),f
  8256  0C7D  0DB9               	rlf	(___fldiv@grs+2)^(0+128),f
  8257  0C7E  0DBA               	rlf	(___fldiv@grs+3)^(0+128),f
  8258  0C7F  1283               	bcf	3,5	;RP0=0, select bank0
  8259  0C80  1303               	bcf	3,6	;RP1=0, select bank0
  8260  0C81  0BEA               	decfsz	??___fldiv,f
  8261  0C82  2C78               	goto	u3265
  8262  0C83                     l2379:
  8263  0C83  30FF               	movlw	255
  8264  0C84  1683               	bsf	3,5	;RP0=1, select bank1
  8265  0C85  1303               	bcf	3,6	;RP1=0, select bank1
  8266  0C86  07B5               	addwf	___fldiv@new_exp^(0+128),f
  8267  0C87  1803               	skipnc
  8268  0C88  0AB6               	incf	(___fldiv@new_exp+1)^(0+128),f
  8269  0C89  30FF               	movlw	255
  8270  0C8A  07B6               	addwf	(___fldiv@new_exp+1)^(0+128),f
  8271  0C8B                     l2381:
  8272  0C8B  1FAE               	btfss	(___fldiv@b+2)^(0+128),7
  8273  0C8C  2C8E               	goto	u3271
  8274  0C8D  2C8F               	goto	u3270
  8275  0C8E                     u3271:
  8276  0C8E  2C5E               	goto	l2371
  8277  0C8F                     u3270:
  8278  0C8F                     l2383:
  8279  0C8F  01BC               	clrf	___fldiv@aexp^(0+128)
  8280  0C90                     l2385:
  8281  0C90  1FBA               	btfss	(___fldiv@grs+3)^(0+128),7
  8282  0C91  2C93               	goto	u3281
  8283  0C92  2C94               	goto	u3280
  8284  0C93                     u3281:
  8285  0C93  2CC2               	goto	l2393
  8286  0C94                     u3280:
  8287  0C94                     l2387:
  8288  0C94  30FF               	movlw	255
  8289  0C95  0537               	andwf	___fldiv@grs^(0+128),w
  8290  0C96  1283               	bcf	3,5	;RP0=0, select bank0
  8291  0C97  1303               	bcf	3,6	;RP1=0, select bank0
  8292  0C98  00EA               	movwf	??___fldiv
  8293  0C99  30FF               	movlw	255
  8294  0C9A  1683               	bsf	3,5	;RP0=1, select bank1
  8295  0C9B  1303               	bcf	3,6	;RP1=0, select bank1
  8296  0C9C  0538               	andwf	(___fldiv@grs+1)^(0+128),w
  8297  0C9D  1283               	bcf	3,5	;RP0=0, select bank0
  8298  0C9E  1303               	bcf	3,6	;RP1=0, select bank0
  8299  0C9F  00EB               	movwf	??___fldiv+1
  8300  0CA0  30FF               	movlw	255
  8301  0CA1  1683               	bsf	3,5	;RP0=1, select bank1
  8302  0CA2  1303               	bcf	3,6	;RP1=0, select bank1
  8303  0CA3  0539               	andwf	(___fldiv@grs+2)^(0+128),w
  8304  0CA4  1283               	bcf	3,5	;RP0=0, select bank0
  8305  0CA5  1303               	bcf	3,6	;RP1=0, select bank0
  8306  0CA6  00EC               	movwf	??___fldiv+2
  8307  0CA7  307F               	movlw	127
  8308  0CA8  1683               	bsf	3,5	;RP0=1, select bank1
  8309  0CA9  1303               	bcf	3,6	;RP1=0, select bank1
  8310  0CAA  053A               	andwf	(___fldiv@grs+3)^(0+128),w
  8311  0CAB  1283               	bcf	3,5	;RP0=0, select bank0
  8312  0CAC  1303               	bcf	3,6	;RP1=0, select bank0
  8313  0CAD  00ED               	movwf	??___fldiv+3
  8314  0CAE  086D               	movf	??___fldiv+3,w
  8315  0CAF  046C               	iorwf	??___fldiv+2,w
  8316  0CB0  046B               	iorwf	??___fldiv+1,w
  8317  0CB1  046A               	iorwf	??___fldiv,w
  8318  0CB2  1903               	skipnz
  8319  0CB3  2CB5               	goto	u3291
  8320  0CB4  2CB6               	goto	u3290
  8321  0CB5                     u3291:
  8322  0CB5  2CBB               	goto	l702
  8323  0CB6                     u3290:
  8324  0CB6                     l2389:
  8325  0CB6  1683               	bsf	3,5	;RP0=1, select bank1
  8326  0CB7  1303               	bcf	3,6	;RP1=0, select bank1
  8327  0CB8  01BC               	clrf	___fldiv@aexp^(0+128)
  8328  0CB9  0ABC               	incf	___fldiv@aexp^(0+128),f
  8329  0CBA  2CC2               	goto	l2393
  8330  0CBB                     l702:
  8331  0CBB  1683               	bsf	3,5	;RP0=1, select bank1
  8332  0CBC  1303               	bcf	3,6	;RP1=0, select bank1
  8333  0CBD  1C2C               	btfss	___fldiv@b^(0+128),0
  8334  0CBE  2CC0               	goto	u3301
  8335  0CBF  2CC1               	goto	u3300
  8336  0CC0                     u3301:
  8337  0CC0  2CC2               	goto	l2393
  8338  0CC1                     u3300:
  8339  0CC1  2CB6               	goto	l2389
  8340  0CC2                     l2393:
  8341  0CC2  083C               	movf	___fldiv@aexp^(0+128),w
  8342  0CC3  1903               	btfsc	3,2
  8343  0CC4  2CC6               	goto	u3311
  8344  0CC5  2CC7               	goto	u3310
  8345  0CC6                     u3311:
  8346  0CC6  2D14               	goto	l2403
  8347  0CC7                     u3310:
  8348  0CC7                     l2395:
  8349  0CC7  3001               	movlw	1
  8350  0CC8  07AC               	addwf	___fldiv@b^(0+128),f
  8351  0CC9  3000               	movlw	0
  8352  0CCA  1803               	skipnc
  8353  0CCB  3001               	movlw	1
  8354  0CCC  07AD               	addwf	(___fldiv@b+1)^(0+128),f
  8355  0CCD  3000               	movlw	0
  8356  0CCE  1803               	skipnc
  8357  0CCF  3001               	movlw	1
  8358  0CD0  07AE               	addwf	(___fldiv@b+2)^(0+128),f
  8359  0CD1  3000               	movlw	0
  8360  0CD2  1803               	skipnc
  8361  0CD3  3001               	movlw	1
  8362  0CD4  07AF               	addwf	(___fldiv@b+3)^(0+128),f
  8363  0CD5                     l2397:
  8364  0CD5  1C2F               	btfss	(___fldiv@b+3)^(0+128),0
  8365  0CD6  2CD8               	goto	u3321
  8366  0CD7  2CD9               	goto	u3320
  8367  0CD8                     u3321:
  8368  0CD8  2D14               	goto	l2403
  8369  0CD9                     u3320:
  8370  0CD9                     l2399:
  8371  0CD9  082C               	movf	___fldiv@b^(0+128),w
  8372  0CDA  1283               	bcf	3,5	;RP0=0, select bank0
  8373  0CDB  1303               	bcf	3,6	;RP1=0, select bank0
  8374  0CDC  00EA               	movwf	??___fldiv
  8375  0CDD  1683               	bsf	3,5	;RP0=1, select bank1
  8376  0CDE  1303               	bcf	3,6	;RP1=0, select bank1
  8377  0CDF  082D               	movf	(___fldiv@b+1)^(0+128),w
  8378  0CE0  1283               	bcf	3,5	;RP0=0, select bank0
  8379  0CE1  1303               	bcf	3,6	;RP1=0, select bank0
  8380  0CE2  00EB               	movwf	??___fldiv+1
  8381  0CE3  1683               	bsf	3,5	;RP0=1, select bank1
  8382  0CE4  1303               	bcf	3,6	;RP1=0, select bank1
  8383  0CE5  082E               	movf	(___fldiv@b+2)^(0+128),w
  8384  0CE6  1283               	bcf	3,5	;RP0=0, select bank0
  8385  0CE7  1303               	bcf	3,6	;RP1=0, select bank0
  8386  0CE8  00EC               	movwf	??___fldiv+2
  8387  0CE9  1683               	bsf	3,5	;RP0=1, select bank1
  8388  0CEA  1303               	bcf	3,6	;RP1=0, select bank1
  8389  0CEB  082F               	movf	(___fldiv@b+3)^(0+128),w
  8390  0CEC  1283               	bcf	3,5	;RP0=0, select bank0
  8391  0CED  1303               	bcf	3,6	;RP1=0, select bank0
  8392  0CEE  00ED               	movwf	??___fldiv+3
  8393  0CEF  3001               	movlw	1
  8394  0CF0  00EE               	movwf	??___fldiv+4
  8395  0CF1                     u3335:
  8396  0CF1  0D6D               	rlf	??___fldiv+3,w
  8397  0CF2  0CED               	rrf	??___fldiv+3,f
  8398  0CF3  0CEC               	rrf	??___fldiv+2,f
  8399  0CF4  0CEB               	rrf	??___fldiv+1,f
  8400  0CF5  0CEA               	rrf	??___fldiv,f
  8401  0CF6                     u3330:
  8402  0CF6  0BEE               	decfsz	??___fldiv+4,f
  8403  0CF7  2CF1               	goto	u3335
  8404  0CF8  086D               	movf	??___fldiv+3,w
  8405  0CF9  1683               	bsf	3,5	;RP0=1, select bank1
  8406  0CFA  1303               	bcf	3,6	;RP1=0, select bank1
  8407  0CFB  00AF               	movwf	(___fldiv@b+3)^(0+128)
  8408  0CFC  1283               	bcf	3,5	;RP0=0, select bank0
  8409  0CFD  1303               	bcf	3,6	;RP1=0, select bank0
  8410  0CFE  086C               	movf	??___fldiv+2,w
  8411  0CFF  1683               	bsf	3,5	;RP0=1, select bank1
  8412  0D00  1303               	bcf	3,6	;RP1=0, select bank1
  8413  0D01  00AE               	movwf	(___fldiv@b+2)^(0+128)
  8414  0D02  1283               	bcf	3,5	;RP0=0, select bank0
  8415  0D03  1303               	bcf	3,6	;RP1=0, select bank0
  8416  0D04  086B               	movf	??___fldiv+1,w
  8417  0D05  1683               	bsf	3,5	;RP0=1, select bank1
  8418  0D06  1303               	bcf	3,6	;RP1=0, select bank1
  8419  0D07  00AD               	movwf	(___fldiv@b+1)^(0+128)
  8420  0D08  1283               	bcf	3,5	;RP0=0, select bank0
  8421  0D09  1303               	bcf	3,6	;RP1=0, select bank0
  8422  0D0A  086A               	movf	??___fldiv,w
  8423  0D0B  1683               	bsf	3,5	;RP0=1, select bank1
  8424  0D0C  1303               	bcf	3,6	;RP1=0, select bank1
  8425  0D0D  00AC               	movwf	___fldiv@b^(0+128)
  8426  0D0E                     l2401:
  8427  0D0E  3001               	movlw	1
  8428  0D0F  07B5               	addwf	___fldiv@new_exp^(0+128),f
  8429  0D10  1803               	skipnc
  8430  0D11  0AB6               	incf	(___fldiv@new_exp+1)^(0+128),f
  8431  0D12  3000               	movlw	0
  8432  0D13  07B6               	addwf	(___fldiv@new_exp+1)^(0+128),f
  8433  0D14                     l2403:
  8434  0D14  0836               	movf	(___fldiv@new_exp+1)^(0+128),w
  8435  0D15  3A80               	xorlw	128
  8436  0D16  00FF               	movwf	btemp+1
  8437  0D17  3080               	movlw	128
  8438  0D18  027F               	subwf	btemp+1,w
  8439  0D19  1D03               	skipz
  8440  0D1A  2D1D               	goto	u3345
  8441  0D1B  30FF               	movlw	255
  8442  0D1C  0235               	subwf	___fldiv@new_exp^(0+128),w
  8443  0D1D                     u3345:
  8444  0D1D  1C03               	skipc
  8445  0D1E  2D20               	goto	u3341
  8446  0D1F  2D21               	goto	u3340
  8447  0D20                     u3341:
  8448  0D20  2D2F               	goto	l2407
  8449  0D21                     u3340:
  8450  0D21                     l2405:
  8451  0D21  30FF               	movlw	255
  8452  0D22  1683               	bsf	3,5	;RP0=1, select bank1
  8453  0D23  1303               	bcf	3,6	;RP1=0, select bank1
  8454  0D24  00B5               	movwf	___fldiv@new_exp^(0+128)
  8455  0D25  3000               	movlw	0
  8456  0D26  00B6               	movwf	(___fldiv@new_exp^(0+128)+1)
  8457  0D27  3000               	movlw	0
  8458  0D28  00AF               	movwf	(___fldiv@b+3)^(0+128)
  8459  0D29  3000               	movlw	0
  8460  0D2A  00AE               	movwf	(___fldiv@b+2)^(0+128)
  8461  0D2B  3000               	movlw	0
  8462  0D2C  00AD               	movwf	(___fldiv@b+1)^(0+128)
  8463  0D2D  3000               	movlw	0
  8464  0D2E  00AC               	movwf	___fldiv@b^(0+128)
  8465  0D2F                     l2407:
  8466  0D2F  1683               	bsf	3,5	;RP0=1, select bank1
  8467  0D30  1303               	bcf	3,6	;RP1=0, select bank1
  8468  0D31  0836               	movf	(___fldiv@new_exp+1)^(0+128),w
  8469  0D32  3A80               	xorlw	128
  8470  0D33  00FF               	movwf	btemp+1
  8471  0D34  3080               	movlw	128
  8472  0D35  027F               	subwf	btemp+1,w
  8473  0D36  1D03               	skipz
  8474  0D37  2D3A               	goto	u3355
  8475  0D38  3001               	movlw	1
  8476  0D39  0235               	subwf	___fldiv@new_exp^(0+128),w
  8477  0D3A                     u3355:
  8478  0D3A  1803               	skipnc
  8479  0D3B  2D3D               	goto	u3351
  8480  0D3C  2D3E               	goto	u3350
  8481  0D3D                     u3351:
  8482  0D3D  2D4B               	goto	l708
  8483  0D3E                     u3350:
  8484  0D3E                     l2409:
  8485  0D3E  1683               	bsf	3,5	;RP0=1, select bank1
  8486  0D3F  1303               	bcf	3,6	;RP1=0, select bank1
  8487  0D40  01B5               	clrf	___fldiv@new_exp^(0+128)
  8488  0D41  01B6               	clrf	(___fldiv@new_exp+1)^(0+128)
  8489  0D42                     l2411:
  8490  0D42  3000               	movlw	0
  8491  0D43  00AF               	movwf	(___fldiv@b+3)^(0+128)
  8492  0D44  3000               	movlw	0
  8493  0D45  00AE               	movwf	(___fldiv@b+2)^(0+128)
  8494  0D46  3000               	movlw	0
  8495  0D47  00AD               	movwf	(___fldiv@b+1)^(0+128)
  8496  0D48  3000               	movlw	0
  8497  0D49  00AC               	movwf	___fldiv@b^(0+128)
  8498  0D4A                     l2413:
  8499  0D4A  01B4               	clrf	___fldiv@sign^(0+128)
  8500  0D4B                     l708:
  8501  0D4B  1683               	bsf	3,5	;RP0=1, select bank1
  8502  0D4C  1303               	bcf	3,6	;RP1=0, select bank1
  8503  0D4D  0835               	movf	___fldiv@new_exp^(0+128),w
  8504  0D4E  1283               	bcf	3,5	;RP0=0, select bank0
  8505  0D4F  1303               	bcf	3,6	;RP1=0, select bank0
  8506  0D50  00EA               	movwf	??___fldiv
  8507  0D51  086A               	movf	??___fldiv,w
  8508  0D52  1683               	bsf	3,5	;RP0=1, select bank1
  8509  0D53  1303               	bcf	3,6	;RP1=0, select bank1
  8510  0D54  00BB               	movwf	___fldiv@bexp^(0+128)
  8511  0D55                     l2415:
  8512  0D55  1C3B               	btfss	___fldiv@bexp^(0+128),0
  8513  0D56  2D58               	goto	u3361
  8514  0D57  2D59               	goto	u3360
  8515  0D58                     u3361:
  8516  0D58  2D5B               	goto	l2419
  8517  0D59                     u3360:
  8518  0D59                     l2417:
  8519  0D59  17AE               	bsf	(___fldiv@b^(0+128)+2),7
  8520  0D5A  2D63               	goto	l710
  8521  0D5B                     l2419:
  8522  0D5B  307F               	movlw	127
  8523  0D5C  1283               	bcf	3,5	;RP0=0, select bank0
  8524  0D5D  1303               	bcf	3,6	;RP1=0, select bank0
  8525  0D5E  00EA               	movwf	??___fldiv
  8526  0D5F  086A               	movf	??___fldiv,w
  8527  0D60  1683               	bsf	3,5	;RP0=1, select bank1
  8528  0D61  1303               	bcf	3,6	;RP1=0, select bank1
  8529  0D62  05AE               	andwf	(___fldiv@b^(0+128)+2),f
  8530  0D63                     l710:
  8531  0D63  083B               	movf	___fldiv@bexp^(0+128),w
  8532  0D64  1283               	bcf	3,5	;RP0=0, select bank0
  8533  0D65  1303               	bcf	3,6	;RP1=0, select bank0
  8534  0D66  00EA               	movwf	??___fldiv
  8535  0D67  1003               	clrc
  8536  0D68  0C6A               	rrf	??___fldiv,w
  8537  0D69  00EB               	movwf	??___fldiv+1
  8538  0D6A  086B               	movf	??___fldiv+1,w
  8539  0D6B  1683               	bsf	3,5	;RP0=1, select bank1
  8540  0D6C  1303               	bcf	3,6	;RP1=0, select bank1
  8541  0D6D  00AF               	movwf	(___fldiv@b^(0+128)+3)
  8542  0D6E  0834               	movf	___fldiv@sign^(0+128),w
  8543  0D6F  1283               	bcf	3,5	;RP0=0, select bank0
  8544  0D70  1303               	bcf	3,6	;RP1=0, select bank0
  8545  0D71  00EA               	movwf	??___fldiv
  8546  0D72  086A               	movf	??___fldiv,w
  8547  0D73  1683               	bsf	3,5	;RP0=1, select bank1
  8548  0D74  1303               	bcf	3,6	;RP1=0, select bank1
  8549  0D75  04AF               	iorwf	(___fldiv@b^(0+128)+3),f
  8550  0D76  2B9D               	goto	l2327
  8551  0D77                     l688:
  8552  0D77  0008               	return
  8553  0D78                     __end_of___fldiv:
  8554                           
  8555                           	psect	text26
  8556  12F5                     __ptext26:	
  8557 ;; *************** function _PWM_Init *****************
  8558 ;; Defined at:
  8559 ;;		line 12 in file "PWM.c"
  8560 ;; Parameters:    Size  Location     Type
  8561 ;;  freq            4    6[BANK0 ] long 
  8562 ;; Auto vars:     Size  Location     Type
  8563 ;;		None
  8564 ;; Return value:  Size  Location     Type
  8565 ;;                  1    wreg      void 
  8566 ;; Registers used:
  8567 ;;		wreg, status,2, status,0, pclath, cstack
  8568 ;; Tracked objects:
  8569 ;;		On entry : 0/0
  8570 ;;		On exit  : 0/0
  8571 ;;		Unchanged: 0/0
  8572 ;; Data sizes:     COMMON   BANK0   BANK1   BANK3   BANK2
  8573 ;;      Params:         0       4       0       0       0
  8574 ;;      Locals:         0       0       0       0       0
  8575 ;;      Temps:          4       0       0       0       0
  8576 ;;      Totals:         4       4       0       0       0
  8577 ;;Total ram usage:        8 bytes
  8578 ;; Hardware stack levels used: 1
  8579 ;; Hardware stack levels required when called: 1
  8580 ;; This function calls:
  8581 ;;		___aldiv
  8582 ;; This function is called by:
  8583 ;;		_PWM1_Duty
  8584 ;;		_PWM2_Duty
  8585 ;; This function uses a non-reentrant model
  8586 ;;
  8587                           
  8588                           
  8589                           ;psect for function _PWM_Init
  8590  12F5                     _PWM_Init:
  8591  12F5                     l1993:	
  8592                           ;incstack = 0
  8593                           ; Regs used in _PWM_Init: [wreg+status,2+status,0+pclath+cstack]
  8594                           
  8595                           
  8596                           ;PWM.c: 12: void PWM_Init(long freq);PWM.c: 13: {;PWM.c: 14:   PR2 = (4000000/(freq*4*4)
      +                          ) - 1;
  8597  12F5  1283               	bcf	3,5	;RP0=0, select bank0
  8598  12F6  1303               	bcf	3,6	;RP1=0, select bank0
  8599  12F7  0826               	movf	PWM_Init@freq,w
  8600  12F8  00F9               	movwf	??_PWM_Init
  8601  12F9  0827               	movf	PWM_Init@freq+1,w
  8602  12FA  00FA               	movwf	??_PWM_Init+1
  8603  12FB  0828               	movf	PWM_Init@freq+2,w
  8604  12FC  00FB               	movwf	??_PWM_Init+2
  8605  12FD  0829               	movf	PWM_Init@freq+3,w
  8606  12FE  00FC               	movwf	??_PWM_Init+3
  8607  12FF  3002               	movlw	2
  8608  1300                     u2375:
  8609  1300  1003               	clrc
  8610  1301  0DF9               	rlf	??_PWM_Init,f
  8611  1302  0DFA               	rlf	??_PWM_Init+1,f
  8612  1303  0DFB               	rlf	??_PWM_Init+2,f
  8613  1304  0DFC               	rlf	??_PWM_Init+3,f
  8614  1305                     u2370:
  8615  1305  3EFF               	addlw	-1
  8616  1306  1D03               	skipz
  8617  1307  2B00               	goto	u2375
  8618  1308  3002               	movlw	2
  8619  1309                     u2385:
  8620  1309  1003               	clrc
  8621  130A  0DF9               	rlf	??_PWM_Init,f
  8622  130B  0DFA               	rlf	??_PWM_Init+1,f
  8623  130C  0DFB               	rlf	??_PWM_Init+2,f
  8624  130D  0DFC               	rlf	??_PWM_Init+3,f
  8625  130E                     u2380:
  8626  130E  3EFF               	addlw	-1
  8627  130F  1D03               	skipz
  8628  1310  2B09               	goto	u2385
  8629  1311  087C               	movf	??_PWM_Init+3,w
  8630  1312  00F3               	movwf	___aldiv@divisor+3
  8631  1313  087B               	movf	??_PWM_Init+2,w
  8632  1314  00F2               	movwf	___aldiv@divisor+2
  8633  1315  087A               	movf	??_PWM_Init+1,w
  8634  1316  00F1               	movwf	___aldiv@divisor+1
  8635  1317  0879               	movf	??_PWM_Init,w
  8636  1318  00F0               	movwf	___aldiv@divisor
  8637  1319  3000               	movlw	0
  8638  131A  00F7               	movwf	___aldiv@dividend+3
  8639  131B  303D               	movlw	61
  8640  131C  00F6               	movwf	___aldiv@dividend+2
  8641  131D  3009               	movlw	9
  8642  131E  00F5               	movwf	___aldiv@dividend+1
  8643  131F  3000               	movlw	0
  8644  1320  00F4               	movwf	___aldiv@dividend
  8645  1321  160A  118A  2476  160A  118A  	fcall	___aldiv
  8646  1326  0870               	movf	?___aldiv,w
  8647  1327  3EFF               	addlw	255
  8648  1328  1683               	bsf	3,5	;RP0=1, select bank1
  8649  1329  1303               	bcf	3,6	;RP1=0, select bank1
  8650  132A  0092               	movwf	18	;volatile
  8651  132B                     l159:
  8652  132B  0008               	return
  8653  132C                     __end_of_PWM_Init:
  8654                           
  8655                           	psect	text27
  8656  1476                     __ptext27:	
  8657 ;; *************** function ___aldiv *****************
  8658 ;; Defined at:
  8659 ;;		line 5 in file "C:\Program Files\Microchip\xc8\v2.32\pic\sources\c90\common\aldiv.c"
  8660 ;; Parameters:    Size  Location     Type
  8661 ;;  divisor         4    0[COMMON] long 
  8662 ;;  dividend        4    4[COMMON] long 
  8663 ;; Auto vars:     Size  Location     Type
  8664 ;;  quotient        4    2[BANK0 ] long 
  8665 ;;  sign            1    1[BANK0 ] unsigned char 
  8666 ;;  counter         1    0[BANK0 ] unsigned char 
  8667 ;; Return value:  Size  Location     Type
  8668 ;;                  4    0[COMMON] long 
  8669 ;; Registers used:
  8670 ;;		wreg, status,2, status,0
  8671 ;; Tracked objects:
  8672 ;;		On entry : 0/0
  8673 ;;		On exit  : 0/0
  8674 ;;		Unchanged: 0/0
  8675 ;; Data sizes:     COMMON   BANK0   BANK1   BANK3   BANK2
  8676 ;;      Params:         8       0       0       0       0
  8677 ;;      Locals:         0       6       0       0       0
  8678 ;;      Temps:          1       0       0       0       0
  8679 ;;      Totals:         9       6       0       0       0
  8680 ;;Total ram usage:       15 bytes
  8681 ;; Hardware stack levels used: 1
  8682 ;; This function calls:
  8683 ;;		Nothing
  8684 ;; This function is called by:
  8685 ;;		_PWM_Init
  8686 ;;		_PWM1_Duty
  8687 ;;		_PWM2_Duty
  8688 ;; This function uses a non-reentrant model
  8689 ;;
  8690                           
  8691                           
  8692                           ;psect for function ___aldiv
  8693  1476                     ___aldiv:
  8694  1476                     l1939:	
  8695                           ;incstack = 0
  8696                           ; Regs used in ___aldiv: [wreg+status,2+status,0]
  8697                           
  8698  1476  1283               	bcf	3,5	;RP0=0, select bank0
  8699  1477  1303               	bcf	3,6	;RP1=0, select bank0
  8700  1478  01A1               	clrf	___aldiv@sign
  8701  1479                     l1941:
  8702  1479  1FF3               	btfss	___aldiv@divisor+3,7
  8703  147A  2C7C               	goto	u2241
  8704  147B  2C7D               	goto	u2240
  8705  147C                     u2241:
  8706  147C  2C8A               	goto	l402
  8707  147D                     u2240:
  8708  147D                     l1943:
  8709  147D  09F0               	comf	___aldiv@divisor,f
  8710  147E  09F1               	comf	___aldiv@divisor+1,f
  8711  147F  09F2               	comf	___aldiv@divisor+2,f
  8712  1480  09F3               	comf	___aldiv@divisor+3,f
  8713  1481  0AF0               	incf	___aldiv@divisor,f
  8714  1482  1903               	skipnz
  8715  1483  0AF1               	incf	___aldiv@divisor+1,f
  8716  1484  1903               	skipnz
  8717  1485  0AF2               	incf	___aldiv@divisor+2,f
  8718  1486  1903               	skipnz
  8719  1487  0AF3               	incf	___aldiv@divisor+3,f
  8720  1488  01A1               	clrf	___aldiv@sign
  8721  1489  0AA1               	incf	___aldiv@sign,f
  8722  148A                     l402:
  8723  148A  1FF7               	btfss	___aldiv@dividend+3,7
  8724  148B  2C8D               	goto	u2251
  8725  148C  2C8E               	goto	u2250
  8726  148D                     u2251:
  8727  148D  2C9D               	goto	l1949
  8728  148E                     u2250:
  8729  148E                     l1945:
  8730  148E  09F4               	comf	___aldiv@dividend,f
  8731  148F  09F5               	comf	___aldiv@dividend+1,f
  8732  1490  09F6               	comf	___aldiv@dividend+2,f
  8733  1491  09F7               	comf	___aldiv@dividend+3,f
  8734  1492  0AF4               	incf	___aldiv@dividend,f
  8735  1493  1903               	skipnz
  8736  1494  0AF5               	incf	___aldiv@dividend+1,f
  8737  1495  1903               	skipnz
  8738  1496  0AF6               	incf	___aldiv@dividend+2,f
  8739  1497  1903               	skipnz
  8740  1498  0AF7               	incf	___aldiv@dividend+3,f
  8741  1499                     l1947:
  8742  1499  3001               	movlw	1
  8743  149A  00F8               	movwf	??___aldiv
  8744  149B  0878               	movf	??___aldiv,w
  8745  149C  06A1               	xorwf	___aldiv@sign,f
  8746  149D                     l1949:
  8747  149D  3000               	movlw	0
  8748  149E  00A5               	movwf	___aldiv@quotient+3
  8749  149F  3000               	movlw	0
  8750  14A0  00A4               	movwf	___aldiv@quotient+2
  8751  14A1  3000               	movlw	0
  8752  14A2  00A3               	movwf	___aldiv@quotient+1
  8753  14A3  3000               	movlw	0
  8754  14A4  00A2               	movwf	___aldiv@quotient
  8755  14A5                     l1951:
  8756  14A5  0873               	movf	___aldiv@divisor+3,w
  8757  14A6  0472               	iorwf	___aldiv@divisor+2,w
  8758  14A7  0471               	iorwf	___aldiv@divisor+1,w
  8759  14A8  0470               	iorwf	___aldiv@divisor,w
  8760  14A9  1903               	skipnz
  8761  14AA  2CAC               	goto	u2261
  8762  14AB  2CAD               	goto	u2260
  8763  14AC                     u2261:
  8764  14AC  2CFA               	goto	l1971
  8765  14AD                     u2260:
  8766  14AD                     l1953:
  8767  14AD  01A0               	clrf	___aldiv@counter
  8768  14AE  0AA0               	incf	___aldiv@counter,f
  8769  14AF  2CBD               	goto	l1957
  8770  14B0                     l1955:
  8771  14B0  3001               	movlw	1
  8772  14B1  00F8               	movwf	??___aldiv
  8773  14B2                     u2275:
  8774  14B2  1003               	clrc
  8775  14B3  0DF0               	rlf	___aldiv@divisor,f
  8776  14B4  0DF1               	rlf	___aldiv@divisor+1,f
  8777  14B5  0DF2               	rlf	___aldiv@divisor+2,f
  8778  14B6  0DF3               	rlf	___aldiv@divisor+3,f
  8779  14B7  0BF8               	decfsz	??___aldiv,f
  8780  14B8  2CB2               	goto	u2275
  8781  14B9  3001               	movlw	1
  8782  14BA  00F8               	movwf	??___aldiv
  8783  14BB  0878               	movf	??___aldiv,w
  8784  14BC  07A0               	addwf	___aldiv@counter,f
  8785  14BD                     l1957:
  8786  14BD  1FF3               	btfss	___aldiv@divisor+3,7
  8787  14BE  2CC0               	goto	u2281
  8788  14BF  2CC1               	goto	u2280
  8789  14C0                     u2281:
  8790  14C0  2CB0               	goto	l1955
  8791  14C1                     u2280:
  8792  14C1                     l1959:
  8793  14C1  3001               	movlw	1
  8794  14C2  00F8               	movwf	??___aldiv
  8795  14C3                     u2295:
  8796  14C3  1003               	clrc
  8797  14C4  0DA2               	rlf	___aldiv@quotient,f
  8798  14C5  0DA3               	rlf	___aldiv@quotient+1,f
  8799  14C6  0DA4               	rlf	___aldiv@quotient+2,f
  8800  14C7  0DA5               	rlf	___aldiv@quotient+3,f
  8801  14C8  0BF8               	decfsz	??___aldiv,f
  8802  14C9  2CC3               	goto	u2295
  8803  14CA                     l1961:
  8804  14CA  0873               	movf	___aldiv@divisor+3,w
  8805  14CB  0277               	subwf	___aldiv@dividend+3,w
  8806  14CC  1D03               	skipz
  8807  14CD  2CD8               	goto	u2305
  8808  14CE  0872               	movf	___aldiv@divisor+2,w
  8809  14CF  0276               	subwf	___aldiv@dividend+2,w
  8810  14D0  1D03               	skipz
  8811  14D1  2CD8               	goto	u2305
  8812  14D2  0871               	movf	___aldiv@divisor+1,w
  8813  14D3  0275               	subwf	___aldiv@dividend+1,w
  8814  14D4  1D03               	skipz
  8815  14D5  2CD8               	goto	u2305
  8816  14D6  0870               	movf	___aldiv@divisor,w
  8817  14D7  0274               	subwf	___aldiv@dividend,w
  8818  14D8                     u2305:
  8819  14D8  1C03               	skipc
  8820  14D9  2CDB               	goto	u2301
  8821  14DA  2CDC               	goto	u2300
  8822  14DB                     u2301:
  8823  14DB  2CEB               	goto	l1967
  8824  14DC                     u2300:
  8825  14DC                     l1963:
  8826  14DC  0870               	movf	___aldiv@divisor,w
  8827  14DD  02F4               	subwf	___aldiv@dividend,f
  8828  14DE  0871               	movf	___aldiv@divisor+1,w
  8829  14DF  1C03               	skipc
  8830  14E0  0F71               	incfsz	___aldiv@divisor+1,w
  8831  14E1  02F5               	subwf	___aldiv@dividend+1,f
  8832  14E2  0872               	movf	___aldiv@divisor+2,w
  8833  14E3  1C03               	skipc
  8834  14E4  0F72               	incfsz	___aldiv@divisor+2,w
  8835  14E5  02F6               	subwf	___aldiv@dividend+2,f
  8836  14E6  0873               	movf	___aldiv@divisor+3,w
  8837  14E7  1C03               	skipc
  8838  14E8  0F73               	incfsz	___aldiv@divisor+3,w
  8839  14E9  02F7               	subwf	___aldiv@dividend+3,f
  8840  14EA                     l1965:
  8841  14EA  1422               	bsf	___aldiv@quotient,0
  8842  14EB                     l1967:
  8843  14EB  3001               	movlw	1
  8844  14EC                     u2315:
  8845  14EC  1003               	clrc
  8846  14ED  0CF3               	rrf	___aldiv@divisor+3,f
  8847  14EE  0CF2               	rrf	___aldiv@divisor+2,f
  8848  14EF  0CF1               	rrf	___aldiv@divisor+1,f
  8849  14F0  0CF0               	rrf	___aldiv@divisor,f
  8850  14F1  3EFF               	addlw	-1
  8851  14F2  1D03               	skipz
  8852  14F3  2CEC               	goto	u2315
  8853  14F4                     l1969:
  8854  14F4  3001               	movlw	1
  8855  14F5  02A0               	subwf	___aldiv@counter,f
  8856  14F6  1D03               	btfss	3,2
  8857  14F7  2CF9               	goto	u2321
  8858  14F8  2CFA               	goto	u2320
  8859  14F9                     u2321:
  8860  14F9  2CC1               	goto	l1959
  8861  14FA                     u2320:
  8862  14FA                     l1971:
  8863  14FA  0821               	movf	___aldiv@sign,w
  8864  14FB  1903               	btfsc	3,2
  8865  14FC  2CFE               	goto	u2331
  8866  14FD  2CFF               	goto	u2330
  8867  14FE                     u2331:
  8868  14FE  2D0A               	goto	l1975
  8869  14FF                     u2330:
  8870  14FF                     l1973:
  8871  14FF  09A2               	comf	___aldiv@quotient,f
  8872  1500  09A3               	comf	___aldiv@quotient+1,f
  8873  1501  09A4               	comf	___aldiv@quotient+2,f
  8874  1502  09A5               	comf	___aldiv@quotient+3,f
  8875  1503  0AA2               	incf	___aldiv@quotient,f
  8876  1504  1903               	skipnz
  8877  1505  0AA3               	incf	___aldiv@quotient+1,f
  8878  1506  1903               	skipnz
  8879  1507  0AA4               	incf	___aldiv@quotient+2,f
  8880  1508  1903               	skipnz
  8881  1509  0AA5               	incf	___aldiv@quotient+3,f
  8882  150A                     l1975:
  8883  150A  0825               	movf	___aldiv@quotient+3,w
  8884  150B  00F3               	movwf	?___aldiv+3
  8885  150C  0824               	movf	___aldiv@quotient+2,w
  8886  150D  00F2               	movwf	?___aldiv+2
  8887  150E  0823               	movf	___aldiv@quotient+1,w
  8888  150F  00F1               	movwf	?___aldiv+1
  8889  1510  0822               	movf	___aldiv@quotient,w
  8890  1511  00F0               	movwf	?___aldiv
  8891  1512                     l412:
  8892  1512  0008               	return
  8893  1513                     __end_of___aldiv:
  8894                           
  8895                           	psect	text28
  8896  1256                     __ptext28:	
  8897 ;; *************** function _ADC_Read *****************
  8898 ;; Defined at:
  8899 ;;		line 17 in file "adc.c"
  8900 ;; Parameters:    Size  Location     Type
  8901 ;;  channel         1    wreg     unsigned char 
  8902 ;; Auto vars:     Size  Location     Type
  8903 ;;  channel         1    4[COMMON] unsigned char 
  8904 ;; Return value:  Size  Location     Type
  8905 ;;                  2    0[COMMON] unsigned int 
  8906 ;; Registers used:
  8907 ;;		wreg, status,2, status,0
  8908 ;; Tracked objects:
  8909 ;;		On entry : 0/0
  8910 ;;		On exit  : 0/0
  8911 ;;		Unchanged: 0/0
  8912 ;; Data sizes:     COMMON   BANK0   BANK1   BANK3   BANK2
  8913 ;;      Params:         2       0       0       0       0
  8914 ;;      Locals:         1       0       0       0       0
  8915 ;;      Temps:          2       0       0       0       0
  8916 ;;      Totals:         5       0       0       0       0
  8917 ;;Total ram usage:        5 bytes
  8918 ;; Hardware stack levels used: 1
  8919 ;; This function calls:
  8920 ;;		Nothing
  8921 ;; This function is called by:
  8922 ;;		_realizarCalculo
  8923 ;;		_controlarCooler
  8924 ;; This function uses a non-reentrant model
  8925 ;;
  8926                           
  8927                           
  8928                           ;psect for function _ADC_Read
  8929  1256                     _ADC_Read:
  8930                           
  8931                           ;incstack = 0
  8932                           ; Regs used in _ADC_Read: [wreg+status,2+status,0]
  8933                           ;ADC_Read@channel stored from wreg
  8934  1256  00F4               	movwf	ADC_Read@channel
  8935  1257                     l2701:
  8936                           
  8937                           ;adc.c: 17: unsigned int ADC_Read(unsigned char channel);adc.c: 18: {;adc.c: 19:    if(c
      +                          hannel > 7)
  8938  1257  3008               	movlw	8
  8939  1258  0274               	subwf	ADC_Read@channel,w
  8940  1259  1C03               	skipc
  8941  125A  2A5C               	goto	u3981
  8942  125B  2A5D               	goto	u3980
  8943  125C                     u3981:
  8944  125C  2A60               	goto	l2707
  8945  125D                     u3980:
  8946  125D                     l2703:
  8947                           
  8948                           ;adc.c: 20:      return 0;
  8949  125D  01F0               	clrf	?_ADC_Read
  8950  125E  01F1               	clrf	?_ADC_Read+1
  8951  125F  2A89               	goto	l198
  8952  1260                     l2707:
  8953                           
  8954                           ;adc.c: 22:    ADCON0 &= 0xC5;
  8955  1260  30C5               	movlw	197
  8956  1261  00F2               	movwf	??_ADC_Read
  8957  1262  0872               	movf	??_ADC_Read,w
  8958  1263  1283               	bcf	3,5	;RP0=0, select bank0
  8959  1264  1303               	bcf	3,6	;RP1=0, select bank0
  8960  1265  059F               	andwf	31,f	;volatile
  8961                           
  8962                           ;adc.c: 23:    ADCON0 |= channel<<3;
  8963  1266  0874               	movf	ADC_Read@channel,w	;volatile
  8964  1267  00F2               	movwf	??_ADC_Read
  8965  1268  3002               	movlw	2
  8966  1269                     u3995:
  8967  1269  1003               	clrc
  8968  126A  0DF2               	rlf	??_ADC_Read,f
  8969  126B  3EFF               	addlw	-1
  8970  126C  1D03               	skipz
  8971  126D  2A69               	goto	u3995
  8972  126E  1003               	clrc
  8973  126F  0D72               	rlf	??_ADC_Read,w
  8974  1270  00F3               	movwf	??_ADC_Read+1
  8975  1271  0873               	movf	??_ADC_Read+1,w
  8976  1272  049F               	iorwf	31,f	;volatile
  8977  1273                     l2709:
  8978                           
  8979                           ;adc.c: 24:    _delay((unsigned long)((2)*(4000000/4000.0)));
  8980  1273  3003               	movlw	3
  8981  1274  00F3               	movwf	??_ADC_Read+1
  8982  1275  3097               	movlw	151
  8983  1276  00F2               	movwf	??_ADC_Read
  8984  1277                     u4477:
  8985  1277  0BF2               	decfsz	??_ADC_Read,f
  8986  1278  2A77               	goto	u4477
  8987  1279  0BF3               	decfsz	??_ADC_Read+1,f
  8988  127A  2A77               	goto	u4477
  8989  127B  2A7C               	nop2
  8990  127C                     l2711:
  8991                           
  8992                           ;adc.c: 25:    GO_nDONE = 1;
  8993  127C  1283               	bcf	3,5	;RP0=0, select bank0
  8994  127D  1303               	bcf	3,6	;RP1=0, select bank0
  8995  127E  151F               	bsf	31,2	;volatile
  8996  127F                     l199:	
  8997                           ;adc.c: 26:    while(GO_nDONE);
  8998                           
  8999  127F  191F               	btfsc	31,2	;volatile
  9000  1280  2A82               	goto	u4001
  9001  1281  2A83               	goto	u4000
  9002  1282                     u4001:
  9003  1282  2A7F               	goto	l199
  9004  1283                     u4000:
  9005  1283                     l2713:
  9006                           
  9007                           ;adc.c: 27:    return ((unsigned int)(ADRESH<<8)+ADRESL);
  9008  1283  081E               	movf	30,w	;volatile
  9009  1284  00F1               	movwf	?_ADC_Read+1
  9010  1285  1683               	bsf	3,5	;RP0=1, select bank1
  9011  1286  1303               	bcf	3,6	;RP1=0, select bank1
  9012  1287  081E               	movf	30,w	;volatile
  9013  1288  00F0               	movwf	?_ADC_Read
  9014  1289                     l198:
  9015  1289  0008               	return
  9016  128A                     __end_of_ADC_Read:
  9017                           
  9018                           	psect	text29
  9019  0007                     __ptext29:	
  9020 ;; *************** function _PWM2_Start *****************
  9021 ;; Defined at:
  9022 ;;		line 59 in file "PWM.c"
  9023 ;; Parameters:    Size  Location     Type
  9024 ;;		None
  9025 ;; Auto vars:     Size  Location     Type
  9026 ;;		None
  9027 ;; Return value:  Size  Location     Type
  9028 ;;                  1    wreg      void 
  9029 ;; Registers used:
  9030 ;;		None
  9031 ;; Tracked objects:
  9032 ;;		On entry : 0/0
  9033 ;;		On exit  : 0/0
  9034 ;;		Unchanged: 0/0
  9035 ;; Data sizes:     COMMON   BANK0   BANK1   BANK3   BANK2
  9036 ;;      Params:         0       0       0       0       0
  9037 ;;      Locals:         0       0       0       0       0
  9038 ;;      Temps:          0       0       0       0       0
  9039 ;;      Totals:         0       0       0       0       0
  9040 ;;Total ram usage:        0 bytes
  9041 ;; Hardware stack levels used: 1
  9042 ;; This function calls:
  9043 ;;		Nothing
  9044 ;; This function is called by:
  9045 ;;		_main
  9046 ;; This function uses a non-reentrant model
  9047 ;;
  9048                           
  9049                           
  9050                           ;psect for function _PWM2_Start
  9051  0007                     _PWM2_Start:
  9052  0007                     l2955:	
  9053                           ;incstack = 0
  9054                           ; Regs used in _PWM2_Start: []
  9055                           
  9056                           
  9057                           ;PWM.c: 61:   CCP2M3 = 1;
  9058  0007  1283               	bcf	3,5	;RP0=0, select bank0
  9059  0008  1303               	bcf	3,6	;RP1=0, select bank0
  9060  0009  159D               	bsf	29,3	;volatile
  9061                           
  9062                           ;PWM.c: 62:   CCP2M2 = 1;
  9063  000A  151D               	bsf	29,2	;volatile
  9064                           
  9065                           ;PWM.c: 67:     T2CKPS0 = 1;
  9066  000B  1412               	bsf	18,0	;volatile
  9067                           
  9068                           ;PWM.c: 68:     T2CKPS1 = 0;
  9069  000C  1092               	bcf	18,1	;volatile
  9070                           
  9071                           ;PWM.c: 73:     TMR2ON = 1;
  9072  000D  1512               	bsf	18,2	;volatile
  9073                           
  9074                           ;PWM.c: 74:     TRISC1 = 0;
  9075  000E  1683               	bsf	3,5	;RP0=1, select bank1
  9076  000F  1303               	bcf	3,6	;RP1=0, select bank1
  9077  0010  1087               	bcf	7,1	;volatile
  9078  0011                     l173:
  9079  0011  0008               	return
  9080  0012                     __end_of_PWM2_Start:
  9081                           
  9082                           	psect	text30
  9083  0803                     __ptext30:	
  9084 ;; *************** function _PWM1_Start *****************
  9085 ;; Defined at:
  9086 ;;		line 41 in file "PWM.c"
  9087 ;; Parameters:    Size  Location     Type
  9088 ;;		None
  9089 ;; Auto vars:     Size  Location     Type
  9090 ;;		None
  9091 ;; Return value:  Size  Location     Type
  9092 ;;                  1    wreg      void 
  9093 ;; Registers used:
  9094 ;;		None
  9095 ;; Tracked objects:
  9096 ;;		On entry : 0/0
  9097 ;;		On exit  : 0/0
  9098 ;;		Unchanged: 0/0
  9099 ;; Data sizes:     COMMON   BANK0   BANK1   BANK3   BANK2
  9100 ;;      Params:         0       0       0       0       0
  9101 ;;      Locals:         0       0       0       0       0
  9102 ;;      Temps:          0       0       0       0       0
  9103 ;;      Totals:         0       0       0       0       0
  9104 ;;Total ram usage:        0 bytes
  9105 ;; Hardware stack levels used: 1
  9106 ;; This function calls:
  9107 ;;		Nothing
  9108 ;; This function is called by:
  9109 ;;		_main
  9110 ;; This function uses a non-reentrant model
  9111 ;;
  9112                           
  9113                           
  9114                           ;psect for function _PWM1_Start
  9115  0803                     _PWM1_Start:
  9116  0803                     l2953:	
  9117                           ;incstack = 0
  9118                           ; Regs used in _PWM1_Start: []
  9119                           
  9120                           
  9121                           ;PWM.c: 43:   CCP1M3 = 1;
  9122  0803  1283               	bcf	3,5	;RP0=0, select bank0
  9123  0804  1303               	bcf	3,6	;RP1=0, select bank0
  9124  0805  1597               	bsf	23,3	;volatile
  9125                           
  9126                           ;PWM.c: 44:   CCP1M2 = 1;
  9127  0806  1517               	bsf	23,2	;volatile
  9128                           
  9129                           ;PWM.c: 55:   TMR2ON = 1;
  9130  0807  1512               	bsf	18,2	;volatile
  9131                           
  9132                           ;PWM.c: 56:   TRISC2 = 0;
  9133  0808  1683               	bsf	3,5	;RP0=1, select bank1
  9134  0809  1303               	bcf	3,6	;RP1=0, select bank1
  9135  080A  1107               	bcf	7,2	;volatile
  9136  080B                     l170:
  9137  080B  0008               	return
  9138  080C                     __end_of_PWM1_Start:
  9139                           
  9140                           	psect	text31
  9141  1187                     __ptext31:	
  9142 ;; *************** function _ADC_Init *****************
  9143 ;; Defined at:
  9144 ;;		line 11 in file "adc.c"
  9145 ;; Parameters:    Size  Location     Type
  9146 ;;		None
  9147 ;; Auto vars:     Size  Location     Type
  9148 ;;		None
  9149 ;; Return value:  Size  Location     Type
  9150 ;;                  1    wreg      void 
  9151 ;; Registers used:
  9152 ;;		wreg
  9153 ;; Tracked objects:
  9154 ;;		On entry : 0/0
  9155 ;;		On exit  : 0/0
  9156 ;;		Unchanged: 0/0
  9157 ;; Data sizes:     COMMON   BANK0   BANK1   BANK3   BANK2
  9158 ;;      Params:         0       0       0       0       0
  9159 ;;      Locals:         0       0       0       0       0
  9160 ;;      Temps:          0       0       0       0       0
  9161 ;;      Totals:         0       0       0       0       0
  9162 ;;Total ram usage:        0 bytes
  9163 ;; Hardware stack levels used: 1
  9164 ;; This function calls:
  9165 ;;		Nothing
  9166 ;; This function is called by:
  9167 ;;		_main
  9168 ;; This function uses a non-reentrant model
  9169 ;;
  9170                           
  9171                           
  9172                           ;psect for function _ADC_Init
  9173  1187                     _ADC_Init:
  9174  1187                     l2951:	
  9175                           ;incstack = 0
  9176                           ; Regs used in _ADC_Init: [wreg]
  9177                           
  9178                           
  9179                           ;adc.c: 13:    ADCON1 = 0x80;
  9180  1187  3080               	movlw	128
  9181  1188  1683               	bsf	3,5	;RP0=1, select bank1
  9182  1189  1303               	bcf	3,6	;RP1=0, select bank1
  9183  118A  009F               	movwf	31	;volatile
  9184                           
  9185                           ;adc.c: 14:    ADCON0 = 0xC1;
  9186  118B  30C1               	movlw	193
  9187  118C  1283               	bcf	3,5	;RP0=0, select bank0
  9188  118D  1303               	bcf	3,6	;RP1=0, select bank0
  9189  118E  009F               	movwf	31	;volatile
  9190  118F                     l194:
  9191  118F  0008               	return
  9192  1190                     __end_of_ADC_Init:
  9193  007E                     btemp	set	126	;btemp
  9194  007E                     wtemp0	set	126
  9195                           
  9196                           	psect	config
  9197                           
  9198                           ;Config register CONFIG @ 0x2007
  9199                           ;	Oscillator Selection bits
  9200                           ;	FOSC = HS, HS oscillator
  9201                           ;	Watchdog Timer Enable bit
  9202                           ;	WDTE = OFF, WDT disabled
  9203                           ;	Power-up Timer Enable bit
  9204                           ;	PWRTE = OFF, PWRT disabled
  9205                           ;	Brown-out Reset Enable bit
  9206                           ;	BOREN = OFF, BOR disabled
  9207                           ;	Low-Voltage (Single-Supply) In-Circuit Serial Programming Enable bit
  9208                           ;	LVP = OFF, RB3 is digital I/O, HV on MCLR must be used for programming
  9209                           ;	Data EEPROM Memory Code Protection bit
  9210                           ;	CPD = OFF, Data EEPROM code protection off
  9211                           ;	Flash Program Memory Write Enable bits
  9212                           ;	WRT = OFF, Write protection off; all program memory may be written to by EECON control
  9213                           ;	In-Circuit Debugger Mode bit
  9214                           ;	DEBUG = 0x1, unprogrammed default
  9215                           ;	Flash Program Memory Code Protection bit
  9216                           ;	CP = OFF, Code protection off
  9217  2007                     	org	8199
  9218  2007  3F3A               	dw	16186

Data Sizes:
    Strings     27
    Constant    10
    Data        8
    BSS         74
    Persistent  0
    Stack       0

Auto Spaces:
    Space          Size  Autos    Used
    COMMON           14     14      14
    BANK0            80     79      80
    BANK1            80     57      80
    BANK3            96      0      58
    BANK2            96      0       0

Pointer List with Targets:

    sprintf@f	PTR const unsigned char  size(1) Largest target is 3
		 -> STR_3(CODE[3]), STR_2(CODE[3]), STR_1(CODE[3]), 

    sprintf@sp	PTR unsigned char  size(1) Largest target is 32
		 -> string(BANK3[32]), 

    sprintf@ap	PTR void [1] size(1) Largest target is 2
		 -> ?_sprintf(BANK0[2]), 

    lcd_str@str	PTR const unsigned char  size(2) Largest target is 32
		 -> STR_5(CODE[12]), STR_4(CODE[12]), string(BANK3[32]), 


Critical Paths under _main in COMMON

    _realizarCalculo->___fltol
    ___wmul->_ADC_Read
    _PWM1_Duty->___fltol
    _lcd_init->_lcd_cmd
    _sprintf->___lwmod
    ___lwmod->___lwdiv
    _lcd_str->_lcd_dat
    _lcd_dat->_lcd_wr
    _lcd_cmd->_lcd_wr
    ___awdiv->___awmod
    _controleMaximoMinimo->___fltol
    _PWM2_Duty->___fltol
    ___xxtofl->___fltol
    ___fltol->__Umul8_16
    ___fltol->___aldiv
    ___flmul->___fltol
    ___fldiv->___fltol
    _PWM_Init->___aldiv

Critical Paths under _main in BANK0

    _realizarCalculo->___fldiv
    ___flsub->___fladd
    ___fladd->___flmul
    _PWM1_Duty->___fldiv
    _imprimirValoresLcd->_sprintf
    _controleMaximoMinimo->___fltol
    _PWM2_Duty->___fldiv
    ___xxtofl->_controleMaximoMinimo
    ___fltol->___aldiv
    ___flmul->___xxtofl
    ___fldiv->___fladd
    _PWM_Init->___aldiv

Critical Paths under _main in BANK1

    _main->_realizarCalculo
    _realizarCalculo->_PWM1_Duty
    _PWM1_Duty->___fldiv
    _controlarCooler->_PWM2_Duty
    _PWM2_Duty->___fldiv
    ___fldiv->___flsub

Critical Paths under _main in BANK3

    None.

Critical Paths under _main in BANK2

    None.

Call Graph Tables:

 ---------------------------------------------------------------------------------
 (Depth) Function   	        Calls       Base Space   Used Autos Params    Refs
 ---------------------------------------------------------------------------------
 (0) _main                                                 0     0      0   35751
                           _ADC_Init
                         _PWM1_Start
                         _PWM2_Start
                    _controlarCooler
                   _controlarValores
               _controleMaximoMinimo
                 _imprimirValoresLcd
                            _lcd_cmd
                           _lcd_init
                            _lcd_str
                    _realizarCalculo
 ---------------------------------------------------------------------------------
 (1) _realizarCalculo                                     22    22      0   22434
                                             35 BANK1     22    22      0
                           _ADC_Read
                          _PWM1_Duty
                            ___awdiv
                            ___fladd
                            ___fldiv
                            ___flmul
                            ___flsub
                            ___fltol
                             ___wmul
                           ___xxtofl
               _controleMaximoMinimo
 ---------------------------------------------------------------------------------
 (2) ___wmul                                               6     2      4     244
                                              5 COMMON     6     2      4
                           _ADC_Read (ARG)
 ---------------------------------------------------------------------------------
 (2) ___flsub                                              8     0      8    3093
                                              0 BANK1      8     0      8
                            ___awdiv (ARG)
                            ___fladd
                            ___flmul (ARG)
                           ___xxtofl (ARG)
 ---------------------------------------------------------------------------------
 (3) ___fladd                                             20    12      8    2744
                                             54 BANK0     20    12      8
                            ___flmul (ARG)
                           ___xxtofl (ARG)
 ---------------------------------------------------------------------------------
 (2) _PWM1_Duty                                            6     2      4    8492
                                             29 BANK1      6     2      4
                           _PWM_Init
                            ___aldiv
                            ___fldiv
                            ___flmul
                            ___fltol
                           ___xxtofl
 ---------------------------------------------------------------------------------
 (1) _lcd_init                                             0     0      0      44
                            _lcd_cmd
 ---------------------------------------------------------------------------------
 (1) _imprimirValoresLcd                                   5     5      0    3237
                                             13 BANK0      5     5      0
                            ___awdiv
                            ___awmod
                            _lcd_cmd
                            _lcd_str
                            _sprintf
 ---------------------------------------------------------------------------------
 (2) _sprintf                                             21    18      3    1429
                                              0 BANK0     13    10      3
                            ___lwdiv
                            ___lwmod
 ---------------------------------------------------------------------------------
 (3) ___lwmod                                              6     2      4     311
                                              8 COMMON     6     2      4
                            ___lwdiv (ARG)
 ---------------------------------------------------------------------------------
 (3) ___lwdiv                                              8     4      4     314
                                              0 COMMON     8     4      4
 ---------------------------------------------------------------------------------
 (1) _lcd_str                                              4     2      2     514
                                              2 COMMON     4     2      2
                            _lcd_dat
 ---------------------------------------------------------------------------------
 (2) _lcd_dat                                              1     1      0      44
                                              1 COMMON     1     1      0
                             _lcd_wr
 ---------------------------------------------------------------------------------
 (2) _lcd_cmd                                              1     1      0      44
                                              1 COMMON     1     1      0
                             _lcd_wr
 ---------------------------------------------------------------------------------
 (3) _lcd_wr                                               1     1      0      22
                                              0 COMMON     1     1      0
 ---------------------------------------------------------------------------------
 (2) ___awmod                                              7     3      4     448
                                              0 COMMON     7     3      4
 ---------------------------------------------------------------------------------
 (2) ___awdiv                                              9     5      4     756
                                              7 COMMON     5     1      4
                                              0 BANK0      4     4      0
                            ___awmod (ARG)
 ---------------------------------------------------------------------------------
 (1) _controlarValores                                     1     1      0       0
                                              0 COMMON     1     1      0
 ---------------------------------------------------------------------------------
 (1) _controlarCooler                                      2     2      0    9030
                                             35 BANK1      2     2      0
                           _ADC_Read
                          _PWM2_Duty
               _controleMaximoMinimo
 ---------------------------------------------------------------------------------
 (2) _controleMaximoMinimo                                 2     0      2     448
                                             12 BANK0      2     0      2
                            ___fltol (ARG)
 ---------------------------------------------------------------------------------
 (2) _PWM2_Duty                                            6     2      4    8492
                                             29 BANK1      6     2      4
                           _PWM_Init
                            ___aldiv
                            ___fldiv
                            ___flmul
                            ___fltol
                           ___xxtofl
 ---------------------------------------------------------------------------------
 (2) ___xxtofl                                            14    10      4    1082
                                             14 BANK0     14    10      4
                           _ADC_Read (ARG)
                            ___aldiv (ARG)
                            ___awdiv (ARG)
                            ___fltol (ARG)
                             ___wmul (ARG)
               _controleMaximoMinimo (ARG)
 ---------------------------------------------------------------------------------
 (2) ___fltol                                             11     7      4     533
                                              9 COMMON     5     5      0
                                              6 BANK0      6     2      4
                          __Umul8_16 (ARG)
                            ___aldiv (ARG)
 ---------------------------------------------------------------------------------
 (2) ___flmul                                             26    18      8    3177
                                             28 BANK0     26    18      8
                          __Umul8_16
                            ___aldiv (ARG)
                            ___fltol (ARG)
                           ___xxtofl (ARG)
 ---------------------------------------------------------------------------------
 (3) __Umul8_16                                            9     7      2     799
                                              0 COMMON     9     7      2
 ---------------------------------------------------------------------------------
 (2) ___fldiv                                             26    18      8    1729
                                             74 BANK0      5     5      0
                                              8 BANK1     21    13      8
                            ___fladd (ARG)
                            ___flmul (ARG)
                            ___flsub (ARG)
                            ___fltol (ARG)
                           ___xxtofl (ARG)
 ---------------------------------------------------------------------------------
 (3) _PWM_Init                                             8     4      4     930
                                              9 COMMON     4     4      0
                                              6 BANK0      4     0      4
                            ___aldiv
 ---------------------------------------------------------------------------------
 (3) ___aldiv                                             15     7      8     756
                                              0 COMMON     9     1      8
                                              0 BANK0      6     6      0
 ---------------------------------------------------------------------------------
 (2) _ADC_Read                                             5     3      2      44
                                              0 COMMON     5     3      2
 ---------------------------------------------------------------------------------
 (1) _PWM2_Start                                           0     0      0       0
 ---------------------------------------------------------------------------------
 (1) _PWM1_Start                                           0     0      0       0
 ---------------------------------------------------------------------------------
 (1) _ADC_Init                                             0     0      0       0
 ---------------------------------------------------------------------------------
 Estimated maximum stack depth 3
 ---------------------------------------------------------------------------------

 Call Graph Graphs:

 _main (ROOT)
   _ADC_Init
   _PWM1_Start
   _PWM2_Start
   _controlarCooler
     _ADC_Read
     _PWM2_Duty
       _PWM_Init
         ___aldiv
       ___aldiv
       ___fldiv
         ___fladd (ARG)
           ___flmul (ARG)
             __Umul8_16
             ___aldiv (ARG)
             ___fltol (ARG)
               __Umul8_16 (ARG)
               ___aldiv (ARG)
             ___xxtofl (ARG)
               _ADC_Read (ARG)
               ___aldiv (ARG)
               ___awdiv (ARG)
                 ___awmod (ARG)
               ___fltol (ARG)
               ___wmul (ARG)
                 _ADC_Read (ARG)
               _controleMaximoMinimo (ARG)
                 ___fltol (ARG)
           ___xxtofl (ARG)
         ___flmul (ARG)
         ___flsub (ARG)
           ___awdiv (ARG)
           ___fladd (ARG)
           ___flmul (ARG)
           ___xxtofl (ARG)
         ___fltol (ARG)
         ___xxtofl (ARG)
       ___flmul
       ___fltol
       ___xxtofl
     _controleMaximoMinimo
   _controlarValores
   _controleMaximoMinimo
   _imprimirValoresLcd
     ___awdiv
     ___awmod
     _lcd_cmd
       _lcd_wr
     _lcd_str
       _lcd_dat
         _lcd_wr
     _sprintf
       ___lwdiv
       ___lwmod
         ___lwdiv (ARG)
   _lcd_cmd
   _lcd_init
     _lcd_cmd
   _lcd_str
   _realizarCalculo
     _ADC_Read
     _PWM1_Duty
       _PWM_Init
       ___aldiv
       ___fldiv
       ___flmul
       ___fltol
       ___xxtofl
     ___awdiv
     ___fladd
     ___fldiv
     ___flmul
     ___flsub
     ___fltol
     ___wmul
     ___xxtofl
     _controleMaximoMinimo

 Address spaces:
Name               Size   Autos  Total    Cost      Usage
BANK3               60      0      3A       9       60.4%
BITBANK3            60      0       0       8        0.0%
SFR3                 0      0       0       4        0.0%
BITSFR3              0      0       0       4        0.0%
BANK2               60      0       0      11        0.0%
BITBANK2            60      0       0      10        0.0%
SFR2                 0      0       0       5        0.0%
BITSFR2              0      0       0       5        0.0%
BANK1               50     39      50       7      100.0%
BITBANK1            50      0       0       6        0.0%
SFR1                 0      0       0       2        0.0%
BITSFR1              0      0       0       2        0.0%
BANK0               50     4F      50       5      100.0%
BITBANK0            50      0       0       4        0.0%
SFR0                 0      0       0       1        0.0%
BITSFR0              0      0       0       1        0.0%
COMMON               E      E       E       1      100.0%
BITCOMMON            E      0       0       0        0.0%
CODE                 0      0       0       0        0.0%
DATA                 0      0      E8      12        0.0%
ABS                  0      0      E8       3        0.0%
NULL                 0      0       0       0        0.0%
STACK                0      0       0       2        0.0%
EEDATA             100      0       0       0        0.0%


Microchip Technology PIC Macro Assembler V2.32 build 20210201212658 
Symbol Table                                                                                   Fri Jun 18 21:43:06 2021

                 ___fldiv@aexp 00BC                   ___fldiv@bexp 00BB                              pc 0002  
                 ___fldiv@sign 00B4                             l90 1564                             l93 1586  
                           l95 15AB                             l87 1538                             l98 15AF  
                 ___awdiv@sign 0021                             _kd 00DD                             _ki 00E8  
                           _kp 00EA                             fsr 0004            ___wmul@multiplicand 0077  
          __Umul8_16@word_mpld 0076                            l110 17FF                            l103 11DE  
                          l113 07DA                            l211 119F                            l116 12BE  
                          l214 11AF                            l223 1255                            l208 1176  
                          l217 12F4                            l170 080B                            l402 148A  
                          l163 0A2C                            l412 1512                            l173 0011  
                          l333 0B14                            l159 132B                            l167 0948  
                          l503 0864                            l337 11EB                            l194 118F  
                          l530 1460                            l523 1475                            l339 1203  
                          l533 1475                            l198 1289                            l710 0D63  
                          l702 0CBB                            l630 0DDB                            l199 127F  
                          l609 13A9                            l490 007A                            l634 0E82  
                          l619 1365                            l651 0F4D                            l643 0FFF  
                          l708 0D4B                            l732 0347                            l636 0E59  
                          l661 0F93                            l726 03DB                            l655 0F71  
                          l672 0FF3                            l664 0FD1                            l745 1218  
                          l673 0FFF                            l738 03CF                            l770 15D4  
                          l747 122A                            l772 166B                            l676 13F9  
                          l686 0B81                            l783 1635                            l688 0D77  
                          l784 1641                            l776 1619                            _RB0 0030  
                          _RB1 0031                            _RB2 0032                            _RB3 0033  
                          _PR2 0092                            _PID 0190   __end_of_controleMaximoMinimo 11DF  
                          fsr0 0004                            indf 0000                   ___awmod@sign 0076  
     __size_of_controlarCooler 0035            _realizarCalculo$845 00CB            _realizarCalculo$846 00CF  
          _realizarCalculo$847 00D3            _realizarCalculo$848 00D7                   _proporcional 019C  
                 ___flmul@aexp 004E                   ___flmul@bexp 004F                   ___flmul@sign 0049  
                 ___flmul@temp 0054                   ___flmul@prod 0050                   ___fltol@exp1 002B  
                         l2001 11AD                           l2011 1410                           l2003 11AE  
                         l2021 1434                           l2013 1425                           l2005 13FA  
                         l2101 0D94                           l2015 1426                           l2007 1407  
                         l2111 0DAC                           l2103 0D9C                           l2017 142E  
                         l2041 1366                           l2201 0EBC                           l2121 0DBE  
                         l2113 0DB2                           l2105 0D9D                           l3001 1715  
                         l2035 1455                           l2027 143C                           l2019 1430  
                         l2051 137C                           l2043 1368                           l2203 0EBE  
                         l2211 0ED1                           l2123 0DC3                           l2131 0DD3  
                         l2115 0DB3                           l2107 0D9F                           l3003 171A  
                         l2301 0B44                           l2037 1465                           l2029 144E  
                         l2061 139F                           l2053 1380                           l2045 136E  
                         l2213 0EE7                           l2221 0F3F                           l2205 0EC2  
                         l2141 0DF1                           l2133 0DE1                           l2125 0DC8  
                         l2117 0DB9                           l2109 0DA7                           l3005 171F  
                         l2311 0B64                           l2303 0B4C                           l2039 146A  
                         l2055 1391                           l2047 1371                           l2063 13A5  
                         l2071 1335                           l2231 0F6C                           l2223 0F55  
                         l2215 0F25                           l2207 0EC3                           l2151 0E05  
                         l2143 0DF5                           l2135 0DE5                           l2127 0DD0  
                         l2119 0DBD                           l2401 0D0E                           l2313 0B69  
                         l2321 0B79                           l2305 0B55                           l2057 1397  
                         l2049 1378                           l2081 1354                           l2073 133C  
                         l2241 0F7F                           l2233 0F70                           l2225 0F5A  
                         l2217 0F2B                           l2209 0ECC                           l2161 0E19  
                         l2153 0E09                           l2145 0DF9                           l2137 0DE9  
                         l2129 0DD1                           l2411 0D42                           l2403 0D14  
                         l2323 0B89                           l2331 0BA6                           l2315 0B6E  
                         l2307 0B5F                           l2059 1398                           l2083 135B  
                         l2075 1340                           l2067 132C                           l3027 0A5A  
                         l2251 0F90                           l2235 0F75                           l2243 0F81  
                         l2219 0F30                           l2171 0E3D                           l2163 0E1D  
                         l2155 0E0D                           l2147 0DFD                           l2139 0DED  
                         l2091 0D7F                           l2413 0D4A                           l2405 0D21  
                         l2341 0BDA                           l2333 0BAB                           l2325 0B95  
                         l2317 0B76                           l2309 0B63                           l2501 0278  
                         l2077 1344                           l2069 1332                           l2085 1361  
                         l2261 0FAF                           l2237 0F78                           l2229 0F63  
                         l2245 0F85                           l2181 0E6D                           l2173 0E5D  
                         l2165 0E21                           l2157 0E11                           l2149 0E01  
                         l2093 0D85                           l2415 0D55                           l2407 0D2F  
                         l2351 0C0D                           l2343 0BE2                           l2327 0B9D  
                         l2319 0B77                           l2511 030A                           l2503 02A5  
                         l2431 008C                           l2079 134E                           l2271 0FE8  
                         l2263 0FCD                           l2255 0F98                           l2247 0F86  
                         l2239 0F7A                           l2183 0E76                           l2175 0E66  
                         l2159 0E15                           l2167 0E25                           l2095 0D89  
                         l2417 0D59                           l2409 0D3E                           l2361 0C38  
                         l2353 0C13                           l2345 0BEA                           l2337 0BB4  
                         l2513 0313                           l2521 0327                           l2505 02CB  
                         l2441 00A1                           l2433 008D                           l2425 007B  
                         l2601 165E                           l2281 0FFE                           l2273 0FE9  
                         l2265 0FD6                           l2257 0F9D                           l2249 0F8A  
                         l2193 0E94                           l2177 0E68                           l2185 0E7A  
                         l2169 0E26                           l2097 0D8A                           l2089 0D78  
                         l2419 0D5B                           l2371 0C5E                           l2363 0C46  
                         l2355 0C14                           l2347 0BEC                           l2339 0BD2  
                         l2291 0B2F                           l2283 0B15                           l2523 032B  
                         l2515 0317                           l2507 02F3                           l2451 00B9  
                         l2443 00A9                           l2435 0092                           l2427 0082  
                         l2603 1662                           l2611 11C9                           l2275 0FED  
                         l2267 0FDB                           l2259 0FAB                           l2195 0EAB  
                         l2187 0E86                           l2179 0E6C                           l2099 0D8F  
                         l2701 1257                           l2373 0C6D                           l2381 0C8B  
                         l2349 0BF1                           l2357 0C23                           l2365 0C4E  
                         l2293 0B34                           l2285 0B20                           l2541 037C  
                         l2533 034C                           l2525 032C                           l2517 0318  
                         l2509 02FC                           l2461 00D5                           l2453 00BE  
                         l2445 00AE                           l2437 0097                           l2429 0088  
                         l2605 1663                           l2613 11CB                           l2621 1191  
                         l2277 0FEF                           l2269 0FE3                           l2197 0EAF  
                         l2189 0E8B                           l2711 127C                           l2703 125D  
                         l2383 0C8F                           l2375 0C73                           l2367 0C54  
                         l2359 0C37                           l2295 0B39                           l2287 0B2A  
                         l2551 03B3                           l2535 0351                           l2543 0382  
                         l2527 0330                           l2519 0321                           l2471 00F8  
                         l2463 00DA                           l2455 00C3                           l2447 00B4  
                         l2439 009F                           l2615 11D8                           l2623 1194  
                         l2631 0A30                           l2279 0FFA                           l2199 0EB3  
                         l2713 1283                           l2393 0CC2                           l2385 0C90  
                         l2377 0C74                           l2369 0C5C                           l2297 0B41  
                         l2289 0B2E                           l2561 03D3                           l2553 03B5  
                         l2545 038F                           l2537 035F                           l2529 0344  
                         l2481 0186                           l2473 0105                           l2465 00DF  
                         l2457 00CB                           l2449 00B8                           l2617 11DE  
                         l2609 11C3                           l2801 080D                           l2625 119A  
                         l2633 0A35                           l2721 0967                           l2707 1260  
                         l2395 0CC7                           l2387 0C94                           l2379 0C83  
                         l2299 0B42                           l2555 03C3                           l2547 039A  
                         l2539 0363                           l2491 01E8                           l2483 01A2  
                         l2475 0122                           l2459 00CD                           l2571 15CC  
                         l2731 0878                           l2811 0821                           l2803 0811  
                         l2627 119D                           l2651 0A75                           l2643 0A48  
                         l2635 0A3B                           l2723 0A0F                           l2709 1273  
                         l1941 1479                           l2397 0CD5                           l2389 0CB6  
                         l2557 03C7                           l2549 03A9                           l2493 0205  
                         l2485 01AB                           l2477 013E                           l2469 00E8  
                         l2581 15F7                           l2573 15DC                           l2565 15B3  
                         l2733 0883                           l2821 0839                           l2813 0827  
                         l2805 0816                           l2629 119E                           l2661 0A80  
                         l2653 0A79                           l2645 0A65                           l2637 0A42  
                         l2901 179E                           l2725 0A12                           l2717 0949  
                         l2741 11DF                           l1951 14A5                           l1943 147D  
                         l2399 0CD9                           l2559 03C8                           l2495 021E  
                         l2487 01BB                           l2479 016A                           l2591 162B  
                         l2583 15FE                           l2567 15B8                           l2735 092B  
                         l2831 085B                           l2823 0843                           l2815 082A  
                         l2807 0818                           l2671 0AB3                           l2655 0A7E  
                         l2647 0A6D                           l2639 0A47                           l2911 17CC  
                         l2903 17A7                           l2727 0A1E                           l2719 095C  
                         l2751 11FF                           l2743 11E1                           l1961 14CA  
                         l1953 14AD                           l1945 148E                           l2497 023B  
                         l2489 01D8                           l2593 162F                           l2585 1602  
                         l2577 15E5                           l2569 15BC                           l2737 092E  
                         l2729 0865                           l2761 001E                           l2833 0860  
                         l2825 0849                           l2817 0831                           l2809 081C  
                         l1937 1172                           l2681 0AF5                           l2673 0AB7  
                         l2665 0A9C                           l2649 0A71                           l2913 17E4  
                         l2905 17AD                           l2745 11E5                           l2921 0440  
                         l1963 14DC                           l1955 14B0                           l1971 14FA  
                         l1947 1499                           l1939 1476                           l2499 0268  
                         l2595 1639                           l2587 1610                           l2579 15EA  
                         l2739 093A                           l2851 152B                           l2843 1513  
                         l2771 002F                           l2763 0020                           l2755 0012  
                         l2827 0850                           l2819 0835                           l2675 0ABC  
                         l2667 0AA6                           l2683 0AFE                           l2915 17ED  
                         l2907 17B4                           l2747 11F2                           l2931 0637  
                         l2923 049B                           l1973 14FF                           l1965 14EA  
                         l1957 14BD                           l1949 149D                           l1981 1207  
                         l2597 1643                           l2589 1620                           l2861 1551  
                         l2853 1532                           l2845 1519                           l2781 0047  
                         l2773 0035                           l2765 0024                           l2757 0015  
                         l2829 0856                           l2693 122B                           l2677 0AEA  
                         l2669 0AAC                           l2685 0B10                           l2909 17C6  
                         l2917 17F9                           l2837 13AA                           l2749 11F9  
                         l2941 07A6                           l2933 0682                           l2925 04EF  
                         l2951 1187                           l1975 150A                           l1967 14EB  
                         l1959 14C1                           l1983 120E                           l2599 1659  
                         l2871 1575                           l2863 1557                           l2855 153F  
                         l2847 151E                           l2783 0058                           l2775 0038  
                         l2791 006C                           l2767 0029                           l2759 0019  
                         l2695 122D                           l2679 0AF1                           l2839 13AE  
                         l2943 07CD                           l2935 069A                           l2927 0545  
                         l2919 03DC                           l2953 0803                           l1969 14F4  
                         l1993 12F5                           l1985 1212                           l2945 128A  
                         l2881 1597                           l2873 157A                           l2865 155E  
                         l2857 1547                           l2849 1525                           l2793 0071  
                         l2785 005E                           l2777 003F                           l2769 002D  
                         l2697 123E                           l2937 06E5                           l2929 05A7  
                         l2961 166C                           l2955 0007                           l1987 1221  
                         l1979 1205                           l2947 1296                           l2883 159C  
                         l2875 1580                           l2867 1568                           l2859 154C  
                         l2795 0076                           l2787 005F                           l2779 0043  
                         l1995 11A1                           l2699 1242                           l2891 1730  
                         l2939 0757                           l2971 167A                           l2963 1672  
                         l1989 1226                           l2949 12B1                           l2885 15A2  
                         l2877 158A                           l2869 1570                           l2789 0066  
                         l1997 11A4                           l2893 173A                           l2957 12BF  
                         l2981 1698                           l2973 167F                           l2965 1673  
                         l2887 15A7                           l2879 1592                           l2799 080C  
                         l1999 11AA                           l2895 1775                           l2959 12C4  
                         l2991 16B7                           l2983 169E                           l2975 1684  
                         l2967 1674                           l2897 1785                           l2889 1728  
                         l2993 16BD                           l2985 16A7                           l2977 1689  
                         l2969 1675                           l2899 178E                           l2995 16DA  
                         l2987 16AC                           l2979 168F                           l2997 16F5  
                         l2989 16B2                           l2999 1710                           STR_1 1032  
                         STR_2 1032                           STR_3 1032                           STR_4 1026  
                         STR_5 101A                           u3000 0FAF                           u3001 0FAE  
                         u3010 0FBE                           u2300 14DC                           u3100 0B39  
                         u3020 0FCD                           u2301 14DB                           u3101 0B38  
                         u3021 0FCC                           u3110 0B63                           u3030 0FD6  
                         u3111 0B62                           u3031 0FD5                           u3015 0FB9  
                         u4000 1283                           u2320 14FA                           u2240 147D  
                         u3120 0B69                           u2400 141E                           u3040 0FDB  
                         u4001 1282                           u2321 14F9                           u2305 14D8  
                         u2241 147C                           u3121 0B68                           u3041 0FDA  
                         u2330 14FF                           u2250 148E                           u3210 0C37  
                         u3130 0B6E                           u2410 1434                           u4010 0967  
                         u3050 0FE8                           u2331 14FE                           u2315 14EC  
                         u2251 148D                           u3211 0C36                           u3131 0B6D  
                         u2411 1433                           u4011 0966                           u3051 0FE7  
                         u2260 14AD                           u3300 0CC1                           u3220 0C54  
                         u3140 0B89                           u2340 1212                           u2420 143B  
                         u4020 0A1B                           u3060 0FED                           u2261 14AC  
                         u3301 0CC0                           u3221 0C53                           u3205 0C18  
                         u3141 0B88                           u2341 1211                           u2421 143A  
                         u2405 1419                           u4021 0A17                           u3061 0FEC  
                         u3310 0CC7                           u3230 0C5C                           u3150 0BAB  
                         u2510 1380                           u3070 0FFE                           u3311 0CC6  
                         u3231 0C5B                           u3215 0C33                           u3151 0BAA  
                         u2511 137F                           u3071 0FFD                           u2280 14C1  
                         u3320 0CD9                           u3160 0BF1                           u3080 0B2E  
                         u2360 1226                           u3400 00B8                           u2440 144D  
                         u4120 11FF                           u2281 14C0                           u3321 0CD8  
                         u3161 0BF0                           u3081 0B2D                           u2361 1225  
                         u3401 00B7                           u2441 144C                           u2505 1372  
                         u4121 11FE                           u4105 11EC                           u2370 1305  
                         u3330 0CF6                           u3250 0C73                           u3090 0B34  
                         u3410 00BE                           u2450 1454                           u4050 0883  
                         u4210 006C                           u4130 0019                           u2530 1391  
                         u2610 1361                           u4034 0A1E                           u2275 14B2  
                         u3251 0C72                           u3091 0B33                           u2355 1219  
                         u3411 00BD                           u2451 1453                           u2435 143D  
                         u4051 0882                           u4211 006B                           u4131 0018  
                         u2531 1390                           u2611 1360                           u4115 11F3  
                         u2380 130E                           u3340 0D21                           u3420 00C3  
                         u4060 0937                           u4220 0071                           u4140 0024  
                         u4300 0856                           u2700 0DE5                           u2620 0D89  
                         u3341 0D20                           u3245 0C62                           u3501 01CA  
                         u3421 00C2                           u4061 0933                           u4221 0070  
                         u4205 0060                           u4141 0023                           u4301 0855  
                         u2525 1381                           u2605 1355                           u4045 0A23  
                         u2701 0DE4                           u2621 0D88                           u3350 0D3E  
                         u3270 0C8F                           u3190 0C13                           u3502 01D1  
                         u3430 00DA                           u2470 1465                           u2390 1407  
                         u4150 0035                           u4310 085B                           u4230 0811  
                         u2550 13A5                           u2710 0E3D                           u2630 0D8F  
                         u2295 14C3                           u2375 1300                           u3351 0D3D  
                         u3335 0CF1                           u3271 0C8E                           u3191 0C12  
                         u3175 0BF5                           u3511 01F7                           u3503 01D8  
                         u3431 00D9                           u2471 1464                           u2391 1406  
                         u4151 0034                           u4311 085A                           u4231 0810  
                         u2551 13A4                           u2535 138D                           u2711 0E3C  
                         u2631 0D8E                           u3360 0D59                           u3280 0C94  
                         u3512 01FE                           u3440 00DF                           u2480 146A  
                         u4400 1580                           u4320 151E                           u4240 081C  
                         u2560 1332                           u2720 0E48                           u2640 0D94  
                         u2385 1309                           u3361 0D58                           u3345 0D1D  
                         u3281 0C93                           u3265 0C78                           u3185 0C02  
                         u3513 0205                           u3441 00DE                           u2481 1469  
                         u2465 1457                           u4401 157F                           u4321 151D  
                         u4241 081B                           u2545 1399                           u2561 1331  
                         u2801 0E9D                           u2721 0E46                           u2641 0D93  
                         u3290 0CB6                           u3370 008C                           u4074 093A  
                         u4410 1597                           u4330 1525                           u4170 0047  
                         u4250 0827                           u2490 136E                           u2810 0EAF  
                         u2802 0EA4                           u2730 0E49                           u2650 0DB2  
                         u4090 11E5                           u3355 0D3A                           u3291 0CB5  
                         u3531 022D                           u3451 0130                           u3371 008B  
                         u4411 1596                           u4331 1524                           u4171 0046  
                         u4251 0826                           u2491 136D                           u2811 0EAE  
                         u2803 0EAB                           u2715 0E39                           u2651 0DB1  
                         u4091 11E4                           u3700 0372                           u3620 0317  
                         u3532 0234                           u3452 0137                           u3380 0092  
                         u4420 159C                           u4340 152B                           u2580 1344  
                         u2900 0F5A                           u2820 0EB3                           u2740 0E5D  
                         u2660 0DBD                           u3621 0316                           u3605 02F5  
                         u3541 025A                           u3533 023B                           u3525 0207  
                         u3461 014C                           u3453 013E                           u3381 0091  
                         u4085 093F                           u4421 159B                           u4341 152A  
                         u4165 0039                           u2581 1343                           u2901 0F59  
                         u2821 0EB2                           u2741 0E5C                           u2661 0DBC  
                         u3710 038F                           u3542 0261                           u3462 0153  
                         u3390 0097                           u4430 15A2                           u4350 154C  
                         u4190 0058                           u4270 0839                           u2590 134E  
                         u2830 0EC2                           u2750 0E6C                           u2670 0DC3  
                         u3711 038E                           u3615 030C                           u3551 0287  
                         u3543 0268                           u3471 0178                           u3463 015A  
                         u3391 0096                           u4431 15A1                           u4351 154B  
                         u4191 0057                           u4271 0838                           u2591 134D  
                         u2575 1336                           u2831 0EC1                           u2751 0E6B  
                         u2671 0DC2                           u3720 03A9                           u3640 032B  
                         u3560 02B1                           u3552 028E                           u3472 017F  
                         u3800 161F                           u4360 1551                           u4280 0843  
                         u4440 1730                           u2920 0F70                           u2680 0DC8  
                         u3721 03A8                           u3705 036D                           u3641 032A  
                         u3553 0295                           u3481 0194                           u3473 0186  
                         u3801 161E                           u4361 1550                           u4185 0048  
                         u4281 0842                           u4265 082B                           u4441 172F  
                         u2921 0F6F                           u2681 0DC7                           u3730 03C7  
                         u3650 0330                           u3482 019B                           u4370 1557  
                         u4450 173A                           u2930 0F75                           u2850 0EE7  
                         u2770 0E82                           u2690 0DE1                           u3731 03C6  
                         u3715 038B                           u3651 032F                           u3635 031A  
                         u3571 02BD                           u3483 01A2                           u4371 1556  
                         u4195 0054                           u2595 134A                           u4451 1739  
                         u2931 0F74                           u2915 0F65                           u2851 0EE6  
                         u2771 0E81                           u2691 0DE0                           u3660 0344  
                         u3580 02D9                           u3572 02C4                           u3820 162F  
                         u3740 15B8                           u4380 1575                           u3900 0A3B  
                         u4460 17C6                           u2940 0F7F                           u2780 0E86  
                         u3725 03A5                           u3661 0343                           u3573 02CB  
                         u3565 02AC                           u3821 162E                           u3741 15B7  
                         u4381 1574                           u4285 083F                           u3901 0A3A  
                         u4461 17C5                           u2941 0F7E                           u2861 0EFE  
                         u2853 0EE3                           u2845 0EC5                           u2781 0E85  
                         u2765 0E6F                           u3670 034B                           u3830 1635  
                         u3750 15BC                           u4390 157A                           u3910 0A75  
                         u2950 0F85                           u2870 0F12                           u2862 0EFF  
                         u2790 0E8B                           u3671 034A                           u3591 02E5  
                         u3495 01A4                           u3831 1634                           u3815 1624  
                         u3751 15BB                           u4391 1579                           u4295 084A  
                         u3911 0A74                           u4455 1736                           u2951 0F84  
                         u2871 0F13                           u2863 0F04                           u2791 0E8A  
                         u3680 0351                           u3592 02EC                           u3840 1639  
                         u3760 15DC                           u3920 0A9B                           u2960 0F8A  
                         u2880 0F30                           u2872 0F18                           u2864 0F05  
                         u3681 0350                           u3593 02F3                           u3585 02D4  
                         u3841 1638                           u3761 15DB                           u3921 0A9A  
                         u4465 17C2                           u2961 0F89                           u2881 0F2F  
                         u2873 0F19                           u2865 0F0A                           u3690 0363  
                         u3850 164E                           u3930 0AA6                           u2970 0F90  
                         u2890 0F55                           u2866 0F0B                           u3691 0362  
                         u3931 0AA5                           u2971 0F8F                           u2891 0F54  
                         u3860 165E                           u3780 15FD                           u3940 0AAC  
                         u2980 0F97                           u4477 1277                           u3861 165D  
                         u3781 15FC                           u3941 0AAB                           u3925 0A97  
                         u2981 0F96                           u3870 1662                           u3950 0AFE  
                         u2990 0F9D                           u3871 1661                           u3855 1649  
                         u3775 15EF                           u3951 0AFD                           u2991 0F9C  
                         u3880 11C9                           u3960 0B10                           u3881 11C8  
                         u3961 0B0F                           u3890 11D8                           u3970 1255  
                         u3795 1611                           u3891 11D7                           u3971 1254  
                         u3980 125D                           u3981 125C                           u3895 11D4  
                         u3995 1269                           _main 166C                           _erro 01A0  
                         _menu 00EE                           btemp 007E               __end_of_ADC_Init 1190  
             __end_of_ADC_Read 128A                           start 0000                ___fldiv@new_exp 00B5  
                ___fltol@sign1 002A                __end_of___aldiv 1513                __end_of___fladd 1000  
                        ?_main 0070                          _CCP1X 00BD                __end_of___fldiv 0D78  
                        _CCP1Y 00BC                          _CCP2X 00ED                          _CCP2Y 00EC  
              __end_of___awdiv 007B                __end_of___awmod 0865                __end_of___flmul 03DC  
              __end_of___flsub 13FA                __end_of___fltol 1476                ___awdiv@divisor 0077  
              __end_of___lwdiv 13AA                __end_of___lwmod 1366                ___awdiv@counter 0020  
                        _PORTD 0008                          _TRISA 0085                          _TRISB 0086  
                        _TRISC 0087                          _TRISD 0088                          _TRISE 0089  
     __end_of_controlarValores 15B0                __end_of_lcd_dat 11B0                __end_of_lcd_cmd 11A0  
              __end_of_lcd_str 1256             __size_of_PWM1_Duty 00E4                    ?_PWM1_Start 0070  
           __size_of_PWM2_Duty 00E4                    ?_PWM2_Start 0070                __end_of_dpowers 101A  
                        pclath 000A               __end_of_PWM_Init 132C                          status 0003  
                        wtemp0 007E                __end_of_sprintf 0B15               ?_realizarCalculo 0070  
              __initialization 07DB                   __end_of_main 1728                         ??_main 007E  
           _setPointReferencia 00DF                         _ADCON0 001F                         _ADCON1 009F  
                       _CCP1M2 00BA                         _CCP1M3 00BB                         _CCP2M2 00EA  
                       _CCP2M3 00EB                         _ADRESH 001E                         _ADRESL 009E  
                       _CCPR1L 0015                         _CCPR2L 001B               ___awdiv@dividend 0079  
            ??_controlarCooler 007E                         _TMR2ON 0092                         _TRISC1 0439  
                       _TRISC2 043A               __end_of___xxtofl 166C           _controleMaximoMinimo 11C3  
             __end_of_lcd_init 12F5              __end_of_PWM1_Duty 0A2D              __end_of_PWM2_Duty 0949  
                    ??___aldiv 0078                      ??___fladd 005E     __end_of_imprimirValoresLcd 1800  
                       ___wmul 11DF                      ??___fldiv 006A                      ??___awdiv 007B  
          __size_of_PWM1_Start 0009                      ??___awmod 0074                      ??___flmul 0044  
                    ??___flsub 007E                      ??___fltol 0079            __size_of_PWM2_Start 000B  
                    ??___lwdiv 0074                      ??___lwmod 007C                         _lcd_wr 1171  
              ADC_Read@channel 0074               ___awdiv@quotient 0022                ___awmod@divisor 0070  
              ___awmod@counter 0075                      ??_lcd_dat 0071                      ??_lcd_cmd 0071  
                       _string 01AA                      ??_lcd_str 0074             __size_of__Umul8_16 0027  
                 PWM_Init@freq 0026                      ?_ADC_Init 0070                      ?_ADC_Read 0070  
                    ??_sprintf 0023                   ___xxtofl@arg 0038                   ___xxtofl@exp 0037  
                 ___xxtofl@val 002E        __end_of__initialization 07FC                     ___fltol@f1 0026  
        ?_controleMaximoMinimo 002C                 __pcstackCOMMON 0070                   __pidataBANK1 117F  
                    ?_PWM_Init 0026                     ??_ADC_Init 0070                     ??_ADC_Read 0072  
                   __pbssBANK0 006F                     __pbssBANK1 00D9                     __pbssBANK3 0190  
            __end_of__Umul8_16 122B                     __pmaintext 166C                        ?___wmul 0075  
                      ?_lcd_wr 0070                     _derivativo 0194                     ??_PWM_Init 0079  
                      _T2CKPS0 0090                        _T2CKPS1 0091                      ?___xxtofl 002E  
                 ??_PWM1_Start 0070              ?_controlarValores 0070                   ??_PWM2_Start 0070  
                    ?_lcd_init 0070             ??_controlarValores 0070                     __stringtab 1000  
       ??_controleMaximoMinimo 007E                        ___aldiv 1476                        ___fladd 0D78  
                      ___fldiv 0B15                        ___awdiv 0012                        ___awmod 080C  
                      ___flmul 007B                        ___flsub 13AA                        ___fltol 13FA  
              __size_of___wmul 0025                        ___lwdiv 1366                        ___lwmod 132C  
           __end_of_PWM1_Start 080C             __end_of_PWM2_Start 0012                __size_of_lcd_wr 0006  
                      __ptext1 03DC                        __ptext2 11DF                        __ptext3 13AA  
                      __ptext4 0D78                        __ptext5 0949                        __ptext6 12BF  
                      __ptext7 1728                        __ptext8 0A2D                        __ptext9 132C  
                      _lcd_dat 11A0                        _lcd_cmd 1190                        _lcd_str 122B  
                      _dpowers 1010                _controlarCooler 128A                     ??___xxtofl 0032  
             ___awmod@dividend 0072               ___aldiv@dividend 0074                        _sprintf 0A2D  
                      clrloop0 1178                     ??_lcd_init 0072           end_of_initialization 07FC  
    imprimirValoresLcd@centena 0030               ___aldiv@quotient 0022       __size_of_realizarCalculo 03FF  
                    _PWM1_Duty 0949                      _PWM2_Duty 0865                      _PORTEbits 0009  
                  ___fladd@grs 0069                  ___xxtofl@sign 0036      controleMaximoMinimo@valor 002C  
           _imprimirValoresLcd 1728                     lcd_dat@val 0071                     lcd_cmd@val 0071  
                  ___fldiv@grs 00B7                    ___fldiv@rem 00B0              __size_of_ADC_Init 0009  
            __size_of_ADC_Read 0034                   _kpReferencia 01A8            ?_imprimirValoresLcd 0070  
                  ___flmul@grs 004A                     lcd_str@str 0072        __end_of_controlarCooler 12BF  
               __end_of___wmul 1204           ??_imprimirValoresLcd 002D                     ?_PWM1_Duty 00BD  
                   ?_PWM2_Duty 00BD                 __end_of_lcd_wr 1177              __size_of_PWM_Init 0037  
          start_initialization 07DB          controlarCooler@cooler 00C3                       ??___wmul 0079  
                   init_fetch0 11B0                      __Umul8_16 1204                       ??_lcd_wr 0070  
                  __pdataBANK1 00E8                      ___fladd@a 005A                      ___fladd@b 0056  
                    ___fldiv@a 00A8                      ___fldiv@b 00AC                      ___flmul@a 0040  
                    ___flmul@b 003C                      ___flsub@a 00A0                      ___flsub@b 00A4  
                    ___latbits 0002                  __pcstackBANK0 0020                  __pcstackBANK1 00A0  
            ??_realizarCalculo 00C3              __size_of___xxtofl 00BC              __size_of_lcd_init 0036  
                  sprintf@flag 0027                    sprintf@prec 0028               ___lwdiv@dividend 0072  
    __size_of_controlarValores 009D          _temperaturaReferencia 01A4                       ?___aldiv 0070  
                     ?___fladd 0056                       ?___fldiv 00A8                       ?___awdiv 0077  
                     ?___awmod 0070                       ?___flmul 003C                       ?___flsub 00A0  
                     ?___fltol 0026                     ?__Umul8_16 0070                       ?___lwdiv 0070  
                     ?___lwmod 0078               ?_controlarCooler 0070                    ??_PWM1_Duty 00C1  
                  ??_PWM2_Duty 00C1                      __pstrings 1000                       ?_lcd_dat 0070  
                     ?_lcd_cmd 0070                       ?_lcd_str 0072                       _ADC_Init 1187  
                     _ADC_Read 1256               ___lwdiv@quotient 0075                       ?_sprintf 0020  
              ___aldiv@divisor 0070                ___aldiv@counter 0020                 ___wmul@product 0079  
                    clear_ram0 1177  __size_of_controleMaximoMinimo 001C                  PWM1_Duty@freq 00BF  
                PWM1_Duty@duty 00BD                       _GO_nDONE 00FA                  PWM2_Duty@freq 00BF  
                PWM2_Duty@duty 00BD        controlarValores@S1Atual 006F        controlarValores@S2Atual 00E5  
      controlarValores@S3Atual 00E3        controlarValores@S4Atual 00E1                    __stringbase 100F  
                     _PWM_Init 12F5              ___wmul@multiplier 0075                      lcd_wr@val 0070  
   controlarValores@S1Anterior 00E7     controlarValores@S2Anterior 00E6     controlarValores@S3Anterior 00E4  
   controlarValores@S4Anterior 00E2                    ??__Umul8_16 0072               __size_of___aldiv 009D  
             __size_of___fladd 0288               __size_of___fldiv 0263               __size_of___awdiv 0069  
             __size_of___awmod 0059               __size_of___flmul 0361               __size_of___flsub 0050  
             __size_of___fltol 007C               __size_of___lwdiv 0044               __size_of___lwmod 003A  
           __end_of__stringtab 1010               __size_of_lcd_dat 0010               __size_of_lcd_cmd 0010  
             __size_of_lcd_str 002B                     sprintf@val 0029                       ___xxtofl 15B0  
              ___lwdiv@divisor 0070                ___lwdiv@counter 0077                       __ptext10 1366  
                     __ptext11 122B                       __ptext20 0865                       __ptext12 11A0  
                     __ptext21 15B0                       __ptext13 1190                       __ptext30 0803  
                     __ptext22 13FA                       __ptext14 1171                       __ptext31 1187  
                     __ptext23 007B                       __ptext15 080C                       __ptext24 1204  
                     __ptext16 0012                       __ptext25 0B15                       __ptext17 1513  
                     __ptext26 12F5                       __ptext18 128A                       __ptext27 1476  
                     __ptext19 11C3                       __ptext28 1256                       __ptext29 0007  
                     _lcd_init 12BF               __size_of_sprintf 00E8                  __size_of_main 00BC  
                     _integral 0198                       _setPoint 00EC               _controlarValores 1513  
              _realizarCalculo 03DC                       lcd_str@i 0075    __size_of_imprimirValoresLcd 00D8  
                     init_ram0 11B4                      sprintf@ap 0026                      sprintf@sp 002B  
             ___lwmod@dividend 007A                      stringcode 100A       imprimirValoresLcd@milhar 002E  
       __Umul8_16@multiplicand 0070                    _temperatura 00D9                       sprintf@c 002C  
                     sprintf@f 0020                ___lwmod@divisor 0078                ___lwmod@counter 007D  
                     stringdir 100A                       stringtab 1000                   ___aldiv@sign 0021  
                   _PWM1_Start 0803                     _PWM2_Start 0007                  ___fladd@signs 0066  
                 ___fladd@aexp 0067                   ___fladd@bexp 0068           __Umul8_16@multiplier 0078  
      __end_of_realizarCalculo 07DB              __Umul8_16@product 0074  
