

Microchip MPLAB XC8 Assembler V2.32 build 20210201212658 
                                                                                               Thu Jun 17 22:06:19 2021

Microchip MPLAB XC8 C Compiler v2.32 (Free license) build 20210201212658 Og1 
     1                           	processor	16F877A
     2                           	pagewidth 120
     3                           	opt	flic
     4                           	psect	idataBANK1,global,class=CODE,delta=2,noexec
     5                           	psect	idataBANK3,global,class=CODE,delta=2,noexec
     6                           	psect	strings,global,class=STRING,delta=2,noexec
     7                           	psect	cinit,global,class=CODE,merge=1,delta=2
     8                           	psect	bssBANK1,global,class=BANK1,space=1,delta=1,noexec
     9                           	psect	dataBANK1,global,class=BANK1,space=1,delta=1,noexec
    10                           	psect	bssBANK3,global,class=BANK3,space=1,delta=1,noexec
    11                           	psect	dataBANK3,global,class=BANK3,space=1,delta=1,noexec
    12                           	psect	bssBANK2,global,class=BANK2,space=1,delta=1,noexec
    13                           	psect	inittext,global,class=CODE,delta=2
    14                           	psect	clrtext,global,class=CODE,delta=2
    15                           	psect	cstackBANK1,global,class=BANK1,space=1,delta=1,noexec
    16                           	psect	cstackCOMMON,global,class=COMMON,space=1,delta=1,noexec
    17                           	psect	cstackBANK0,global,class=BANK0,space=1,delta=1,noexec
    18                           	psect	maintext,global,class=CODE,split=1,delta=2
    19                           	psect	text1,local,class=CODE,merge=1,delta=2
    20                           	psect	text2,local,class=CODE,merge=1,delta=2,group=2
    21                           	psect	text3,local,class=CODE,merge=1,delta=2,group=2
    22                           	psect	text4,local,class=CODE,merge=1,delta=2,group=2
    23                           	psect	text5,local,class=CODE,merge=1,delta=2,group=2
    24                           	psect	text6,local,class=CODE,merge=1,delta=2
    25                           	psect	text7,local,class=CODE,merge=1,delta=2
    26                           	psect	text8,local,class=CODE,merge=1,delta=2
    27                           	psect	text9,local,class=CODE,merge=1,delta=2
    28                           	psect	text10,local,class=CODE,merge=1,delta=2
    29                           	psect	text11,local,class=CODE,merge=1,delta=2,group=1
    30                           	psect	text12,local,class=CODE,merge=1,delta=2,group=2
    31                           	psect	text13,local,class=CODE,merge=1,delta=2,group=2
    32                           	psect	text14,local,class=CODE,merge=1,delta=2
    33                           	psect	text15,local,class=CODE,merge=1,delta=2
    34                           	psect	text16,local,class=CODE,merge=1,delta=2
    35                           	psect	text17,local,class=CODE,merge=1,delta=2
    36                           	psect	text18,local,class=CODE,merge=1,delta=2,group=2
    37                           	psect	text19,local,class=CODE,merge=1,delta=2
    38                           	psect	text20,local,class=CODE,merge=1,delta=2
    39                           	psect	text21,local,class=CODE,merge=1,delta=2
    40                           	psect	text22,local,class=CODE,merge=1,delta=2,group=2
    41                           	psect	text23,local,class=CODE,merge=1,delta=2,group=2
    42                           	psect	text24,local,class=CODE,merge=1,delta=2,group=2
    43                           	psect	text25,local,class=CODE,merge=1,delta=2,group=2
    44                           	psect	text26,local,class=CODE,merge=1,delta=2,group=2
    45                           	psect	text27,local,class=CODE,merge=1,delta=2
    46                           	psect	text28,local,class=CODE,merge=1,delta=2,group=2
    47                           	psect	text29,local,class=CODE,merge=1,delta=2
    48                           	psect	text30,local,class=CODE,merge=1,delta=2
    49                           	psect	text31,local,class=CODE,merge=1,delta=2
    50                           	psect	text32,local,class=CODE,merge=1,delta=2
    51                           	psect	config,global,abs,ovrld,class=CONFIG,space=4,delta=2,noexec
    52                           	dabs	1,0x7E,2
    53  0000                     
    54                           ; Version 2.20
    55                           ; Generated 12/02/2020 GMT
    56                           ; 
    57                           ; Copyright © 2020, Microchip Technology Inc. and its subsidiaries ("Microchip")
    58                           ; All rights reserved.
    59                           ; 
    60                           ; This software is developed by Microchip Technology Inc. and its subsidiaries ("Microch
      +                          ip").
    61                           ; 
    62                           ; Redistribution and use in source and binary forms, with or without modification, are
    63                           ; permitted provided that the following conditions are met:
    64                           ; 
    65                           ;     1. Redistributions of source code must retain the above copyright notice, this lis
      +                          t of
    66                           ;        conditions and the following disclaimer.
    67                           ; 
    68                           ;     2. Redistributions in binary form must reproduce the above copyright notice, this 
      +                          list
    69                           ;        of conditions and the following disclaimer in the documentation and/or other
    70                           ;        materials provided with the distribution.
    71                           ; 
    72                           ;     3. Microchip's name may not be used to endorse or promote products derived from th
      +                          is
    73                           ;        software without specific prior written permission.
    74                           ; 
    75                           ; THIS SOFTWARE IS PROVIDED BY MICROCHIP "AS IS" AND ANY EXPRESS OR IMPLIED WARRANTIES,
    76                           ; INCLUDING, BUT NOT LIMITED TO, THE IMPLIED WARRANTIES OF MERCHANTABILITY AND FITNESS F
      +                          OR
    77                           ; PURPOSE ARE DISCLAIMED.  IN NO EVENT SHALL MICROCHIP BE LIABLE FOR ANY DIRECT, INDIREC
      +                          T,
    78                           ; INCIDENTAL, SPECIAL, EXEMPLARY, OR CONSEQUENTIAL DAMAGES (INCLUDING BUT NOT LIMITED TO
    79                           ; PROCUREMENT OF SUBSTITUTE GOODS OR SERVICES; LOSS OF USE, DATA OR PROFITS; OR BUSINESS
    80                           ; INTERRUPTION) HOWSOEVER CAUSED AND ON ANY THEORY OF LIABILITY, WHETHER IN CONTRACT, ST
      +                          RICT
    81                           ; LIABILITY, OR TORT (INCLUDING NEGLIGENCE OR OTHERWISE) ARISING IN ANY WAY OUT OF THE U
      +                          SE OF
    82                           ; THIS SOFTWARE, EVEN IF ADVISED OF THE POSSIBILITY OF SUCH DAMAGE.
    83                           ; 
    84                           ; 
    85                           ; Code-generator required, PIC16F877A Definitions
    86                           ; 
    87                           ; SFR Addresses
    88  0000                     	;# 
    89  0001                     	;# 
    90  0002                     	;# 
    91  0003                     	;# 
    92  0004                     	;# 
    93  0005                     	;# 
    94  0006                     	;# 
    95  0007                     	;# 
    96  0008                     	;# 
    97  0009                     	;# 
    98  000A                     	;# 
    99  000B                     	;# 
   100  000C                     	;# 
   101  000D                     	;# 
   102  000E                     	;# 
   103  000E                     	;# 
   104  000F                     	;# 
   105  0010                     	;# 
   106  0011                     	;# 
   107  0012                     	;# 
   108  0013                     	;# 
   109  0014                     	;# 
   110  0015                     	;# 
   111  0015                     	;# 
   112  0016                     	;# 
   113  0017                     	;# 
   114  0018                     	;# 
   115  0019                     	;# 
   116  001A                     	;# 
   117  001B                     	;# 
   118  001B                     	;# 
   119  001C                     	;# 
   120  001D                     	;# 
   121  001E                     	;# 
   122  001F                     	;# 
   123  0081                     	;# 
   124  0085                     	;# 
   125  0086                     	;# 
   126  0087                     	;# 
   127  0088                     	;# 
   128  0089                     	;# 
   129  008C                     	;# 
   130  008D                     	;# 
   131  008E                     	;# 
   132  0091                     	;# 
   133  0092                     	;# 
   134  0093                     	;# 
   135  0094                     	;# 
   136  0098                     	;# 
   137  0099                     	;# 
   138  009C                     	;# 
   139  009D                     	;# 
   140  009E                     	;# 
   141  009F                     	;# 
   142  010C                     	;# 
   143  010D                     	;# 
   144  010E                     	;# 
   145  010F                     	;# 
   146  018C                     	;# 
   147  018D                     	;# 
   148  0000                     	;# 
   149  0001                     	;# 
   150  0002                     	;# 
   151  0003                     	;# 
   152  0004                     	;# 
   153  0005                     	;# 
   154  0006                     	;# 
   155  0007                     	;# 
   156  0008                     	;# 
   157  0009                     	;# 
   158  000A                     	;# 
   159  000B                     	;# 
   160  000C                     	;# 
   161  000D                     	;# 
   162  000E                     	;# 
   163  000E                     	;# 
   164  000F                     	;# 
   165  0010                     	;# 
   166  0011                     	;# 
   167  0012                     	;# 
   168  0013                     	;# 
   169  0014                     	;# 
   170  0015                     	;# 
   171  0015                     	;# 
   172  0016                     	;# 
   173  0017                     	;# 
   174  0018                     	;# 
   175  0019                     	;# 
   176  001A                     	;# 
   177  001B                     	;# 
   178  001B                     	;# 
   179  001C                     	;# 
   180  001D                     	;# 
   181  001E                     	;# 
   182  001F                     	;# 
   183  0081                     	;# 
   184  0085                     	;# 
   185  0086                     	;# 
   186  0087                     	;# 
   187  0088                     	;# 
   188  0089                     	;# 
   189  008C                     	;# 
   190  008D                     	;# 
   191  008E                     	;# 
   192  0091                     	;# 
   193  0092                     	;# 
   194  0093                     	;# 
   195  0094                     	;# 
   196  0098                     	;# 
   197  0099                     	;# 
   198  009C                     	;# 
   199  009D                     	;# 
   200  009E                     	;# 
   201  009F                     	;# 
   202  010C                     	;# 
   203  010D                     	;# 
   204  010E                     	;# 
   205  010F                     	;# 
   206  018C                     	;# 
   207  018D                     	;# 
   208  0000                     	;# 
   209  0001                     	;# 
   210  0002                     	;# 
   211  0003                     	;# 
   212  0004                     	;# 
   213  0005                     	;# 
   214  0006                     	;# 
   215  0007                     	;# 
   216  0008                     	;# 
   217  0009                     	;# 
   218  000A                     	;# 
   219  000B                     	;# 
   220  000C                     	;# 
   221  000D                     	;# 
   222  000E                     	;# 
   223  000E                     	;# 
   224  000F                     	;# 
   225  0010                     	;# 
   226  0011                     	;# 
   227  0012                     	;# 
   228  0013                     	;# 
   229  0014                     	;# 
   230  0015                     	;# 
   231  0015                     	;# 
   232  0016                     	;# 
   233  0017                     	;# 
   234  0018                     	;# 
   235  0019                     	;# 
   236  001A                     	;# 
   237  001B                     	;# 
   238  001B                     	;# 
   239  001C                     	;# 
   240  001D                     	;# 
   241  001E                     	;# 
   242  001F                     	;# 
   243  0081                     	;# 
   244  0085                     	;# 
   245  0086                     	;# 
   246  0087                     	;# 
   247  0088                     	;# 
   248  0089                     	;# 
   249  008C                     	;# 
   250  008D                     	;# 
   251  008E                     	;# 
   252  0091                     	;# 
   253  0092                     	;# 
   254  0093                     	;# 
   255  0094                     	;# 
   256  0098                     	;# 
   257  0099                     	;# 
   258  009C                     	;# 
   259  009D                     	;# 
   260  009E                     	;# 
   261  009F                     	;# 
   262  010C                     	;# 
   263  010D                     	;# 
   264  010E                     	;# 
   265  010F                     	;# 
   266  018C                     	;# 
   267  018D                     	;# 
   268  0000                     	;# 
   269  0001                     	;# 
   270  0002                     	;# 
   271  0003                     	;# 
   272  0004                     	;# 
   273  0005                     	;# 
   274  0006                     	;# 
   275  0007                     	;# 
   276  0008                     	;# 
   277  0009                     	;# 
   278  000A                     	;# 
   279  000B                     	;# 
   280  000C                     	;# 
   281  000D                     	;# 
   282  000E                     	;# 
   283  000E                     	;# 
   284  000F                     	;# 
   285  0010                     	;# 
   286  0011                     	;# 
   287  0012                     	;# 
   288  0013                     	;# 
   289  0014                     	;# 
   290  0015                     	;# 
   291  0015                     	;# 
   292  0016                     	;# 
   293  0017                     	;# 
   294  0018                     	;# 
   295  0019                     	;# 
   296  001A                     	;# 
   297  001B                     	;# 
   298  001B                     	;# 
   299  001C                     	;# 
   300  001D                     	;# 
   301  001E                     	;# 
   302  001F                     	;# 
   303  0081                     	;# 
   304  0085                     	;# 
   305  0086                     	;# 
   306  0087                     	;# 
   307  0088                     	;# 
   308  0089                     	;# 
   309  008C                     	;# 
   310  008D                     	;# 
   311  008E                     	;# 
   312  0091                     	;# 
   313  0092                     	;# 
   314  0093                     	;# 
   315  0094                     	;# 
   316  0098                     	;# 
   317  0099                     	;# 
   318  009C                     	;# 
   319  009D                     	;# 
   320  009E                     	;# 
   321  009F                     	;# 
   322  010C                     	;# 
   323  010D                     	;# 
   324  010E                     	;# 
   325  010F                     	;# 
   326  018C                     	;# 
   327  018D                     	;# 
   328  0000                     	;# 
   329  0001                     	;# 
   330  0002                     	;# 
   331  0003                     	;# 
   332  0004                     	;# 
   333  0005                     	;# 
   334  0006                     	;# 
   335  0007                     	;# 
   336  0008                     	;# 
   337  0009                     	;# 
   338  000A                     	;# 
   339  000B                     	;# 
   340  000C                     	;# 
   341  000D                     	;# 
   342  000E                     	;# 
   343  000E                     	;# 
   344  000F                     	;# 
   345  0010                     	;# 
   346  0011                     	;# 
   347  0012                     	;# 
   348  0013                     	;# 
   349  0014                     	;# 
   350  0015                     	;# 
   351  0015                     	;# 
   352  0016                     	;# 
   353  0017                     	;# 
   354  0018                     	;# 
   355  0019                     	;# 
   356  001A                     	;# 
   357  001B                     	;# 
   358  001B                     	;# 
   359  001C                     	;# 
   360  001D                     	;# 
   361  001E                     	;# 
   362  001F                     	;# 
   363  0081                     	;# 
   364  0085                     	;# 
   365  0086                     	;# 
   366  0087                     	;# 
   367  0088                     	;# 
   368  0089                     	;# 
   369  008C                     	;# 
   370  008D                     	;# 
   371  008E                     	;# 
   372  0091                     	;# 
   373  0092                     	;# 
   374  0093                     	;# 
   375  0094                     	;# 
   376  0098                     	;# 
   377  0099                     	;# 
   378  009C                     	;# 
   379  009D                     	;# 
   380  009E                     	;# 
   381  009F                     	;# 
   382  010C                     	;# 
   383  010D                     	;# 
   384  010E                     	;# 
   385  010F                     	;# 
   386  018C                     	;# 
   387  018D                     	;# 
   388                           
   389                           	psect	idataBANK1
   390  11D6                     __pidataBANK1:
   391                           
   392                           ;initializer for _kp
   393  11D6  3400               	retlw	0
   394  11D7  3400               	retlw	0
   395  11D8  3420               	retlw	32
   396  11D9  3441               	retlw	65
   397                           
   398                           ;initializer for _setPoint
   399  11DA  3488               	retlw	136
   400  11DB  3413               	retlw	19
   401                           
   402                           ;initializer for _menu
   403  11DC  3401               	retlw	1
   404  11DD  3400               	retlw	0
   405                           
   406                           	psect	idataBANK3
   407  11CE                     __pidataBANK3:
   408                           
   409                           ;initializer for _kd
   410  11CE  346F               	retlw	111
   411  11CF  3412               	retlw	18
   412  11D0  3403               	retlw	3
   413  11D1  343B               	retlw	59
   414                           
   415                           ;initializer for _ki
   416  11D2  3400               	retlw	0
   417  11D3  3400               	retlw	0
   418  11D4  3480               	retlw	128
   419  11D5  343F               	retlw	63
   420                           
   421                           	psect	strings
   422  1000                     __pstrings:
   423  1000                     stringtab:
   424  1000                     __stringtab:
   425                           
   426                           ;	String table - string pointers are 1 byte each
   427  1000  1BFF               	btfsc	btemp+1,7
   428  1001  280A               	ljmp	stringcode
   429  1002  1383               	bcf	3,7
   430  1003  187F               	btfsc	btemp+1,0
   431  1004  1783               	bsf	3,7
   432  1005  0800               	movf	0,w
   433  1006  0A84               	incf	4,f
   434  1007  1903               	skipnz
   435  1008  0AFF               	incf	btemp+1,f
   436  1009  0008               	return
   437  100A                     stringcode:
   438  100A                     stringdir:
   439  100A  3010               	movlw	high stringdir
   440  100B  008A               	movwf	10
   441  100C  0804               	movf	4,w
   442  100D  0A84               	incf	4,f
   443  100E  0782               	addwf	2,f
   444  100F                     __stringbase:
   445  100F  3400               	retlw	0
   446  1010                     __end_of__stringtab:
   447  1010                     _dpowers:
   448  1010  3401               	retlw	1
   449  1011  3400               	retlw	0
   450  1012  340A               	retlw	10
   451  1013  3400               	retlw	0
   452  1014  3464               	retlw	100
   453  1015  3400               	retlw	0
   454  1016  34E8               	retlw	232
   455  1017  3403               	retlw	3
   456  1018  3410               	retlw	16
   457  1019  3427               	retlw	39
   458  101A                     __end_of_dpowers:
   459  0009                     _PORTEbits	set	9
   460  0008                     _PORTD	set	8
   461  001E                     _ADRESH	set	30
   462  001F                     _ADCON0	set	31
   463  001B                     _CCPR2L	set	27
   464  0015                     _CCPR1L	set	21
   465  00FA                     _GO_nDONE	set	250
   466  0091                     _T2CKPS1	set	145
   467  0090                     _T2CKPS0	set	144
   468  00EA                     _CCP2M2	set	234
   469  00EB                     _CCP2M3	set	235
   470  0092                     _TMR2ON	set	146
   471  00BA                     _CCP1M2	set	186
   472  00BB                     _CCP1M3	set	187
   473  00EC                     _CCP2Y	set	236
   474  00ED                     _CCP2X	set	237
   475  00BC                     _CCP1Y	set	188
   476  00BD                     _CCP1X	set	189
   477  0033                     _RB3	set	51
   478  0032                     _RB2	set	50
   479  0031                     _RB1	set	49
   480  0030                     _RB0	set	48
   481  009E                     _ADRESL	set	158
   482  009F                     _ADCON1	set	159
   483  0092                     _PR2	set	146
   484  0089                     _TRISE	set	137
   485  0088                     _TRISD	set	136
   486  0087                     _TRISC	set	135
   487  0086                     _TRISB	set	134
   488  0085                     _TRISA	set	133
   489  0439                     _TRISC1	set	1081
   490  043A                     _TRISC2	set	1082
   491  101A                     STR_8:
   492  101A  3420               	retlw	32	;' '
   493  101B  3420               	retlw	32	;' '
   494  101C  344B               	retlw	75	;'K'
   495  101D  3450               	retlw	80	;'P'
   496  101E  343A               	retlw	58	;':'
   497  101F  3400               	retlw	0
   498  1020                     STR_7:
   499  1020  3454               	retlw	84	;'T'
   500  1021  3445               	retlw	69	;'E'
   501  1022  344D               	retlw	77	;'M'
   502  1023  3450               	retlw	80	;'P'
   503  1024  343A               	retlw	58	;':'
   504  1025  3400               	retlw	0
   505  1026                     STR_5:
   506  1026  3420               	retlw	32	;' '
   507  1027  3443               	retlw	67	;'C'
   508  1028  3400               	retlw	0
   509  1029                     STR_1:
   510  1029  3425               	retlw	37	;'%'
   511  102A  3464               	retlw	100	;'d'
   512  102B  3400               	retlw	0
   513  102C                     STR_3:
   514  102C  342E               	retlw	46	;'.'
   515  102D  3400               	retlw	0
   516  1029                     
   517                           	psect	cinit
   518  07C6                     start_initialization:	
   519                           ; #config settings
   520                           
   521  07C6                     __initialization:
   522                           
   523                           ; Initialize objects allocated to BANK3
   524  07C6  1783               	bsf	3,7	;select IRP bank2
   525  07C7  30D2               	movlw	low (__pdataBANK3+8)
   526  07C8  00FD               	movwf	btemp+-1
   527  07C9  3011               	movlw	high __pidataBANK3
   528  07CA  00FE               	movwf	btemp
   529  07CB  30CE               	movlw	low __pidataBANK3
   530  07CC  00FF               	movwf	btemp+1
   531  07CD  30CA               	movlw	low __pdataBANK3
   532  07CE  0084               	movwf	4
   533  07CF  120A  158A  2006  120A  118A  	fcall	init_ram0
   534                           
   535                           ; Initialize objects allocated to BANK1
   536  07D4  1383               	bcf	3,7	;select IRP bank0
   537  07D5  30EF               	movlw	low (__pdataBANK1+8)
   538  07D6  00FD               	movwf	btemp+-1
   539  07D7  3011               	movlw	high __pidataBANK1
   540  07D8  00FE               	movwf	btemp
   541  07D9  30D6               	movlw	low __pidataBANK1
   542  07DA  00FF               	movwf	btemp+1
   543  07DB  30E7               	movlw	low __pdataBANK1
   544  07DC  0084               	movwf	4
   545  07DD  120A  158A  2006  120A  118A  	fcall	init_ram0
   546                           
   547                           ; Clear objects allocated to BANK3
   548  07E2  1783               	bsf	3,7	;select IRP bank2
   549  07E3  3090               	movlw	low __pbssBANK3
   550  07E4  0084               	movwf	4
   551  07E5  30CA               	movlw	low (__pbssBANK3+58)
   552  07E6  160A  118A  21C6  120A  118A  	fcall	clear_ram0
   553                           
   554                           ; Clear objects allocated to BANK2
   555  07EB  3010               	movlw	low __pbssBANK2
   556  07EC  0084               	movwf	4
   557  07ED  3030               	movlw	low (__pbssBANK2+32)
   558  07EE  160A  118A  21C6  120A  118A  	fcall	clear_ram0
   559                           
   560                           ; Clear objects allocated to BANK1
   561  07F3  1383               	bcf	3,7	;select IRP bank0
   562  07F4  30D9               	movlw	low __pbssBANK1
   563  07F5  0084               	movwf	4
   564  07F6  30E7               	movlw	low (__pbssBANK1+14)
   565  07F7  160A  118A  21C6  120A  118A  	fcall	clear_ram0
   566  07FC                     end_of_initialization:	
   567                           ;End of C runtime variable initialization code
   568                           
   569  07FC                     __end_of__initialization:
   570  07FC  0183               	clrf	3
   571  07FD  160A  118A  2AAE   	ljmp	_main	;jump to C main() function
   572                           
   573                           	psect	bssBANK1
   574  00D9                     __pbssBANK1:
   575  00D9                     _temperatura:
   576  00D9                     	ds	4
   577  00DD                     _setPointReferencia:
   578  00DD                     	ds	2
   579  00DF                     controlarValores@S4Atual:
   580  00DF                     	ds	1
   581  00E0                     controlarValores@S4Anterior:
   582  00E0                     	ds	1
   583  00E1                     controlarValores@S3Atual:
   584  00E1                     	ds	1
   585  00E2                     controlarValores@S3Anterior:
   586  00E2                     	ds	1
   587  00E3                     controlarValores@S2Atual:
   588  00E3                     	ds	1
   589  00E4                     controlarValores@S2Anterior:
   590  00E4                     	ds	1
   591  00E5                     controlarValores@S1Atual:
   592  00E5                     	ds	1
   593  00E6                     controlarValores@S1Anterior:
   594  00E6                     	ds	1
   595                           
   596                           	psect	dataBANK1
   597  00E7                     __pdataBANK1:
   598  00E7                     _kp:
   599  00E7                     	ds	4
   600  00EB                     _setPoint:
   601  00EB                     	ds	2
   602  00ED                     _menu:
   603  00ED                     	ds	2
   604                           
   605                           	psect	bssBANK3
   606  0190                     __pbssBANK3:
   607  0190                     _PID:
   608  0190                     	ds	4
   609  0194                     _derivativo:
   610  0194                     	ds	4
   611  0198                     _integral:
   612  0198                     	ds	4
   613  019C                     _proporcional:
   614  019C                     	ds	4
   615  01A0                     _erro:
   616  01A0                     	ds	4
   617  01A4                     _temperaturaReferencia:
   618  01A4                     	ds	4
   619  01A8                     _kpReferencia:
   620  01A8                     	ds	2
   621  01AA                     _setPoint_string:
   622  01AA                     	ds	32
   623                           
   624                           	psect	dataBANK3
   625  01CA                     __pdataBANK3:
   626  01CA                     _kd:
   627  01CA                     	ds	4
   628  01CE                     _ki:
   629  01CE                     	ds	4
   630                           
   631                           	psect	bssBANK2
   632  0110                     __pbssBANK2:
   633  0110                     _kp_string:
   634  0110                     	ds	32
   635                           
   636                           	psect	inittext
   637  0802                     init_fetch0:	
   638                           ;	Called with low address in FSR and high address in W
   639                           
   640  0802  087E               	movf	btemp,w
   641  0803  008A               	movwf	10
   642  0804  087F               	movf	btemp+1,w
   643  0805  0082               	movwf	2
   644  0806                     init_ram0:	
   645                           ;Called with:
   646                           ;	high address of idata address in btemp 
   647                           ;	low address of idata address in btemp+1 
   648                           ;	low address of data in FSR
   649                           ;	high address + 1 of data in btemp-1
   650                           
   651  0806  120A  158A  2002  120A  158A  	fcall	init_fetch0
   652  080B  0080               	movwf	0
   653  080C  0A84               	incf	4,f
   654  080D  0804               	movf	4,w
   655  080E  067D               	xorwf	btemp+-1,w
   656  080F  1903               	btfsc	3,2
   657  0810  3400               	retlw	0
   658  0811  0AFF               	incf	btemp+1,f
   659  0812  1903               	btfsc	3,2
   660  0813  0AFE               	incf	btemp,f
   661  0814  2806               	goto	init_ram0
   662                           
   663                           	psect	clrtext
   664  11C6                     clear_ram0:	
   665                           ;	Called with FSR containing the base address, and
   666                           ;	W with the last address+1
   667                           
   668  11C6  0064               	clrwdt	;clear the watchdog before getting into this loop
   669  11C7                     clrloop0:
   670  11C7  0180               	clrf	0	;clear RAM location pointed to by FSR
   671  11C8  0A84               	incf	4,f	;increment pointer
   672  11C9  0604               	xorwf	4,w	;XOR with final address
   673  11CA  1903               	btfsc	3,2	;have we reached the end yet?
   674  11CB  3400               	retlw	0	;all done for this memory range, return
   675  11CC  0604               	xorwf	4,w	;XOR again to restore value
   676  11CD  29C7               	goto	clrloop0	;do the next byte
   677                           
   678                           	psect	cstackBANK1
   679  00A0                     __pcstackBANK1:
   680  00A0                     ?___flsub:
   681  00A0                     ___flsub@a:	
   682                           ; 4 bytes @ 0x0
   683                           
   684                           
   685                           ; 4 bytes @ 0x0
   686  00A0                     	ds	4
   687  00A4                     ___flsub@b:
   688                           
   689                           ; 4 bytes @ 0x4
   690  00A4                     	ds	4
   691  00A8                     ?___fldiv:
   692  00A8                     ___fldiv@a:	
   693                           ; 4 bytes @ 0x8
   694                           
   695                           
   696                           ; 4 bytes @ 0x8
   697  00A8                     	ds	4
   698  00AC                     ___fldiv@b:
   699                           
   700                           ; 4 bytes @ 0xC
   701  00AC                     	ds	4
   702  00B0                     ___fldiv@rem:
   703                           
   704                           ; 4 bytes @ 0x10
   705  00B0                     	ds	4
   706  00B4                     ___fldiv@sign:
   707                           
   708                           ; 1 bytes @ 0x14
   709  00B4                     	ds	1
   710  00B5                     ___fldiv@new_exp:
   711                           
   712                           ; 2 bytes @ 0x15
   713  00B5                     	ds	2
   714  00B7                     ___fldiv@grs:
   715                           
   716                           ; 4 bytes @ 0x17
   717  00B7                     	ds	4
   718  00BB                     ___fldiv@bexp:
   719                           
   720                           ; 1 bytes @ 0x1B
   721  00BB                     	ds	1
   722  00BC                     ___fldiv@aexp:
   723                           
   724                           ; 1 bytes @ 0x1C
   725  00BC                     	ds	1
   726  00BD                     ?_PWM1_Duty:
   727  00BD                     ?_PWM2_Duty:	
   728                           ; 1 bytes @ 0x1D
   729                           
   730  00BD                     PWM1_Duty@duty:	
   731                           ; 1 bytes @ 0x1D
   732                           
   733  00BD                     PWM2_Duty@duty:	
   734                           ; 2 bytes @ 0x1D
   735                           
   736                           
   737                           ; 2 bytes @ 0x1D
   738  00BD                     	ds	2
   739  00BF                     PWM1_Duty@freq:
   740  00BF                     PWM2_Duty@freq:	
   741                           ; 2 bytes @ 0x1F
   742                           
   743                           
   744                           ; 2 bytes @ 0x1F
   745  00BF                     	ds	2
   746  00C1                     ??_PWM1_Duty:
   747  00C1                     ??_PWM2_Duty:	
   748                           ; 1 bytes @ 0x21
   749                           
   750                           
   751                           ; 1 bytes @ 0x21
   752  00C1                     	ds	2
   753  00C3                     ??_realizarCalculo:
   754  00C3                     controlarCooler@cooler:	
   755                           ; 1 bytes @ 0x23
   756                           
   757                           
   758                           ; 2 bytes @ 0x23
   759  00C3                     	ds	8
   760  00CB                     _realizarCalculo$860:
   761                           
   762                           ; 4 bytes @ 0x2B
   763  00CB                     	ds	4
   764  00CF                     _realizarCalculo$861:
   765                           
   766                           ; 4 bytes @ 0x2F
   767  00CF                     	ds	4
   768  00D3                     _realizarCalculo$862:
   769                           
   770                           ; 4 bytes @ 0x33
   771  00D3                     	ds	4
   772  00D7                     _realizarCalculo$863:
   773                           
   774                           ; 2 bytes @ 0x37
   775  00D7                     	ds	2
   776                           
   777                           	psect	cstackCOMMON
   778  0070                     __pcstackCOMMON:
   779  0070                     ?_lcd_cmd:
   780  0070                     ?_lcd_init:	
   781                           ; 1 bytes @ 0x0
   782                           
   783  0070                     ?_ADC_Init:	
   784                           ; 1 bytes @ 0x0
   785                           
   786  0070                     ??_ADC_Init:	
   787                           ; 1 bytes @ 0x0
   788                           
   789  0070                     ?_PWM1_Start:	
   790                           ; 1 bytes @ 0x0
   791                           
   792  0070                     ??_PWM1_Start:	
   793                           ; 1 bytes @ 0x0
   794                           
   795  0070                     ?_PWM2_Start:	
   796                           ; 1 bytes @ 0x0
   797                           
   798  0070                     ??_PWM2_Start:	
   799                           ; 1 bytes @ 0x0
   800                           
   801  0070                     ?_imprimirValoresLcd:	
   802                           ; 1 bytes @ 0x0
   803                           
   804  0070                     ?_iniciarLcd:	
   805                           ; 1 bytes @ 0x0
   806                           
   807  0070                     ?_realizarCalculo:	
   808                           ; 1 bytes @ 0x0
   809                           
   810  0070                     ?_controlarCooler:	
   811                           ; 1 bytes @ 0x0
   812                           
   813  0070                     ?_main:	
   814                           ; 1 bytes @ 0x0
   815                           
   816  0070                     ?_lcd_wr:	
   817                           ; 1 bytes @ 0x0
   818                           
   819  0070                     ??_lcd_wr:	
   820                           ; 1 bytes @ 0x0
   821                           
   822  0070                     ?_lcd_dat:	
   823                           ; 1 bytes @ 0x0
   824                           
   825  0070                     ?_ADC_Read:	
   826                           ; 1 bytes @ 0x0
   827                           
   828  0070                     ?__Umul8_16:	
   829                           ; 2 bytes @ 0x0
   830                           
   831  0070                     ?___awdiv:	
   832                           ; 2 bytes @ 0x0
   833                           
   834  0070                     ?___lwmod:	
   835                           ; 2 bytes @ 0x0
   836                           
   837  0070                     ?___aldiv:	
   838                           ; 2 bytes @ 0x0
   839                           
   840  0070                     lcd_wr@val:	
   841                           ; 4 bytes @ 0x0
   842                           
   843  0070                     __Umul8_16@multiplicand:	
   844                           ; 1 bytes @ 0x0
   845                           
   846  0070                     ___awdiv@divisor:	
   847                           ; 1 bytes @ 0x0
   848                           
   849  0070                     ___lwmod@divisor:	
   850                           ; 2 bytes @ 0x0
   851                           
   852  0070                     ___aldiv@divisor:	
   853                           ; 2 bytes @ 0x0
   854                           
   855                           
   856                           ; 4 bytes @ 0x0
   857  0070                     	ds	1
   858  0071                     ??_lcd_cmd:
   859  0071                     ??_lcd_dat:	
   860                           ; 1 bytes @ 0x1
   861                           
   862  0071                     lcd_cmd@val:	
   863                           ; 1 bytes @ 0x1
   864                           
   865  0071                     lcd_dat@val:	
   866                           ; 1 bytes @ 0x1
   867                           
   868                           
   869                           ; 1 bytes @ 0x1
   870  0071                     	ds	1
   871  0072                     ?_lcd_str:
   872  0072                     ??_lcd_init:	
   873                           ; 1 bytes @ 0x2
   874                           
   875  0072                     ??_ADC_Read:	
   876                           ; 1 bytes @ 0x2
   877                           
   878  0072                     ??__Umul8_16:	
   879                           ; 1 bytes @ 0x2
   880                           
   881  0072                     lcd_str@str:	
   882                           ; 1 bytes @ 0x2
   883                           
   884  0072                     ___awdiv@dividend:	
   885                           ; 2 bytes @ 0x2
   886                           
   887  0072                     ___lwmod@dividend:	
   888                           ; 2 bytes @ 0x2
   889                           
   890                           
   891                           ; 2 bytes @ 0x2
   892  0072                     	ds	2
   893  0074                     ??_lcd_str:
   894  0074                     ??___awdiv:	
   895                           ; 1 bytes @ 0x4
   896                           
   897  0074                     ??___lwmod:	
   898                           ; 1 bytes @ 0x4
   899                           
   900  0074                     ADC_Read@channel:	
   901                           ; 1 bytes @ 0x4
   902                           
   903  0074                     __Umul8_16@product:	
   904                           ; 1 bytes @ 0x4
   905                           
   906  0074                     ___aldiv@dividend:	
   907                           ; 2 bytes @ 0x4
   908                           
   909                           
   910                           ; 4 bytes @ 0x4
   911  0074                     	ds	1
   912  0075                     ?___wmul:
   913  0075                     lcd_str@i:	
   914                           ; 2 bytes @ 0x5
   915                           
   916  0075                     ___awdiv@counter:	
   917                           ; 1 bytes @ 0x5
   918                           
   919  0075                     ___lwmod@counter:	
   920                           ; 1 bytes @ 0x5
   921                           
   922  0075                     ___wmul@multiplier:	
   923                           ; 1 bytes @ 0x5
   924                           
   925                           
   926                           ; 2 bytes @ 0x5
   927  0075                     	ds	1
   928  0076                     ?___lwdiv:
   929  0076                     ___awdiv@sign:	
   930                           ; 2 bytes @ 0x6
   931                           
   932  0076                     ___lwdiv@divisor:	
   933                           ; 1 bytes @ 0x6
   934                           
   935  0076                     __Umul8_16@word_mpld:	
   936                           ; 2 bytes @ 0x6
   937                           
   938                           
   939                           ; 2 bytes @ 0x6
   940  0076                     	ds	1
   941  0077                     ___wmul@multiplicand:
   942  0077                     ___awdiv@quotient:	
   943                           ; 2 bytes @ 0x7
   944                           
   945                           
   946                           ; 2 bytes @ 0x7
   947  0077                     	ds	1
   948  0078                     ??___aldiv:
   949  0078                     __Umul8_16@multiplier:	
   950                           ; 1 bytes @ 0x8
   951                           
   952  0078                     ___lwdiv@dividend:	
   953                           ; 1 bytes @ 0x8
   954                           
   955                           
   956                           ; 2 bytes @ 0x8
   957  0078                     	ds	1
   958  0079                     ??_PWM_Init:
   959  0079                     ??___wmul:	
   960                           ; 1 bytes @ 0x9
   961                           
   962  0079                     ??___fltol:	
   963                           ; 1 bytes @ 0x9
   964                           
   965  0079                     ___wmul@product:	
   966                           ; 1 bytes @ 0x9
   967                           
   968                           
   969                           ; 2 bytes @ 0x9
   970  0079                     	ds	1
   971  007A                     ??___lwdiv:
   972                           
   973                           ; 1 bytes @ 0xA
   974  007A                     	ds	1
   975  007B                     ___lwdiv@quotient:
   976                           
   977                           ; 2 bytes @ 0xB
   978  007B                     	ds	2
   979  007D                     ___lwdiv@counter:
   980                           
   981                           ; 1 bytes @ 0xD
   982  007D                     	ds	1
   983  007E                     ??_controleMaximoMinimo:
   984  007E                     ??_iniciarLcd:	
   985                           ; 1 bytes @ 0xE
   986                           
   987  007E                     ??_controlarCooler:	
   988                           ; 1 bytes @ 0xE
   989                           
   990  007E                     ??_main:	
   991                           ; 1 bytes @ 0xE
   992                           
   993  007E                     ??___flsub:	
   994                           ; 1 bytes @ 0xE
   995                           
   996                           
   997                           	psect	cstackBANK0
   998  0020                     __pcstackBANK0:	
   999                           ; 1 bytes @ 0xE
  1000                           
  1001  0020                     ?_sprintf:
  1002  0020                     sprintf@f:	
  1003                           ; 2 bytes @ 0x0
  1004                           
  1005  0020                     ___aldiv@counter:	
  1006                           ; 1 bytes @ 0x0
  1007                           
  1008                           
  1009                           ; 1 bytes @ 0x0
  1010  0020                     	ds	1
  1011  0021                     ___aldiv@sign:
  1012                           
  1013                           ; 1 bytes @ 0x1
  1014  0021                     	ds	1
  1015  0022                     ___aldiv@quotient:
  1016                           
  1017                           ; 4 bytes @ 0x2
  1018  0022                     	ds	3
  1019  0025                     ??_sprintf:
  1020                           
  1021                           ; 1 bytes @ 0x5
  1022  0025                     	ds	1
  1023  0026                     ?_PWM_Init:
  1024  0026                     ?___fltol:	
  1025                           ; 1 bytes @ 0x6
  1026                           
  1027  0026                     PWM_Init@freq:	
  1028                           ; 4 bytes @ 0x6
  1029                           
  1030  0026                     ___fltol@f1:	
  1031                           ; 4 bytes @ 0x6
  1032                           
  1033                           
  1034                           ; 4 bytes @ 0x6
  1035  0026                     	ds	2
  1036  0028                     sprintf@ap:
  1037                           
  1038                           ; 1 bytes @ 0x8
  1039  0028                     	ds	1
  1040  0029                     sprintf@flag:
  1041                           
  1042                           ; 1 bytes @ 0x9
  1043  0029                     	ds	1
  1044  002A                     sprintf@prec:
  1045  002A                     ___fltol@sign1:	
  1046                           ; 1 bytes @ 0xA
  1047                           
  1048                           
  1049                           ; 1 bytes @ 0xA
  1050  002A                     	ds	1
  1051  002B                     ___fltol@exp1:
  1052  002B                     sprintf@val:	
  1053                           ; 1 bytes @ 0xB
  1054                           
  1055                           
  1056                           ; 2 bytes @ 0xB
  1057  002B                     	ds	1
  1058  002C                     ?_controleMaximoMinimo:
  1059  002C                     controleMaximoMinimo@valor:	
  1060                           ; 2 bytes @ 0xC
  1061                           
  1062                           
  1063                           ; 2 bytes @ 0xC
  1064  002C                     	ds	1
  1065  002D                     sprintf@sp:
  1066                           
  1067                           ; 1 bytes @ 0xD
  1068  002D                     	ds	1
  1069  002E                     ?___xxtofl:
  1070  002E                     sprintf@c:	
  1071                           ; 4 bytes @ 0xE
  1072                           
  1073  002E                     ___xxtofl@val:	
  1074                           ; 1 bytes @ 0xE
  1075                           
  1076                           
  1077                           ; 4 bytes @ 0xE
  1078  002E                     	ds	1
  1079  002F                     ?_imprimirTemperatura:
  1080  002F                     imprimirTemperatura@tempSet:	
  1081                           ; 1 bytes @ 0xF
  1082                           
  1083                           
  1084                           ; 2 bytes @ 0xF
  1085  002F                     	ds	2
  1086  0031                     ??_imprimirTemperatura:
  1087                           
  1088                           ; 1 bytes @ 0x11
  1089  0031                     	ds	1
  1090  0032                     ??___xxtofl:
  1091  0032                     imprimirTemperatura@milhar:	
  1092                           ; 1 bytes @ 0x12
  1093                           
  1094                           
  1095                           ; 2 bytes @ 0x12
  1096  0032                     	ds	2
  1097  0034                     imprimirTemperatura@centena:
  1098                           
  1099                           ; 2 bytes @ 0x14
  1100  0034                     	ds	2
  1101  0036                     ___xxtofl@sign:
  1102  0036                     imprimirTemperatura@dezena:	
  1103                           ; 1 bytes @ 0x16
  1104                           
  1105                           
  1106                           ; 2 bytes @ 0x16
  1107  0036                     	ds	1
  1108  0037                     ___xxtofl@exp:
  1109                           
  1110                           ; 1 bytes @ 0x17
  1111  0037                     	ds	1
  1112  0038                     _imprimirTemperatura$859:
  1113  0038                     ___xxtofl@arg:	
  1114                           ; 2 bytes @ 0x18
  1115                           
  1116                           
  1117                           ; 4 bytes @ 0x18
  1118  0038                     	ds	4
  1119  003C                     ?___fleq:
  1120  003C                     ?___flmul:	
  1121                           ; 1 bit 
  1122                           
  1123  003C                     ___fleq@ff1:	
  1124                           ; 4 bytes @ 0x1C
  1125                           
  1126  003C                     ___flmul@b:	
  1127                           ; 4 bytes @ 0x1C
  1128                           
  1129                           
  1130                           ; 4 bytes @ 0x1C
  1131  003C                     	ds	4
  1132  0040                     ___fleq@ff2:
  1133  0040                     ___flmul@a:	
  1134                           ; 4 bytes @ 0x20
  1135                           
  1136                           
  1137                           ; 4 bytes @ 0x20
  1138  0040                     	ds	4
  1139  0044                     ??___fleq:
  1140  0044                     ??___flmul:	
  1141                           ; 1 bytes @ 0x24
  1142                           
  1143                           
  1144                           ; 1 bytes @ 0x24
  1145  0044                     	ds	4
  1146  0048                     ??_imprimirValoresLcd:
  1147                           
  1148                           ; 1 bytes @ 0x28
  1149  0048                     	ds	1
  1150  0049                     ___flmul@sign:
  1151                           
  1152                           ; 1 bytes @ 0x29
  1153  0049                     	ds	1
  1154  004A                     ___flmul@grs:
  1155                           
  1156                           ; 4 bytes @ 0x2A
  1157  004A                     	ds	4
  1158  004E                     ___flmul@aexp:
  1159                           
  1160                           ; 1 bytes @ 0x2E
  1161  004E                     	ds	1
  1162  004F                     ___flmul@bexp:
  1163                           
  1164                           ; 1 bytes @ 0x2F
  1165  004F                     	ds	1
  1166  0050                     ___flmul@prod:
  1167                           
  1168                           ; 4 bytes @ 0x30
  1169  0050                     	ds	4
  1170  0054                     ___flmul@temp:
  1171                           
  1172                           ; 2 bytes @ 0x34
  1173  0054                     	ds	2
  1174  0056                     ?___fladd:
  1175  0056                     ___fladd@b:	
  1176                           ; 4 bytes @ 0x36
  1177                           
  1178                           
  1179                           ; 4 bytes @ 0x36
  1180  0056                     	ds	4
  1181  005A                     ___fladd@a:
  1182                           
  1183                           ; 4 bytes @ 0x3A
  1184  005A                     	ds	4
  1185  005E                     ??___fladd:
  1186                           
  1187                           ; 1 bytes @ 0x3E
  1188  005E                     	ds	8
  1189  0066                     ___fladd@signs:
  1190                           
  1191                           ; 1 bytes @ 0x46
  1192  0066                     	ds	1
  1193  0067                     ___fladd@aexp:
  1194                           
  1195                           ; 1 bytes @ 0x47
  1196  0067                     	ds	1
  1197  0068                     ___fladd@bexp:
  1198                           
  1199                           ; 1 bytes @ 0x48
  1200  0068                     	ds	1
  1201  0069                     ___fladd@grs:
  1202                           
  1203                           ; 1 bytes @ 0x49
  1204  0069                     	ds	1
  1205  006A                     ??___fldiv:
  1206                           
  1207                           ; 1 bytes @ 0x4A
  1208  006A                     	ds	5
  1209                           
  1210                           	psect	maintext
  1211  12AE                     __pmaintext:	
  1212 ;;
  1213 ;;Main: autosize = 0, tempsize = 0, incstack = 0, save=0
  1214 ;;
  1215 ;; *************** function _main *****************
  1216 ;; Defined at:
  1217 ;;		line 184 in file "main.c"
  1218 ;; Parameters:    Size  Location     Type
  1219 ;;		None
  1220 ;; Auto vars:     Size  Location     Type
  1221 ;;		None
  1222 ;; Return value:  Size  Location     Type
  1223 ;;                  1    wreg      void 
  1224 ;; Registers used:
  1225 ;;		wreg, fsr0l, fsr0h, status,2, status,0, btemp+1, pclath, cstack
  1226 ;; Tracked objects:
  1227 ;;		On entry : B00/0
  1228 ;;		On exit  : 0/0
  1229 ;;		Unchanged: 0/0
  1230 ;; Data sizes:     COMMON   BANK0   BANK1   BANK3   BANK2
  1231 ;;      Params:         0       0       0       0       0
  1232 ;;      Locals:         0       0       0       0       0
  1233 ;;      Temps:          0       0       0       0       0
  1234 ;;      Totals:         0       0       0       0       0
  1235 ;;Total ram usage:        0 bytes
  1236 ;; Hardware stack levels required when called: 6
  1237 ;; This function calls:
  1238 ;;		_ADC_Init
  1239 ;;		_PWM1_Start
  1240 ;;		_PWM2_Start
  1241 ;;		_controlarCooler
  1242 ;;		_imprimirValoresLcd
  1243 ;;		_iniciarLcd
  1244 ;;		_realizarCalculo
  1245 ;; This function is called by:
  1246 ;;		Startup code after reset
  1247 ;; This function uses a non-reentrant model
  1248 ;;
  1249                           
  1250                           
  1251                           ;psect for function _main
  1252  12AE                     _main:
  1253  12AE                     l2964:	
  1254                           ;incstack = 0
  1255                           ; Regs used in _main: [wreg-fsr0h+status,2+status,0+btemp+1+pclath+cstack]
  1256                           
  1257                           
  1258                           ;main.c: 185:     TRISA = 0xFF;
  1259  12AE  30FF               	movlw	255
  1260  12AF  1683               	bsf	3,5	;RP0=1, select bank1
  1261  12B0  1303               	bcf	3,6	;RP1=0, select bank1
  1262  12B1  0085               	movwf	5	;volatile
  1263                           
  1264                           ;main.c: 186:     TRISB = 0x0F;
  1265  12B2  300F               	movlw	15
  1266  12B3  0086               	movwf	6	;volatile
  1267  12B4                     l2966:
  1268                           
  1269                           ;main.c: 187:     TRISC = 0x00;
  1270  12B4  0187               	clrf	7	;volatile
  1271  12B5                     l2968:
  1272                           
  1273                           ;main.c: 188:     TRISD = 0x00;
  1274  12B5  0188               	clrf	8	;volatile
  1275  12B6                     l2970:
  1276                           
  1277                           ;main.c: 189:     TRISE = 0x00;
  1278  12B6  0189               	clrf	9	;volatile
  1279  12B7                     l2972:
  1280                           
  1281                           ;main.c: 191:     ADC_Init();
  1282  12B7  160A  118A  21DE  160A  118A  	fcall	_ADC_Init
  1283  12BC                     l2974:
  1284                           
  1285                           ;main.c: 192:     PWM1_Start();
  1286  12BC  160A  118A  21E7  160A  118A  	fcall	_PWM1_Start
  1287  12C1                     l2976:
  1288                           
  1289                           ;main.c: 193:     PWM2_Start();
  1290  12C1  160A  118A  21F0  160A  118A  	fcall	_PWM2_Start
  1291  12C6                     l2978:
  1292                           
  1293                           ;main.c: 194:     iniciarLcd();
  1294  12C6  160A  118A  23EE  160A  118A  	fcall	_iniciarLcd
  1295  12CB                     l2980:
  1296                           
  1297                           ;main.c: 198:         realizarCalculo();
  1298  12CB  120A  118A  2404  160A  118A  	fcall	_realizarCalculo
  1299  12D0                     l2982:
  1300                           
  1301                           ;main.c: 199:         controlarCooler();
  1302  12D0  160A  118A  2312  160A  118A  	fcall	_controlarCooler
  1303  12D5                     l2984:
  1304                           
  1305                           ;main.c: 200:         imprimirValoresLcd();
  1306  12D5  160A  118A  272D  160A  118A  	fcall	_imprimirValoresLcd
  1307  12DA  2ACB               	goto	l2980
  1308  12DB  120A  118A  2800   	ljmp	start
  1309  12DE                     __end_of_main:
  1310                           
  1311                           	psect	text1
  1312  0404                     __ptext1:	
  1313 ;; *************** function _realizarCalculo *****************
  1314 ;; Defined at:
  1315 ;;		line 162 in file "main.c"
  1316 ;; Parameters:    Size  Location     Type
  1317 ;;		None
  1318 ;; Auto vars:     Size  Location     Type
  1319 ;;		None
  1320 ;; Return value:  Size  Location     Type
  1321 ;;                  1    wreg      void 
  1322 ;; Registers used:
  1323 ;;		wreg, status,2, status,0, btemp+1, pclath, cstack
  1324 ;; Tracked objects:
  1325 ;;		On entry : 0/0
  1326 ;;		On exit  : 0/0
  1327 ;;		Unchanged: 0/0
  1328 ;; Data sizes:     COMMON   BANK0   BANK1   BANK3   BANK2
  1329 ;;      Params:         0       0       0       0       0
  1330 ;;      Locals:         0       0      14       0       0
  1331 ;;      Temps:          0       0       8       0       0
  1332 ;;      Totals:         0       0      22       0       0
  1333 ;;Total ram usage:       22 bytes
  1334 ;; Hardware stack levels used: 1
  1335 ;; Hardware stack levels required when called: 3
  1336 ;; This function calls:
  1337 ;;		_ADC_Read
  1338 ;;		_PWM1_Duty
  1339 ;;		___awdiv
  1340 ;;		___fladd
  1341 ;;		___fldiv
  1342 ;;		___flmul
  1343 ;;		___flsub
  1344 ;;		___fltol
  1345 ;;		___wmul
  1346 ;;		___xxtofl
  1347 ;;		_controleMaximoMinimo
  1348 ;; This function is called by:
  1349 ;;		_main
  1350 ;; This function uses a non-reentrant model
  1351 ;;
  1352                           
  1353                           
  1354                           ;psect for function _realizarCalculo
  1355  0404                     _realizarCalculo:
  1356  0404                     l2878:	
  1357                           ;incstack = 0
  1358                           ; Regs used in _realizarCalculo: [wreg+status,2+status,0+btemp+1+pclath+cstack]
  1359                           
  1360                           
  1361                           ;main.c: 164:     temperatura = (ADC_Read(0)*10/8 - 150);
  1362  0404  300A               	movlw	10
  1363  0405  00F7               	movwf	___wmul@multiplicand
  1364  0406  3000               	movlw	0
  1365  0407  00F8               	movwf	___wmul@multiplicand+1
  1366  0408  3000               	movlw	0
  1367  0409  160A  118A  22DE  120A  118A  	fcall	_ADC_Read
  1368  040E  0871               	movf	?_ADC_Read+1,w
  1369  040F  00F6               	movwf	___wmul@multiplier+1
  1370  0410  0870               	movf	?_ADC_Read,w
  1371  0411  00F5               	movwf	___wmul@multiplier
  1372  0412  160A  118A  2237  120A  118A  	fcall	___wmul
  1373  0417  0875               	movf	?___wmul,w
  1374  0418  1683               	bsf	3,5	;RP0=1, select bank1
  1375  0419  1303               	bcf	3,6	;RP1=0, select bank1
  1376  041A  00C3               	movwf	??_realizarCalculo^(0+128)
  1377  041B  0876               	movf	?___wmul+1,w
  1378  041C  00C4               	movwf	(??_realizarCalculo^(0+128)+1)
  1379  041D  1003               	clrc
  1380  041E  0CC4               	rrf	(??_realizarCalculo^(0+128)+1),f
  1381  041F  0CC3               	rrf	??_realizarCalculo^(0+128),f
  1382  0420  1003               	clrc
  1383  0421  0CC4               	rrf	(??_realizarCalculo^(0+128)+1),f
  1384  0422  0CC3               	rrf	??_realizarCalculo^(0+128),f
  1385  0423  1003               	clrc
  1386  0424  0CC4               	rrf	(??_realizarCalculo^(0+128)+1),f
  1387  0425  0CC3               	rrf	??_realizarCalculo^(0+128),f
  1388  0426  0843               	movf	??_realizarCalculo^(0+128),w
  1389  0427  3E6A               	addlw	106
  1390  0428  00C5               	movwf	(??_realizarCalculo+2)^(0+128)
  1391  0429  0844               	movf	(??_realizarCalculo+1)^(0+128),w
  1392  042A  1803               	skipnc
  1393  042B  3E01               	addlw	1
  1394  042C  3EFF               	addlw	255
  1395  042D  00C6               	movwf	(??_realizarCalculo+3)^(0+128)
  1396  042E  0845               	movf	(??_realizarCalculo+2)^(0+128),w
  1397  042F  00C7               	movwf	(??_realizarCalculo+4)^(0+128)
  1398  0430  0846               	movf	(??_realizarCalculo+3)^(0+128),w
  1399  0431  00C8               	movwf	((??_realizarCalculo+4)^(0+128)+1)
  1400  0432  01C9               	clrf	((??_realizarCalculo+4)^(0+128)+2)
  1401  0433  01CA               	clrf	((??_realizarCalculo+4)^(0+128)+3)
  1402  0434  084A               	movf	(??_realizarCalculo+7)^(0+128),w
  1403  0435  1283               	bcf	3,5	;RP0=0, select bank0
  1404  0436  1303               	bcf	3,6	;RP1=0, select bank0
  1405  0437  00B1               	movwf	___xxtofl@val+3
  1406  0438  1683               	bsf	3,5	;RP0=1, select bank1
  1407  0439  1303               	bcf	3,6	;RP1=0, select bank1
  1408  043A  0849               	movf	(??_realizarCalculo+6)^(0+128),w
  1409  043B  1283               	bcf	3,5	;RP0=0, select bank0
  1410  043C  1303               	bcf	3,6	;RP1=0, select bank0
  1411  043D  00B0               	movwf	___xxtofl@val+2
  1412  043E  1683               	bsf	3,5	;RP0=1, select bank1
  1413  043F  1303               	bcf	3,6	;RP1=0, select bank1
  1414  0440  0848               	movf	(??_realizarCalculo+5)^(0+128),w
  1415  0441  1283               	bcf	3,5	;RP0=0, select bank0
  1416  0442  1303               	bcf	3,6	;RP1=0, select bank0
  1417  0443  00AF               	movwf	___xxtofl@val+1
  1418  0444  1683               	bsf	3,5	;RP0=1, select bank1
  1419  0445  1303               	bcf	3,6	;RP1=0, select bank1
  1420  0446  0847               	movf	(??_realizarCalculo+4)^(0+128),w
  1421  0447  1283               	bcf	3,5	;RP0=0, select bank0
  1422  0448  1303               	bcf	3,6	;RP1=0, select bank0
  1423  0449  00AE               	movwf	___xxtofl@val
  1424  044A  3000               	movlw	0
  1425  044B  160A  118A  25A5  120A  118A  	fcall	___xxtofl
  1426  0450  1283               	bcf	3,5	;RP0=0, select bank0
  1427  0451  1303               	bcf	3,6	;RP1=0, select bank0
  1428  0452  0831               	movf	?___xxtofl+3,w
  1429  0453  1683               	bsf	3,5	;RP0=1, select bank1
  1430  0454  1303               	bcf	3,6	;RP1=0, select bank1
  1431  0455  00DC               	movwf	(_temperatura+3)^(0+128)
  1432  0456  1283               	bcf	3,5	;RP0=0, select bank0
  1433  0457  1303               	bcf	3,6	;RP1=0, select bank0
  1434  0458  0830               	movf	?___xxtofl+2,w
  1435  0459  1683               	bsf	3,5	;RP0=1, select bank1
  1436  045A  1303               	bcf	3,6	;RP1=0, select bank1
  1437  045B  00DB               	movwf	(_temperatura+2)^(0+128)
  1438  045C  1283               	bcf	3,5	;RP0=0, select bank0
  1439  045D  1303               	bcf	3,6	;RP1=0, select bank0
  1440  045E  082F               	movf	?___xxtofl+1,w
  1441  045F  1683               	bsf	3,5	;RP0=1, select bank1
  1442  0460  1303               	bcf	3,6	;RP1=0, select bank1
  1443  0461  00DA               	movwf	(_temperatura+1)^(0+128)
  1444  0462  1283               	bcf	3,5	;RP0=0, select bank0
  1445  0463  1303               	bcf	3,6	;RP1=0, select bank0
  1446  0464  082E               	movf	?___xxtofl,w
  1447  0465  1683               	bsf	3,5	;RP0=1, select bank1
  1448  0466  1303               	bcf	3,6	;RP1=0, select bank1
  1449  0467  00D9               	movwf	_temperatura^(0+128)
  1450  0468                     l2880:
  1451                           
  1452                           ;main.c: 165:     erro = (setPoint/10) - temperatura;
  1453  0468  085C               	movf	(_temperatura+3)^(0+128),w
  1454  0469  00A3               	movwf	(___flsub@a+3)^(0+128)
  1455  046A  085B               	movf	(_temperatura+2)^(0+128),w
  1456  046B  00A2               	movwf	(___flsub@a+2)^(0+128)
  1457  046C  085A               	movf	(_temperatura+1)^(0+128),w
  1458  046D  00A1               	movwf	(___flsub@a+1)^(0+128)
  1459  046E  0859               	movf	_temperatura^(0+128),w
  1460  046F  00A0               	movwf	___flsub@a^(0+128)
  1461  0470  086C               	movf	(_setPoint+1)^(0+128),w
  1462  0471  00F3               	movwf	___awdiv@dividend+1
  1463  0472  086B               	movf	_setPoint^(0+128),w
  1464  0473  00F2               	movwf	___awdiv@dividend
  1465  0474  300A               	movlw	10
  1466  0475  00F0               	movwf	___awdiv@divisor
  1467  0476  3000               	movlw	0
  1468  0477  00F1               	movwf	___awdiv@divisor+1
  1469  0478  160A  118A  24C2  120A  118A  	fcall	___awdiv
  1470  047D  0870               	movf	?___awdiv,w
  1471  047E  1283               	bcf	3,5	;RP0=0, select bank0
  1472  047F  1303               	bcf	3,6	;RP1=0, select bank0
  1473  0480  00AE               	movwf	___xxtofl@val
  1474  0481  0871               	movf	?___awdiv+1,w
  1475  0482  00AF               	movwf	___xxtofl@val+1
  1476  0483  3000               	movlw	0
  1477  0484  1BAF               	btfsc	___xxtofl@val+1,7
  1478  0485  30FF               	movlw	255
  1479  0486  00B0               	movwf	___xxtofl@val+2
  1480  0487  00B1               	movwf	___xxtofl@val+3
  1481  0488  3001               	movlw	1
  1482  0489  160A  118A  25A5  120A  118A  	fcall	___xxtofl
  1483  048E  1283               	bcf	3,5	;RP0=0, select bank0
  1484  048F  1303               	bcf	3,6	;RP1=0, select bank0
  1485  0490  0831               	movf	?___xxtofl+3,w
  1486  0491  1683               	bsf	3,5	;RP0=1, select bank1
  1487  0492  1303               	bcf	3,6	;RP1=0, select bank1
  1488  0493  00A7               	movwf	(___flsub@b+3)^(0+128)
  1489  0494  1283               	bcf	3,5	;RP0=0, select bank0
  1490  0495  1303               	bcf	3,6	;RP1=0, select bank0
  1491  0496  0830               	movf	?___xxtofl+2,w
  1492  0497  1683               	bsf	3,5	;RP0=1, select bank1
  1493  0498  1303               	bcf	3,6	;RP1=0, select bank1
  1494  0499  00A6               	movwf	(___flsub@b+2)^(0+128)
  1495  049A  1283               	bcf	3,5	;RP0=0, select bank0
  1496  049B  1303               	bcf	3,6	;RP1=0, select bank0
  1497  049C  082F               	movf	?___xxtofl+1,w
  1498  049D  1683               	bsf	3,5	;RP0=1, select bank1
  1499  049E  1303               	bcf	3,6	;RP1=0, select bank1
  1500  049F  00A5               	movwf	(___flsub@b+1)^(0+128)
  1501  04A0  1283               	bcf	3,5	;RP0=0, select bank0
  1502  04A1  1303               	bcf	3,6	;RP1=0, select bank0
  1503  04A2  082E               	movf	?___xxtofl,w
  1504  04A3  1683               	bsf	3,5	;RP0=1, select bank1
  1505  04A4  1303               	bcf	3,6	;RP1=0, select bank1
  1506  04A5  00A4               	movwf	___flsub@b^(0+128)
  1507  04A6  120A  158A  2015  120A  118A  	fcall	___flsub
  1508  04AB  1683               	bsf	3,5	;RP0=1, select bank1
  1509  04AC  1303               	bcf	3,6	;RP1=0, select bank1
  1510  04AD  0823               	movf	(?___flsub+3)^(0+128),w
  1511  04AE  1683               	bsf	3,5	;RP0=1, select bank3
  1512  04AF  1703               	bsf	3,6	;RP1=1, select bank3
  1513  04B0  00A3               	movwf	(_erro+3)^(0+384)
  1514  04B1  1683               	bsf	3,5	;RP0=1, select bank1
  1515  04B2  1303               	bcf	3,6	;RP1=0, select bank1
  1516  04B3  0822               	movf	(?___flsub+2)^(0+128),w
  1517  04B4  1683               	bsf	3,5	;RP0=1, select bank3
  1518  04B5  1703               	bsf	3,6	;RP1=1, select bank3
  1519  04B6  00A2               	movwf	(_erro+2)^(0+384)
  1520  04B7  1683               	bsf	3,5	;RP0=1, select bank1
  1521  04B8  1303               	bcf	3,6	;RP1=0, select bank1
  1522  04B9  0821               	movf	(?___flsub+1)^(0+128),w
  1523  04BA  1683               	bsf	3,5	;RP0=1, select bank3
  1524  04BB  1703               	bsf	3,6	;RP1=1, select bank3
  1525  04BC  00A1               	movwf	(_erro+1)^(0+384)
  1526  04BD  1683               	bsf	3,5	;RP0=1, select bank1
  1527  04BE  1303               	bcf	3,6	;RP1=0, select bank1
  1528  04BF  0820               	movf	?___flsub^(0+128),w
  1529  04C0  1683               	bsf	3,5	;RP0=1, select bank3
  1530  04C1  1703               	bsf	3,6	;RP1=1, select bank3
  1531  04C2  00A0               	movwf	_erro^(0+384)
  1532  04C3                     l2882:
  1533                           
  1534                           ;main.c: 166:     proporcional = kp * erro;
  1535  04C3  0823               	movf	(_erro+3)^(0+384),w
  1536  04C4  1283               	bcf	3,5	;RP0=0, select bank0
  1537  04C5  1303               	bcf	3,6	;RP1=0, select bank0
  1538  04C6  00BF               	movwf	___flmul@b+3
  1539  04C7  1683               	bsf	3,5	;RP0=1, select bank3
  1540  04C8  1703               	bsf	3,6	;RP1=1, select bank3
  1541  04C9  0822               	movf	(_erro+2)^(0+384),w
  1542  04CA  1283               	bcf	3,5	;RP0=0, select bank0
  1543  04CB  1303               	bcf	3,6	;RP1=0, select bank0
  1544  04CC  00BE               	movwf	___flmul@b+2
  1545  04CD  1683               	bsf	3,5	;RP0=1, select bank3
  1546  04CE  1703               	bsf	3,6	;RP1=1, select bank3
  1547  04CF  0821               	movf	(_erro+1)^(0+384),w
  1548  04D0  1283               	bcf	3,5	;RP0=0, select bank0
  1549  04D1  1303               	bcf	3,6	;RP1=0, select bank0
  1550  04D2  00BD               	movwf	___flmul@b+1
  1551  04D3  1683               	bsf	3,5	;RP0=1, select bank3
  1552  04D4  1703               	bsf	3,6	;RP1=1, select bank3
  1553  04D5  0820               	movf	_erro^(0+384),w
  1554  04D6  1283               	bcf	3,5	;RP0=0, select bank0
  1555  04D7  1303               	bcf	3,6	;RP1=0, select bank0
  1556  04D8  00BC               	movwf	___flmul@b
  1557  04D9  1683               	bsf	3,5	;RP0=1, select bank1
  1558  04DA  1303               	bcf	3,6	;RP1=0, select bank1
  1559  04DB  086A               	movf	(_kp+3)^(0+128),w
  1560  04DC  1283               	bcf	3,5	;RP0=0, select bank0
  1561  04DD  1303               	bcf	3,6	;RP1=0, select bank0
  1562  04DE  00C3               	movwf	___flmul@a+3
  1563  04DF  1683               	bsf	3,5	;RP0=1, select bank1
  1564  04E0  1303               	bcf	3,6	;RP1=0, select bank1
  1565  04E1  0869               	movf	(_kp+2)^(0+128),w
  1566  04E2  1283               	bcf	3,5	;RP0=0, select bank0
  1567  04E3  1303               	bcf	3,6	;RP1=0, select bank0
  1568  04E4  00C2               	movwf	___flmul@a+2
  1569  04E5  1683               	bsf	3,5	;RP0=1, select bank1
  1570  04E6  1303               	bcf	3,6	;RP1=0, select bank1
  1571  04E7  0868               	movf	(_kp+1)^(0+128),w
  1572  04E8  1283               	bcf	3,5	;RP0=0, select bank0
  1573  04E9  1303               	bcf	3,6	;RP1=0, select bank0
  1574  04EA  00C1               	movwf	___flmul@a+1
  1575  04EB  1683               	bsf	3,5	;RP0=1, select bank1
  1576  04EC  1303               	bcf	3,6	;RP1=0, select bank1
  1577  04ED  0867               	movf	_kp^(0+128),w
  1578  04EE  1283               	bcf	3,5	;RP0=0, select bank0
  1579  04EF  1303               	bcf	3,6	;RP1=0, select bank0
  1580  04F0  00C0               	movwf	___flmul@a
  1581  04F1  120A  118A  20A3  120A  118A  	fcall	___flmul
  1582  04F6  1283               	bcf	3,5	;RP0=0, select bank0
  1583  04F7  1303               	bcf	3,6	;RP1=0, select bank0
  1584  04F8  083F               	movf	?___flmul+3,w
  1585  04F9  1683               	bsf	3,5	;RP0=1, select bank3
  1586  04FA  1703               	bsf	3,6	;RP1=1, select bank3
  1587  04FB  009F               	movwf	(_proporcional+3)^(0+384)
  1588  04FC  1283               	bcf	3,5	;RP0=0, select bank0
  1589  04FD  1303               	bcf	3,6	;RP1=0, select bank0
  1590  04FE  083E               	movf	?___flmul+2,w
  1591  04FF  1683               	bsf	3,5	;RP0=1, select bank3
  1592  0500  1703               	bsf	3,6	;RP1=1, select bank3
  1593  0501  009E               	movwf	(_proporcional+2)^(0+384)
  1594  0502  1283               	bcf	3,5	;RP0=0, select bank0
  1595  0503  1303               	bcf	3,6	;RP1=0, select bank0
  1596  0504  083D               	movf	?___flmul+1,w
  1597  0505  1683               	bsf	3,5	;RP0=1, select bank3
  1598  0506  1703               	bsf	3,6	;RP1=1, select bank3
  1599  0507  009D               	movwf	(_proporcional+1)^(0+384)
  1600  0508  1283               	bcf	3,5	;RP0=0, select bank0
  1601  0509  1303               	bcf	3,6	;RP1=0, select bank0
  1602  050A  083C               	movf	?___flmul,w
  1603  050B  1683               	bsf	3,5	;RP0=1, select bank3
  1604  050C  1703               	bsf	3,6	;RP1=1, select bank3
  1605  050D  009C               	movwf	_proporcional^(0+384)
  1606  050E                     l2884:
  1607                           
  1608                           ;main.c: 167:     integral += (erro * ki) * 100E-3;
  1609  050E  0823               	movf	(_erro+3)^(0+384),w
  1610  050F  1283               	bcf	3,5	;RP0=0, select bank0
  1611  0510  1303               	bcf	3,6	;RP1=0, select bank0
  1612  0511  00C3               	movwf	___flmul@a+3
  1613  0512  1683               	bsf	3,5	;RP0=1, select bank3
  1614  0513  1703               	bsf	3,6	;RP1=1, select bank3
  1615  0514  0822               	movf	(_erro+2)^(0+384),w
  1616  0515  1283               	bcf	3,5	;RP0=0, select bank0
  1617  0516  1303               	bcf	3,6	;RP1=0, select bank0
  1618  0517  00C2               	movwf	___flmul@a+2
  1619  0518  1683               	bsf	3,5	;RP0=1, select bank3
  1620  0519  1703               	bsf	3,6	;RP1=1, select bank3
  1621  051A  0821               	movf	(_erro+1)^(0+384),w
  1622  051B  1283               	bcf	3,5	;RP0=0, select bank0
  1623  051C  1303               	bcf	3,6	;RP1=0, select bank0
  1624  051D  00C1               	movwf	___flmul@a+1
  1625  051E  1683               	bsf	3,5	;RP0=1, select bank3
  1626  051F  1703               	bsf	3,6	;RP1=1, select bank3
  1627  0520  0820               	movf	_erro^(0+384),w
  1628  0521  1283               	bcf	3,5	;RP0=0, select bank0
  1629  0522  1303               	bcf	3,6	;RP1=0, select bank0
  1630  0523  00C0               	movwf	___flmul@a
  1631  0524  303F               	movlw	63
  1632  0525  00BF               	movwf	___flmul@b+3
  1633  0526  3080               	movlw	128
  1634  0527  00BE               	movwf	___flmul@b+2
  1635  0528  3000               	movlw	0
  1636  0529  00BD               	movwf	___flmul@b+1
  1637  052A  3000               	movlw	0
  1638  052B  00BC               	movwf	___flmul@b
  1639  052C  120A  118A  20A3  120A  118A  	fcall	___flmul
  1640  0531  1283               	bcf	3,5	;RP0=0, select bank0
  1641  0532  1303               	bcf	3,6	;RP1=0, select bank0
  1642  0533  083F               	movf	?___flmul+3,w
  1643  0534  1683               	bsf	3,5	;RP0=1, select bank1
  1644  0535  1303               	bcf	3,6	;RP1=0, select bank1
  1645  0536  00CE               	movwf	(_realizarCalculo$860+3)^(0+128)
  1646  0537  1283               	bcf	3,5	;RP0=0, select bank0
  1647  0538  1303               	bcf	3,6	;RP1=0, select bank0
  1648  0539  083E               	movf	?___flmul+2,w
  1649  053A  1683               	bsf	3,5	;RP0=1, select bank1
  1650  053B  1303               	bcf	3,6	;RP1=0, select bank1
  1651  053C  00CD               	movwf	(_realizarCalculo$860+2)^(0+128)
  1652  053D  1283               	bcf	3,5	;RP0=0, select bank0
  1653  053E  1303               	bcf	3,6	;RP1=0, select bank0
  1654  053F  083D               	movf	?___flmul+1,w
  1655  0540  1683               	bsf	3,5	;RP0=1, select bank1
  1656  0541  1303               	bcf	3,6	;RP1=0, select bank1
  1657  0542  00CC               	movwf	(_realizarCalculo$860+1)^(0+128)
  1658  0543  1283               	bcf	3,5	;RP0=0, select bank0
  1659  0544  1303               	bcf	3,6	;RP1=0, select bank0
  1660  0545  083C               	movf	?___flmul,w
  1661  0546  1683               	bsf	3,5	;RP0=1, select bank1
  1662  0547  1303               	bcf	3,6	;RP1=0, select bank1
  1663  0548  00CB               	movwf	_realizarCalculo$860^(0+128)
  1664  0549                     l2886:
  1665                           
  1666                           ;main.c: 167:     integral += (erro * ki) * 100E-3;
  1667  0549  084E               	movf	(_realizarCalculo$860+3)^(0+128),w
  1668  054A  1283               	bcf	3,5	;RP0=0, select bank0
  1669  054B  1303               	bcf	3,6	;RP1=0, select bank0
  1670  054C  00C3               	movwf	___flmul@a+3
  1671  054D  1683               	bsf	3,5	;RP0=1, select bank1
  1672  054E  1303               	bcf	3,6	;RP1=0, select bank1
  1673  054F  084D               	movf	(_realizarCalculo$860+2)^(0+128),w
  1674  0550  1283               	bcf	3,5	;RP0=0, select bank0
  1675  0551  1303               	bcf	3,6	;RP1=0, select bank0
  1676  0552  00C2               	movwf	___flmul@a+2
  1677  0553  1683               	bsf	3,5	;RP0=1, select bank1
  1678  0554  1303               	bcf	3,6	;RP1=0, select bank1
  1679  0555  084C               	movf	(_realizarCalculo$860+1)^(0+128),w
  1680  0556  1283               	bcf	3,5	;RP0=0, select bank0
  1681  0557  1303               	bcf	3,6	;RP1=0, select bank0
  1682  0558  00C1               	movwf	___flmul@a+1
  1683  0559  1683               	bsf	3,5	;RP0=1, select bank1
  1684  055A  1303               	bcf	3,6	;RP1=0, select bank1
  1685  055B  084B               	movf	_realizarCalculo$860^(0+128),w
  1686  055C  1283               	bcf	3,5	;RP0=0, select bank0
  1687  055D  1303               	bcf	3,6	;RP1=0, select bank0
  1688  055E  00C0               	movwf	___flmul@a
  1689  055F  303D               	movlw	61
  1690  0560  00BF               	movwf	___flmul@b+3
  1691  0561  30CC               	movlw	204
  1692  0562  00BE               	movwf	___flmul@b+2
  1693  0563  30CC               	movlw	204
  1694  0564  00BD               	movwf	___flmul@b+1
  1695  0565  30CD               	movlw	205
  1696  0566  00BC               	movwf	___flmul@b
  1697  0567  120A  118A  20A3  120A  118A  	fcall	___flmul
  1698  056C  1283               	bcf	3,5	;RP0=0, select bank0
  1699  056D  1303               	bcf	3,6	;RP1=0, select bank0
  1700  056E  083F               	movf	?___flmul+3,w
  1701  056F  00D9               	movwf	___fladd@b+3
  1702  0570  083E               	movf	?___flmul+2,w
  1703  0571  00D8               	movwf	___fladd@b+2
  1704  0572  083D               	movf	?___flmul+1,w
  1705  0573  00D7               	movwf	___fladd@b+1
  1706  0574  083C               	movf	?___flmul,w
  1707  0575  00D6               	movwf	___fladd@b
  1708  0576  1683               	bsf	3,5	;RP0=1, select bank3
  1709  0577  1703               	bsf	3,6	;RP1=1, select bank3
  1710  0578  081B               	movf	(_integral+3)^(0+384),w
  1711  0579  1283               	bcf	3,5	;RP0=0, select bank0
  1712  057A  1303               	bcf	3,6	;RP1=0, select bank0
  1713  057B  00DD               	movwf	___fladd@a+3
  1714  057C  1683               	bsf	3,5	;RP0=1, select bank3
  1715  057D  1703               	bsf	3,6	;RP1=1, select bank3
  1716  057E  081A               	movf	(_integral+2)^(0+384),w
  1717  057F  1283               	bcf	3,5	;RP0=0, select bank0
  1718  0580  1303               	bcf	3,6	;RP1=0, select bank0
  1719  0581  00DC               	movwf	___fladd@a+2
  1720  0582  1683               	bsf	3,5	;RP0=1, select bank3
  1721  0583  1703               	bsf	3,6	;RP1=1, select bank3
  1722  0584  0819               	movf	(_integral+1)^(0+384),w
  1723  0585  1283               	bcf	3,5	;RP0=0, select bank0
  1724  0586  1303               	bcf	3,6	;RP1=0, select bank0
  1725  0587  00DB               	movwf	___fladd@a+1
  1726  0588  1683               	bsf	3,5	;RP0=1, select bank3
  1727  0589  1703               	bsf	3,6	;RP1=1, select bank3
  1728  058A  0818               	movf	_integral^(0+384),w
  1729  058B  1283               	bcf	3,5	;RP0=0, select bank0
  1730  058C  1303               	bcf	3,6	;RP1=0, select bank0
  1731  058D  00DA               	movwf	___fladd@a
  1732  058E  120A  158A  2578  120A  118A  	fcall	___fladd
  1733  0593  1283               	bcf	3,5	;RP0=0, select bank0
  1734  0594  1303               	bcf	3,6	;RP1=0, select bank0
  1735  0595  0859               	movf	?___fladd+3,w
  1736  0596  1683               	bsf	3,5	;RP0=1, select bank3
  1737  0597  1703               	bsf	3,6	;RP1=1, select bank3
  1738  0598  009B               	movwf	(_integral+3)^(0+384)
  1739  0599  1283               	bcf	3,5	;RP0=0, select bank0
  1740  059A  1303               	bcf	3,6	;RP1=0, select bank0
  1741  059B  0858               	movf	?___fladd+2,w
  1742  059C  1683               	bsf	3,5	;RP0=1, select bank3
  1743  059D  1703               	bsf	3,6	;RP1=1, select bank3
  1744  059E  009A               	movwf	(_integral+2)^(0+384)
  1745  059F  1283               	bcf	3,5	;RP0=0, select bank0
  1746  05A0  1303               	bcf	3,6	;RP1=0, select bank0
  1747  05A1  0857               	movf	?___fladd+1,w
  1748  05A2  1683               	bsf	3,5	;RP0=1, select bank3
  1749  05A3  1703               	bsf	3,6	;RP1=1, select bank3
  1750  05A4  0099               	movwf	(_integral+1)^(0+384)
  1751  05A5  1283               	bcf	3,5	;RP0=0, select bank0
  1752  05A6  1303               	bcf	3,6	;RP1=0, select bank0
  1753  05A7  0856               	movf	?___fladd,w
  1754  05A8  1683               	bsf	3,5	;RP0=1, select bank3
  1755  05A9  1703               	bsf	3,6	;RP1=1, select bank3
  1756  05AA  0098               	movwf	_integral^(0+384)
  1757  05AB                     l2888:
  1758                           
  1759                           ;main.c: 168:     derivativo += ((temperaturaReferencia - temperatura) * kd) / 100E-3;
  1760  05AB  0827               	movf	(_temperaturaReferencia+3)^(0+384),w
  1761  05AC  1683               	bsf	3,5	;RP0=1, select bank1
  1762  05AD  1303               	bcf	3,6	;RP1=0, select bank1
  1763  05AE  00A7               	movwf	(___flsub@b+3)^(0+128)
  1764  05AF  1683               	bsf	3,5	;RP0=1, select bank3
  1765  05B0  1703               	bsf	3,6	;RP1=1, select bank3
  1766  05B1  0826               	movf	(_temperaturaReferencia+2)^(0+384),w
  1767  05B2  1683               	bsf	3,5	;RP0=1, select bank1
  1768  05B3  1303               	bcf	3,6	;RP1=0, select bank1
  1769  05B4  00A6               	movwf	(___flsub@b+2)^(0+128)
  1770  05B5  1683               	bsf	3,5	;RP0=1, select bank3
  1771  05B6  1703               	bsf	3,6	;RP1=1, select bank3
  1772  05B7  0825               	movf	(_temperaturaReferencia+1)^(0+384),w
  1773  05B8  1683               	bsf	3,5	;RP0=1, select bank1
  1774  05B9  1303               	bcf	3,6	;RP1=0, select bank1
  1775  05BA  00A5               	movwf	(___flsub@b+1)^(0+128)
  1776  05BB  1683               	bsf	3,5	;RP0=1, select bank3
  1777  05BC  1703               	bsf	3,6	;RP1=1, select bank3
  1778  05BD  0824               	movf	_temperaturaReferencia^(0+384),w
  1779  05BE  1683               	bsf	3,5	;RP0=1, select bank1
  1780  05BF  1303               	bcf	3,6	;RP1=0, select bank1
  1781  05C0  00A4               	movwf	___flsub@b^(0+128)
  1782  05C1  085C               	movf	(_temperatura+3)^(0+128),w
  1783  05C2  00A3               	movwf	(___flsub@a+3)^(0+128)
  1784  05C3  085B               	movf	(_temperatura+2)^(0+128),w
  1785  05C4  00A2               	movwf	(___flsub@a+2)^(0+128)
  1786  05C5  085A               	movf	(_temperatura+1)^(0+128),w
  1787  05C6  00A1               	movwf	(___flsub@a+1)^(0+128)
  1788  05C7  0859               	movf	_temperatura^(0+128),w
  1789  05C8  00A0               	movwf	___flsub@a^(0+128)
  1790  05C9  120A  158A  2015  120A  118A  	fcall	___flsub
  1791  05CE  1683               	bsf	3,5	;RP0=1, select bank1
  1792  05CF  1303               	bcf	3,6	;RP1=0, select bank1
  1793  05D0  0823               	movf	(?___flsub+3)^(0+128),w
  1794  05D1  1283               	bcf	3,5	;RP0=0, select bank0
  1795  05D2  1303               	bcf	3,6	;RP1=0, select bank0
  1796  05D3  00C3               	movwf	___flmul@a+3
  1797  05D4  1683               	bsf	3,5	;RP0=1, select bank1
  1798  05D5  1303               	bcf	3,6	;RP1=0, select bank1
  1799  05D6  0822               	movf	(?___flsub+2)^(0+128),w
  1800  05D7  1283               	bcf	3,5	;RP0=0, select bank0
  1801  05D8  1303               	bcf	3,6	;RP1=0, select bank0
  1802  05D9  00C2               	movwf	___flmul@a+2
  1803  05DA  1683               	bsf	3,5	;RP0=1, select bank1
  1804  05DB  1303               	bcf	3,6	;RP1=0, select bank1
  1805  05DC  0821               	movf	(?___flsub+1)^(0+128),w
  1806  05DD  1283               	bcf	3,5	;RP0=0, select bank0
  1807  05DE  1303               	bcf	3,6	;RP1=0, select bank0
  1808  05DF  00C1               	movwf	___flmul@a+1
  1809  05E0  1683               	bsf	3,5	;RP0=1, select bank1
  1810  05E1  1303               	bcf	3,6	;RP1=0, select bank1
  1811  05E2  0820               	movf	?___flsub^(0+128),w
  1812  05E3  1283               	bcf	3,5	;RP0=0, select bank0
  1813  05E4  1303               	bcf	3,6	;RP1=0, select bank0
  1814  05E5  00C0               	movwf	___flmul@a
  1815  05E6  303B               	movlw	59
  1816  05E7  00BF               	movwf	___flmul@b+3
  1817  05E8  3003               	movlw	3
  1818  05E9  00BE               	movwf	___flmul@b+2
  1819  05EA  3012               	movlw	18
  1820  05EB  00BD               	movwf	___flmul@b+1
  1821  05EC  306F               	movlw	111
  1822  05ED  00BC               	movwf	___flmul@b
  1823  05EE  120A  118A  20A3  120A  118A  	fcall	___flmul
  1824  05F3  1283               	bcf	3,5	;RP0=0, select bank0
  1825  05F4  1303               	bcf	3,6	;RP1=0, select bank0
  1826  05F5  083F               	movf	?___flmul+3,w
  1827  05F6  1683               	bsf	3,5	;RP0=1, select bank1
  1828  05F7  1303               	bcf	3,6	;RP1=0, select bank1
  1829  05F8  00AF               	movwf	(___fldiv@b+3)^(0+128)
  1830  05F9  1283               	bcf	3,5	;RP0=0, select bank0
  1831  05FA  1303               	bcf	3,6	;RP1=0, select bank0
  1832  05FB  083E               	movf	?___flmul+2,w
  1833  05FC  1683               	bsf	3,5	;RP0=1, select bank1
  1834  05FD  1303               	bcf	3,6	;RP1=0, select bank1
  1835  05FE  00AE               	movwf	(___fldiv@b+2)^(0+128)
  1836  05FF  1283               	bcf	3,5	;RP0=0, select bank0
  1837  0600  1303               	bcf	3,6	;RP1=0, select bank0
  1838  0601  083D               	movf	?___flmul+1,w
  1839  0602  1683               	bsf	3,5	;RP0=1, select bank1
  1840  0603  1303               	bcf	3,6	;RP1=0, select bank1
  1841  0604  00AD               	movwf	(___fldiv@b+1)^(0+128)
  1842  0605  1283               	bcf	3,5	;RP0=0, select bank0
  1843  0606  1303               	bcf	3,6	;RP1=0, select bank0
  1844  0607  083C               	movf	?___flmul,w
  1845  0608  1683               	bsf	3,5	;RP0=1, select bank1
  1846  0609  1303               	bcf	3,6	;RP1=0, select bank1
  1847  060A  00AC               	movwf	___fldiv@b^(0+128)
  1848  060B  303D               	movlw	61
  1849  060C  00AB               	movwf	(___fldiv@a+3)^(0+128)
  1850  060D  30CC               	movlw	204
  1851  060E  00AA               	movwf	(___fldiv@a+2)^(0+128)
  1852  060F  30CC               	movlw	204
  1853  0610  00A9               	movwf	(___fldiv@a+1)^(0+128)
  1854  0611  30CD               	movlw	205
  1855  0612  00A8               	movwf	___fldiv@a^(0+128)
  1856  0613  120A  158A  2315  120A  118A  	fcall	___fldiv
  1857  0618  1683               	bsf	3,5	;RP0=1, select bank1
  1858  0619  1303               	bcf	3,6	;RP1=0, select bank1
  1859  061A  082B               	movf	(?___fldiv+3)^(0+128),w
  1860  061B  00D2               	movwf	(_realizarCalculo$861+3)^(0+128)
  1861  061C  082A               	movf	(?___fldiv+2)^(0+128),w
  1862  061D  00D1               	movwf	(_realizarCalculo$861+2)^(0+128)
  1863  061E  0829               	movf	(?___fldiv+1)^(0+128),w
  1864  061F  00D0               	movwf	(_realizarCalculo$861+1)^(0+128)
  1865  0620  0828               	movf	?___fldiv^(0+128),w
  1866  0621  00CF               	movwf	_realizarCalculo$861^(0+128)
  1867  0622                     l2890:
  1868                           
  1869                           ;main.c: 168:     derivativo += ((temperaturaReferencia - temperatura) * kd) / 100E-3;
  1870  0622  0852               	movf	(_realizarCalculo$861+3)^(0+128),w
  1871  0623  1283               	bcf	3,5	;RP0=0, select bank0
  1872  0624  1303               	bcf	3,6	;RP1=0, select bank0
  1873  0625  00D9               	movwf	___fladd@b+3
  1874  0626  1683               	bsf	3,5	;RP0=1, select bank1
  1875  0627  1303               	bcf	3,6	;RP1=0, select bank1
  1876  0628  0851               	movf	(_realizarCalculo$861+2)^(0+128),w
  1877  0629  1283               	bcf	3,5	;RP0=0, select bank0
  1878  062A  1303               	bcf	3,6	;RP1=0, select bank0
  1879  062B  00D8               	movwf	___fladd@b+2
  1880  062C  1683               	bsf	3,5	;RP0=1, select bank1
  1881  062D  1303               	bcf	3,6	;RP1=0, select bank1
  1882  062E  0850               	movf	(_realizarCalculo$861+1)^(0+128),w
  1883  062F  1283               	bcf	3,5	;RP0=0, select bank0
  1884  0630  1303               	bcf	3,6	;RP1=0, select bank0
  1885  0631  00D7               	movwf	___fladd@b+1
  1886  0632  1683               	bsf	3,5	;RP0=1, select bank1
  1887  0633  1303               	bcf	3,6	;RP1=0, select bank1
  1888  0634  084F               	movf	_realizarCalculo$861^(0+128),w
  1889  0635  1283               	bcf	3,5	;RP0=0, select bank0
  1890  0636  1303               	bcf	3,6	;RP1=0, select bank0
  1891  0637  00D6               	movwf	___fladd@b
  1892  0638  1683               	bsf	3,5	;RP0=1, select bank3
  1893  0639  1703               	bsf	3,6	;RP1=1, select bank3
  1894  063A  0817               	movf	(_derivativo+3)^(0+384),w
  1895  063B  1283               	bcf	3,5	;RP0=0, select bank0
  1896  063C  1303               	bcf	3,6	;RP1=0, select bank0
  1897  063D  00DD               	movwf	___fladd@a+3
  1898  063E  1683               	bsf	3,5	;RP0=1, select bank3
  1899  063F  1703               	bsf	3,6	;RP1=1, select bank3
  1900  0640  0816               	movf	(_derivativo+2)^(0+384),w
  1901  0641  1283               	bcf	3,5	;RP0=0, select bank0
  1902  0642  1303               	bcf	3,6	;RP1=0, select bank0
  1903  0643  00DC               	movwf	___fladd@a+2
  1904  0644  1683               	bsf	3,5	;RP0=1, select bank3
  1905  0645  1703               	bsf	3,6	;RP1=1, select bank3
  1906  0646  0815               	movf	(_derivativo+1)^(0+384),w
  1907  0647  1283               	bcf	3,5	;RP0=0, select bank0
  1908  0648  1303               	bcf	3,6	;RP1=0, select bank0
  1909  0649  00DB               	movwf	___fladd@a+1
  1910  064A  1683               	bsf	3,5	;RP0=1, select bank3
  1911  064B  1703               	bsf	3,6	;RP1=1, select bank3
  1912  064C  0814               	movf	_derivativo^(0+384),w
  1913  064D  1283               	bcf	3,5	;RP0=0, select bank0
  1914  064E  1303               	bcf	3,6	;RP1=0, select bank0
  1915  064F  00DA               	movwf	___fladd@a
  1916  0650  120A  158A  2578  120A  118A  	fcall	___fladd
  1917  0655  1283               	bcf	3,5	;RP0=0, select bank0
  1918  0656  1303               	bcf	3,6	;RP1=0, select bank0
  1919  0657  0859               	movf	?___fladd+3,w
  1920  0658  1683               	bsf	3,5	;RP0=1, select bank3
  1921  0659  1703               	bsf	3,6	;RP1=1, select bank3
  1922  065A  0097               	movwf	(_derivativo+3)^(0+384)
  1923  065B  1283               	bcf	3,5	;RP0=0, select bank0
  1924  065C  1303               	bcf	3,6	;RP1=0, select bank0
  1925  065D  0858               	movf	?___fladd+2,w
  1926  065E  1683               	bsf	3,5	;RP0=1, select bank3
  1927  065F  1703               	bsf	3,6	;RP1=1, select bank3
  1928  0660  0096               	movwf	(_derivativo+2)^(0+384)
  1929  0661  1283               	bcf	3,5	;RP0=0, select bank0
  1930  0662  1303               	bcf	3,6	;RP1=0, select bank0
  1931  0663  0857               	movf	?___fladd+1,w
  1932  0664  1683               	bsf	3,5	;RP0=1, select bank3
  1933  0665  1703               	bsf	3,6	;RP1=1, select bank3
  1934  0666  0095               	movwf	(_derivativo+1)^(0+384)
  1935  0667  1283               	bcf	3,5	;RP0=0, select bank0
  1936  0668  1303               	bcf	3,6	;RP1=0, select bank0
  1937  0669  0856               	movf	?___fladd,w
  1938  066A  1683               	bsf	3,5	;RP0=1, select bank3
  1939  066B  1703               	bsf	3,6	;RP1=1, select bank3
  1940  066C  0094               	movwf	_derivativo^(0+384)
  1941  066D                     l2892:
  1942                           
  1943                           ;main.c: 169:     temperaturaReferencia = temperatura;
  1944  066D  1683               	bsf	3,5	;RP0=1, select bank1
  1945  066E  1303               	bcf	3,6	;RP1=0, select bank1
  1946  066F  085C               	movf	(_temperatura+3)^(0+128),w
  1947  0670  1683               	bsf	3,5	;RP0=1, select bank3
  1948  0671  1703               	bsf	3,6	;RP1=1, select bank3
  1949  0672  00A7               	movwf	(_temperaturaReferencia+3)^(0+384)
  1950  0673  1683               	bsf	3,5	;RP0=1, select bank1
  1951  0674  1303               	bcf	3,6	;RP1=0, select bank1
  1952  0675  085B               	movf	(_temperatura+2)^(0+128),w
  1953  0676  1683               	bsf	3,5	;RP0=1, select bank3
  1954  0677  1703               	bsf	3,6	;RP1=1, select bank3
  1955  0678  00A6               	movwf	(_temperaturaReferencia+2)^(0+384)
  1956  0679  1683               	bsf	3,5	;RP0=1, select bank1
  1957  067A  1303               	bcf	3,6	;RP1=0, select bank1
  1958  067B  085A               	movf	(_temperatura+1)^(0+128),w
  1959  067C  1683               	bsf	3,5	;RP0=1, select bank3
  1960  067D  1703               	bsf	3,6	;RP1=1, select bank3
  1961  067E  00A5               	movwf	(_temperaturaReferencia+1)^(0+384)
  1962  067F  1683               	bsf	3,5	;RP0=1, select bank1
  1963  0680  1303               	bcf	3,6	;RP1=0, select bank1
  1964  0681  0859               	movf	_temperatura^(0+128),w
  1965  0682  1683               	bsf	3,5	;RP0=1, select bank3
  1966  0683  1703               	bsf	3,6	;RP1=1, select bank3
  1967  0684  00A4               	movwf	_temperaturaReferencia^(0+384)
  1968  0685                     l2894:
  1969                           
  1970                           ;main.c: 171:     PID = (proporcional + integral + derivativo) / 4;
  1971  0685  081B               	movf	(_integral+3)^(0+384),w
  1972  0686  1283               	bcf	3,5	;RP0=0, select bank0
  1973  0687  1303               	bcf	3,6	;RP1=0, select bank0
  1974  0688  00D9               	movwf	___fladd@b+3
  1975  0689  1683               	bsf	3,5	;RP0=1, select bank3
  1976  068A  1703               	bsf	3,6	;RP1=1, select bank3
  1977  068B  081A               	movf	(_integral+2)^(0+384),w
  1978  068C  1283               	bcf	3,5	;RP0=0, select bank0
  1979  068D  1303               	bcf	3,6	;RP1=0, select bank0
  1980  068E  00D8               	movwf	___fladd@b+2
  1981  068F  1683               	bsf	3,5	;RP0=1, select bank3
  1982  0690  1703               	bsf	3,6	;RP1=1, select bank3
  1983  0691  0819               	movf	(_integral+1)^(0+384),w
  1984  0692  1283               	bcf	3,5	;RP0=0, select bank0
  1985  0693  1303               	bcf	3,6	;RP1=0, select bank0
  1986  0694  00D7               	movwf	___fladd@b+1
  1987  0695  1683               	bsf	3,5	;RP0=1, select bank3
  1988  0696  1703               	bsf	3,6	;RP1=1, select bank3
  1989  0697  0818               	movf	_integral^(0+384),w
  1990  0698  1283               	bcf	3,5	;RP0=0, select bank0
  1991  0699  1303               	bcf	3,6	;RP1=0, select bank0
  1992  069A  00D6               	movwf	___fladd@b
  1993  069B  1683               	bsf	3,5	;RP0=1, select bank3
  1994  069C  1703               	bsf	3,6	;RP1=1, select bank3
  1995  069D  081F               	movf	(_proporcional+3)^(0+384),w
  1996  069E  1283               	bcf	3,5	;RP0=0, select bank0
  1997  069F  1303               	bcf	3,6	;RP1=0, select bank0
  1998  06A0  00DD               	movwf	___fladd@a+3
  1999  06A1  1683               	bsf	3,5	;RP0=1, select bank3
  2000  06A2  1703               	bsf	3,6	;RP1=1, select bank3
  2001  06A3  081E               	movf	(_proporcional+2)^(0+384),w
  2002  06A4  1283               	bcf	3,5	;RP0=0, select bank0
  2003  06A5  1303               	bcf	3,6	;RP1=0, select bank0
  2004  06A6  00DC               	movwf	___fladd@a+2
  2005  06A7  1683               	bsf	3,5	;RP0=1, select bank3
  2006  06A8  1703               	bsf	3,6	;RP1=1, select bank3
  2007  06A9  081D               	movf	(_proporcional+1)^(0+384),w
  2008  06AA  1283               	bcf	3,5	;RP0=0, select bank0
  2009  06AB  1303               	bcf	3,6	;RP1=0, select bank0
  2010  06AC  00DB               	movwf	___fladd@a+1
  2011  06AD  1683               	bsf	3,5	;RP0=1, select bank3
  2012  06AE  1703               	bsf	3,6	;RP1=1, select bank3
  2013  06AF  081C               	movf	_proporcional^(0+384),w
  2014  06B0  1283               	bcf	3,5	;RP0=0, select bank0
  2015  06B1  1303               	bcf	3,6	;RP1=0, select bank0
  2016  06B2  00DA               	movwf	___fladd@a
  2017  06B3  120A  158A  2578  120A  118A  	fcall	___fladd
  2018  06B8  1283               	bcf	3,5	;RP0=0, select bank0
  2019  06B9  1303               	bcf	3,6	;RP1=0, select bank0
  2020  06BA  0859               	movf	?___fladd+3,w
  2021  06BB  1683               	bsf	3,5	;RP0=1, select bank1
  2022  06BC  1303               	bcf	3,6	;RP1=0, select bank1
  2023  06BD  00D6               	movwf	(_realizarCalculo$862+3)^(0+128)
  2024  06BE  1283               	bcf	3,5	;RP0=0, select bank0
  2025  06BF  1303               	bcf	3,6	;RP1=0, select bank0
  2026  06C0  0858               	movf	?___fladd+2,w
  2027  06C1  1683               	bsf	3,5	;RP0=1, select bank1
  2028  06C2  1303               	bcf	3,6	;RP1=0, select bank1
  2029  06C3  00D5               	movwf	(_realizarCalculo$862+2)^(0+128)
  2030  06C4  1283               	bcf	3,5	;RP0=0, select bank0
  2031  06C5  1303               	bcf	3,6	;RP1=0, select bank0
  2032  06C6  0857               	movf	?___fladd+1,w
  2033  06C7  1683               	bsf	3,5	;RP0=1, select bank1
  2034  06C8  1303               	bcf	3,6	;RP1=0, select bank1
  2035  06C9  00D4               	movwf	(_realizarCalculo$862+1)^(0+128)
  2036  06CA  1283               	bcf	3,5	;RP0=0, select bank0
  2037  06CB  1303               	bcf	3,6	;RP1=0, select bank0
  2038  06CC  0856               	movf	?___fladd,w
  2039  06CD  1683               	bsf	3,5	;RP0=1, select bank1
  2040  06CE  1303               	bcf	3,6	;RP1=0, select bank1
  2041  06CF  00D3               	movwf	_realizarCalculo$862^(0+128)
  2042  06D0                     l2896:
  2043                           
  2044                           ;main.c: 171:     PID = (proporcional + integral + derivativo) / 4;
  2045  06D0  3040               	movlw	64
  2046  06D1  00AB               	movwf	(___fldiv@a+3)^(0+128)
  2047  06D2  3080               	movlw	128
  2048  06D3  00AA               	movwf	(___fldiv@a+2)^(0+128)
  2049  06D4  3000               	movlw	0
  2050  06D5  00A9               	movwf	(___fldiv@a+1)^(0+128)
  2051  06D6  3000               	movlw	0
  2052  06D7  00A8               	movwf	___fldiv@a^(0+128)
  2053  06D8  1683               	bsf	3,5	;RP0=1, select bank3
  2054  06D9  1703               	bsf	3,6	;RP1=1, select bank3
  2055  06DA  0817               	movf	(_derivativo+3)^(0+384),w
  2056  06DB  1283               	bcf	3,5	;RP0=0, select bank0
  2057  06DC  1303               	bcf	3,6	;RP1=0, select bank0
  2058  06DD  00D9               	movwf	___fladd@b+3
  2059  06DE  1683               	bsf	3,5	;RP0=1, select bank3
  2060  06DF  1703               	bsf	3,6	;RP1=1, select bank3
  2061  06E0  0816               	movf	(_derivativo+2)^(0+384),w
  2062  06E1  1283               	bcf	3,5	;RP0=0, select bank0
  2063  06E2  1303               	bcf	3,6	;RP1=0, select bank0
  2064  06E3  00D8               	movwf	___fladd@b+2
  2065  06E4  1683               	bsf	3,5	;RP0=1, select bank3
  2066  06E5  1703               	bsf	3,6	;RP1=1, select bank3
  2067  06E6  0815               	movf	(_derivativo+1)^(0+384),w
  2068  06E7  1283               	bcf	3,5	;RP0=0, select bank0
  2069  06E8  1303               	bcf	3,6	;RP1=0, select bank0
  2070  06E9  00D7               	movwf	___fladd@b+1
  2071  06EA  1683               	bsf	3,5	;RP0=1, select bank3
  2072  06EB  1703               	bsf	3,6	;RP1=1, select bank3
  2073  06EC  0814               	movf	_derivativo^(0+384),w
  2074  06ED  1283               	bcf	3,5	;RP0=0, select bank0
  2075  06EE  1303               	bcf	3,6	;RP1=0, select bank0
  2076  06EF  00D6               	movwf	___fladd@b
  2077  06F0  1683               	bsf	3,5	;RP0=1, select bank1
  2078  06F1  1303               	bcf	3,6	;RP1=0, select bank1
  2079  06F2  0856               	movf	(_realizarCalculo$862+3)^(0+128),w
  2080  06F3  1283               	bcf	3,5	;RP0=0, select bank0
  2081  06F4  1303               	bcf	3,6	;RP1=0, select bank0
  2082  06F5  00DD               	movwf	___fladd@a+3
  2083  06F6  1683               	bsf	3,5	;RP0=1, select bank1
  2084  06F7  1303               	bcf	3,6	;RP1=0, select bank1
  2085  06F8  0855               	movf	(_realizarCalculo$862+2)^(0+128),w
  2086  06F9  1283               	bcf	3,5	;RP0=0, select bank0
  2087  06FA  1303               	bcf	3,6	;RP1=0, select bank0
  2088  06FB  00DC               	movwf	___fladd@a+2
  2089  06FC  1683               	bsf	3,5	;RP0=1, select bank1
  2090  06FD  1303               	bcf	3,6	;RP1=0, select bank1
  2091  06FE  0854               	movf	(_realizarCalculo$862+1)^(0+128),w
  2092  06FF  1283               	bcf	3,5	;RP0=0, select bank0
  2093  0700  1303               	bcf	3,6	;RP1=0, select bank0
  2094  0701  00DB               	movwf	___fladd@a+1
  2095  0702  1683               	bsf	3,5	;RP0=1, select bank1
  2096  0703  1303               	bcf	3,6	;RP1=0, select bank1
  2097  0704  0853               	movf	_realizarCalculo$862^(0+128),w
  2098  0705  1283               	bcf	3,5	;RP0=0, select bank0
  2099  0706  1303               	bcf	3,6	;RP1=0, select bank0
  2100  0707  00DA               	movwf	___fladd@a
  2101  0708  120A  158A  2578  120A  118A  	fcall	___fladd
  2102  070D  1283               	bcf	3,5	;RP0=0, select bank0
  2103  070E  1303               	bcf	3,6	;RP1=0, select bank0
  2104  070F  0859               	movf	?___fladd+3,w
  2105  0710  1683               	bsf	3,5	;RP0=1, select bank1
  2106  0711  1303               	bcf	3,6	;RP1=0, select bank1
  2107  0712  00AF               	movwf	(___fldiv@b+3)^(0+128)
  2108  0713  1283               	bcf	3,5	;RP0=0, select bank0
  2109  0714  1303               	bcf	3,6	;RP1=0, select bank0
  2110  0715  0858               	movf	?___fladd+2,w
  2111  0716  1683               	bsf	3,5	;RP0=1, select bank1
  2112  0717  1303               	bcf	3,6	;RP1=0, select bank1
  2113  0718  00AE               	movwf	(___fldiv@b+2)^(0+128)
  2114  0719  1283               	bcf	3,5	;RP0=0, select bank0
  2115  071A  1303               	bcf	3,6	;RP1=0, select bank0
  2116  071B  0857               	movf	?___fladd+1,w
  2117  071C  1683               	bsf	3,5	;RP0=1, select bank1
  2118  071D  1303               	bcf	3,6	;RP1=0, select bank1
  2119  071E  00AD               	movwf	(___fldiv@b+1)^(0+128)
  2120  071F  1283               	bcf	3,5	;RP0=0, select bank0
  2121  0720  1303               	bcf	3,6	;RP1=0, select bank0
  2122  0721  0856               	movf	?___fladd,w
  2123  0722  1683               	bsf	3,5	;RP0=1, select bank1
  2124  0723  1303               	bcf	3,6	;RP1=0, select bank1
  2125  0724  00AC               	movwf	___fldiv@b^(0+128)
  2126  0725  120A  158A  2315  120A  118A  	fcall	___fldiv
  2127  072A  1683               	bsf	3,5	;RP0=1, select bank1
  2128  072B  1303               	bcf	3,6	;RP1=0, select bank1
  2129  072C  082B               	movf	(?___fldiv+3)^(0+128),w
  2130  072D  1683               	bsf	3,5	;RP0=1, select bank3
  2131  072E  1703               	bsf	3,6	;RP1=1, select bank3
  2132  072F  0093               	movwf	(_PID+3)^(0+384)
  2133  0730  1683               	bsf	3,5	;RP0=1, select bank1
  2134  0731  1303               	bcf	3,6	;RP1=0, select bank1
  2135  0732  082A               	movf	(?___fldiv+2)^(0+128),w
  2136  0733  1683               	bsf	3,5	;RP0=1, select bank3
  2137  0734  1703               	bsf	3,6	;RP1=1, select bank3
  2138  0735  0092               	movwf	(_PID+2)^(0+384)
  2139  0736  1683               	bsf	3,5	;RP0=1, select bank1
  2140  0737  1303               	bcf	3,6	;RP1=0, select bank1
  2141  0738  0829               	movf	(?___fldiv+1)^(0+128),w
  2142  0739  1683               	bsf	3,5	;RP0=1, select bank3
  2143  073A  1703               	bsf	3,6	;RP1=1, select bank3
  2144  073B  0091               	movwf	(_PID+1)^(0+384)
  2145  073C  1683               	bsf	3,5	;RP0=1, select bank1
  2146  073D  1303               	bcf	3,6	;RP1=0, select bank1
  2147  073E  0828               	movf	?___fldiv^(0+128),w
  2148  073F  1683               	bsf	3,5	;RP0=1, select bank3
  2149  0740  1703               	bsf	3,6	;RP1=1, select bank3
  2150  0741  0090               	movwf	_PID^(0+384)
  2151  0742                     l2898:
  2152                           
  2153                           ;main.c: 172:     PID = controleMaximoMinimo(PID);
  2154  0742  0813               	movf	(_PID+3)^(0+384),w
  2155  0743  1283               	bcf	3,5	;RP0=0, select bank0
  2156  0744  1303               	bcf	3,6	;RP1=0, select bank0
  2157  0745  00A9               	movwf	___fltol@f1+3
  2158  0746  1683               	bsf	3,5	;RP0=1, select bank3
  2159  0747  1703               	bsf	3,6	;RP1=1, select bank3
  2160  0748  0812               	movf	(_PID+2)^(0+384),w
  2161  0749  1283               	bcf	3,5	;RP0=0, select bank0
  2162  074A  1303               	bcf	3,6	;RP1=0, select bank0
  2163  074B  00A8               	movwf	___fltol@f1+2
  2164  074C  1683               	bsf	3,5	;RP0=1, select bank3
  2165  074D  1703               	bsf	3,6	;RP1=1, select bank3
  2166  074E  0811               	movf	(_PID+1)^(0+384),w
  2167  074F  1283               	bcf	3,5	;RP0=0, select bank0
  2168  0750  1303               	bcf	3,6	;RP1=0, select bank0
  2169  0751  00A7               	movwf	___fltol@f1+1
  2170  0752  1683               	bsf	3,5	;RP0=1, select bank3
  2171  0753  1703               	bsf	3,6	;RP1=1, select bank3
  2172  0754  0810               	movf	_PID^(0+384),w
  2173  0755  1283               	bcf	3,5	;RP0=0, select bank0
  2174  0756  1303               	bcf	3,6	;RP1=0, select bank0
  2175  0757  00A6               	movwf	___fltol@f1
  2176  0758  160A  118A  2529  120A  118A  	fcall	___fltol
  2177  075D  1283               	bcf	3,5	;RP0=0, select bank0
  2178  075E  1303               	bcf	3,6	;RP1=0, select bank0
  2179  075F  0827               	movf	?___fltol+1,w
  2180  0760  00AD               	movwf	controleMaximoMinimo@valor+1
  2181  0761  0826               	movf	?___fltol,w
  2182  0762  00AC               	movwf	controleMaximoMinimo@valor
  2183  0763  160A  118A  221B  120A  118A  	fcall	_controleMaximoMinimo
  2184  0768  1283               	bcf	3,5	;RP0=0, select bank0
  2185  0769  1303               	bcf	3,6	;RP1=0, select bank0
  2186  076A  082C               	movf	?_controleMaximoMinimo,w
  2187  076B  00AE               	movwf	___xxtofl@val
  2188  076C  082D               	movf	?_controleMaximoMinimo+1,w
  2189  076D  00AF               	movwf	___xxtofl@val+1
  2190  076E  3000               	movlw	0
  2191  076F  1BAF               	btfsc	___xxtofl@val+1,7
  2192  0770  30FF               	movlw	255
  2193  0771  00B0               	movwf	___xxtofl@val+2
  2194  0772  00B1               	movwf	___xxtofl@val+3
  2195  0773  3001               	movlw	1
  2196  0774  160A  118A  25A5  120A  118A  	fcall	___xxtofl
  2197  0779  1283               	bcf	3,5	;RP0=0, select bank0
  2198  077A  1303               	bcf	3,6	;RP1=0, select bank0
  2199  077B  0831               	movf	?___xxtofl+3,w
  2200  077C  1683               	bsf	3,5	;RP0=1, select bank3
  2201  077D  1703               	bsf	3,6	;RP1=1, select bank3
  2202  077E  0093               	movwf	(_PID+3)^(0+384)
  2203  077F  1283               	bcf	3,5	;RP0=0, select bank0
  2204  0780  1303               	bcf	3,6	;RP1=0, select bank0
  2205  0781  0830               	movf	?___xxtofl+2,w
  2206  0782  1683               	bsf	3,5	;RP0=1, select bank3
  2207  0783  1703               	bsf	3,6	;RP1=1, select bank3
  2208  0784  0092               	movwf	(_PID+2)^(0+384)
  2209  0785  1283               	bcf	3,5	;RP0=0, select bank0
  2210  0786  1303               	bcf	3,6	;RP1=0, select bank0
  2211  0787  082F               	movf	?___xxtofl+1,w
  2212  0788  1683               	bsf	3,5	;RP0=1, select bank3
  2213  0789  1703               	bsf	3,6	;RP1=1, select bank3
  2214  078A  0091               	movwf	(_PID+1)^(0+384)
  2215  078B  1283               	bcf	3,5	;RP0=0, select bank0
  2216  078C  1303               	bcf	3,6	;RP1=0, select bank0
  2217  078D  082E               	movf	?___xxtofl,w
  2218  078E  1683               	bsf	3,5	;RP0=1, select bank3
  2219  078F  1703               	bsf	3,6	;RP1=1, select bank3
  2220  0790  0090               	movwf	_PID^(0+384)
  2221  0791                     l2900:
  2222                           
  2223                           ;main.c: 174:     PWM1_Duty(PID, 4000);
  2224  0791  0813               	movf	(_PID+3)^(0+384),w
  2225  0792  1283               	bcf	3,5	;RP0=0, select bank0
  2226  0793  1303               	bcf	3,6	;RP1=0, select bank0
  2227  0794  00A9               	movwf	___fltol@f1+3
  2228  0795  1683               	bsf	3,5	;RP0=1, select bank3
  2229  0796  1703               	bsf	3,6	;RP1=1, select bank3
  2230  0797  0812               	movf	(_PID+2)^(0+384),w
  2231  0798  1283               	bcf	3,5	;RP0=0, select bank0
  2232  0799  1303               	bcf	3,6	;RP1=0, select bank0
  2233  079A  00A8               	movwf	___fltol@f1+2
  2234  079B  1683               	bsf	3,5	;RP0=1, select bank3
  2235  079C  1703               	bsf	3,6	;RP1=1, select bank3
  2236  079D  0811               	movf	(_PID+1)^(0+384),w
  2237  079E  1283               	bcf	3,5	;RP0=0, select bank0
  2238  079F  1303               	bcf	3,6	;RP1=0, select bank0
  2239  07A0  00A7               	movwf	___fltol@f1+1
  2240  07A1  1683               	bsf	3,5	;RP0=1, select bank3
  2241  07A2  1703               	bsf	3,6	;RP1=1, select bank3
  2242  07A3  0810               	movf	_PID^(0+384),w
  2243  07A4  1283               	bcf	3,5	;RP0=0, select bank0
  2244  07A5  1303               	bcf	3,6	;RP1=0, select bank0
  2245  07A6  00A6               	movwf	___fltol@f1
  2246  07A7  160A  118A  2529  120A  118A  	fcall	___fltol
  2247  07AC  1283               	bcf	3,5	;RP0=0, select bank0
  2248  07AD  1303               	bcf	3,6	;RP1=0, select bank0
  2249  07AE  0827               	movf	?___fltol+1,w
  2250  07AF  1683               	bsf	3,5	;RP0=1, select bank1
  2251  07B0  1303               	bcf	3,6	;RP1=0, select bank1
  2252  07B1  00D8               	movwf	(_realizarCalculo$863+1)^(0+128)
  2253  07B2  1283               	bcf	3,5	;RP0=0, select bank0
  2254  07B3  1303               	bcf	3,6	;RP1=0, select bank0
  2255  07B4  0826               	movf	?___fltol,w
  2256  07B5  1683               	bsf	3,5	;RP0=1, select bank1
  2257  07B6  1303               	bcf	3,6	;RP1=0, select bank1
  2258  07B7  00D7               	movwf	_realizarCalculo$863^(0+128)
  2259  07B8                     l2902:
  2260                           
  2261                           ;main.c: 174:     PWM1_Duty(PID, 4000);
  2262  07B8  0858               	movf	(_realizarCalculo$863+1)^(0+128),w
  2263  07B9  00BE               	movwf	(PWM1_Duty@duty+1)^(0+128)
  2264  07BA  0857               	movf	_realizarCalculo$863^(0+128),w
  2265  07BB  00BD               	movwf	PWM1_Duty@duty^(0+128)
  2266  07BC  30A0               	movlw	160
  2267  07BD  00BF               	movwf	PWM1_Duty@freq^(0+128)
  2268  07BE  300F               	movlw	15
  2269  07BF  00C0               	movwf	(PWM1_Duty@freq^(0+128)+1)
  2270  07C0  120A  158A  2149  120A  118A  	fcall	_PWM1_Duty
  2271  07C5                     l122:
  2272  07C5  0008               	return
  2273  07C6                     __end_of_realizarCalculo:
  2274                           
  2275                           	psect	text2
  2276  1237                     __ptext2:	
  2277 ;; *************** function ___wmul *****************
  2278 ;; Defined at:
  2279 ;;		line 15 in file "C:\Program Files\Microchip\xc8\v2.32\pic\sources\c90\common\Umul16.c"
  2280 ;; Parameters:    Size  Location     Type
  2281 ;;  multiplier      2    5[COMMON] unsigned int 
  2282 ;;  multiplicand    2    7[COMMON] unsigned int 
  2283 ;; Auto vars:     Size  Location     Type
  2284 ;;  product         2    9[COMMON] unsigned int 
  2285 ;; Return value:  Size  Location     Type
  2286 ;;                  2    5[COMMON] unsigned int 
  2287 ;; Registers used:
  2288 ;;		wreg, status,2, status,0
  2289 ;; Tracked objects:
  2290 ;;		On entry : 0/0
  2291 ;;		On exit  : 0/0
  2292 ;;		Unchanged: 0/0
  2293 ;; Data sizes:     COMMON   BANK0   BANK1   BANK3   BANK2
  2294 ;;      Params:         4       0       0       0       0
  2295 ;;      Locals:         2       0       0       0       0
  2296 ;;      Temps:          0       0       0       0       0
  2297 ;;      Totals:         6       0       0       0       0
  2298 ;;Total ram usage:        6 bytes
  2299 ;; Hardware stack levels used: 1
  2300 ;; This function calls:
  2301 ;;		Nothing
  2302 ;; This function is called by:
  2303 ;;		_realizarCalculo
  2304 ;; This function uses a non-reentrant model
  2305 ;;
  2306                           
  2307                           
  2308                           ;psect for function ___wmul
  2309  1237                     ___wmul:
  2310  1237                     l2798:	
  2311                           ;incstack = 0
  2312                           ; Regs used in ___wmul: [wreg+status,2+status,0]
  2313                           
  2314  1237  01F9               	clrf	___wmul@product
  2315  1238  01FA               	clrf	___wmul@product+1
  2316  1239                     l2800:
  2317  1239  1C75               	btfss	___wmul@multiplier,0
  2318  123A  2A3C               	goto	u4091
  2319  123B  2A3D               	goto	u4090
  2320  123C                     u4091:
  2321  123C  2A43               	goto	l346
  2322  123D                     u4090:
  2323  123D                     l2802:
  2324  123D  0877               	movf	___wmul@multiplicand,w
  2325  123E  07F9               	addwf	___wmul@product,f
  2326  123F  1803               	skipnc
  2327  1240  0AFA               	incf	___wmul@product+1,f
  2328  1241  0878               	movf	___wmul@multiplicand+1,w
  2329  1242  07FA               	addwf	___wmul@product+1,f
  2330  1243                     l346:
  2331  1243  3001               	movlw	1
  2332  1244                     u4105:
  2333  1244  1003               	clrc
  2334  1245  0DF7               	rlf	___wmul@multiplicand,f
  2335  1246  0DF8               	rlf	___wmul@multiplicand+1,f
  2336  1247  3EFF               	addlw	-1
  2337  1248  1D03               	skipz
  2338  1249  2A44               	goto	u4105
  2339  124A                     l2804:
  2340  124A  3001               	movlw	1
  2341  124B                     u4115:
  2342  124B  1003               	clrc
  2343  124C  0CF6               	rrf	___wmul@multiplier+1,f
  2344  124D  0CF5               	rrf	___wmul@multiplier,f
  2345  124E  3EFF               	addlw	-1
  2346  124F  1D03               	skipz
  2347  1250  2A4B               	goto	u4115
  2348  1251                     l2806:
  2349  1251  0875               	movf	___wmul@multiplier,w
  2350  1252  0476               	iorwf	___wmul@multiplier+1,w
  2351  1253  1D03               	btfss	3,2
  2352  1254  2A56               	goto	u4121
  2353  1255  2A57               	goto	u4120
  2354  1256                     u4121:
  2355  1256  2A39               	goto	l2800
  2356  1257                     u4120:
  2357  1257                     l2808:
  2358  1257  087A               	movf	___wmul@product+1,w
  2359  1258  00F6               	movwf	?___wmul+1
  2360  1259  0879               	movf	___wmul@product,w
  2361  125A  00F5               	movwf	?___wmul
  2362  125B                     l348:
  2363  125B  0008               	return
  2364  125C                     __end_of___wmul:
  2365                           
  2366                           	psect	text3
  2367  0815                     __ptext3:	
  2368 ;; *************** function ___flsub *****************
  2369 ;; Defined at:
  2370 ;;		line 242 in file "C:\Program Files\Microchip\xc8\v2.32\pic\sources\c90\common\sprcadd.c"
  2371 ;; Parameters:    Size  Location     Type
  2372 ;;  a               4    0[BANK1 ] unsigned int 
  2373 ;;  b               4    4[BANK1 ] unsigned int 
  2374 ;; Auto vars:     Size  Location     Type
  2375 ;;		None
  2376 ;; Return value:  Size  Location     Type
  2377 ;;                  4    0[BANK1 ] unsigned int 
  2378 ;; Registers used:
  2379 ;;		wreg, status,2, status,0, btemp+1, pclath, cstack
  2380 ;; Tracked objects:
  2381 ;;		On entry : 0/0
  2382 ;;		On exit  : 0/0
  2383 ;;		Unchanged: 0/0
  2384 ;; Data sizes:     COMMON   BANK0   BANK1   BANK3   BANK2
  2385 ;;      Params:         0       0       8       0       0
  2386 ;;      Locals:         0       0       0       0       0
  2387 ;;      Temps:          0       0       0       0       0
  2388 ;;      Totals:         0       0       8       0       0
  2389 ;;Total ram usage:        8 bytes
  2390 ;; Hardware stack levels used: 1
  2391 ;; Hardware stack levels required when called: 1
  2392 ;; This function calls:
  2393 ;;		___fladd
  2394 ;; This function is called by:
  2395 ;;		_realizarCalculo
  2396 ;;		_controlarValores
  2397 ;; This function uses a non-reentrant model
  2398 ;;
  2399                           
  2400                           
  2401                           ;psect for function ___flsub
  2402  0815                     ___flsub:
  2403  0815                     l2856:	
  2404                           ;incstack = 0
  2405                           ; Regs used in ___flsub: [wreg+status,2+status,0+btemp+1+pclath+cstack]
  2406                           
  2407  0815  3080               	movlw	128
  2408  0816  1683               	bsf	3,5	;RP0=1, select bank1
  2409  0817  1303               	bcf	3,6	;RP1=0, select bank1
  2410  0818  06A3               	xorwf	(___flsub@a+3)^(0+128),f
  2411  0819                     l2858:
  2412  0819  0827               	movf	(___flsub@b+3)^(0+128),w
  2413  081A  1283               	bcf	3,5	;RP0=0, select bank0
  2414  081B  1303               	bcf	3,6	;RP1=0, select bank0
  2415  081C  00D9               	movwf	___fladd@b+3
  2416  081D  1683               	bsf	3,5	;RP0=1, select bank1
  2417  081E  1303               	bcf	3,6	;RP1=0, select bank1
  2418  081F  0826               	movf	(___flsub@b+2)^(0+128),w
  2419  0820  1283               	bcf	3,5	;RP0=0, select bank0
  2420  0821  1303               	bcf	3,6	;RP1=0, select bank0
  2421  0822  00D8               	movwf	___fladd@b+2
  2422  0823  1683               	bsf	3,5	;RP0=1, select bank1
  2423  0824  1303               	bcf	3,6	;RP1=0, select bank1
  2424  0825  0825               	movf	(___flsub@b+1)^(0+128),w
  2425  0826  1283               	bcf	3,5	;RP0=0, select bank0
  2426  0827  1303               	bcf	3,6	;RP1=0, select bank0
  2427  0828  00D7               	movwf	___fladd@b+1
  2428  0829  1683               	bsf	3,5	;RP0=1, select bank1
  2429  082A  1303               	bcf	3,6	;RP1=0, select bank1
  2430  082B  0824               	movf	___flsub@b^(0+128),w
  2431  082C  1283               	bcf	3,5	;RP0=0, select bank0
  2432  082D  1303               	bcf	3,6	;RP1=0, select bank0
  2433  082E  00D6               	movwf	___fladd@b
  2434  082F  1683               	bsf	3,5	;RP0=1, select bank1
  2435  0830  1303               	bcf	3,6	;RP1=0, select bank1
  2436  0831  0823               	movf	(___flsub@a+3)^(0+128),w
  2437  0832  1283               	bcf	3,5	;RP0=0, select bank0
  2438  0833  1303               	bcf	3,6	;RP1=0, select bank0
  2439  0834  00DD               	movwf	___fladd@a+3
  2440  0835  1683               	bsf	3,5	;RP0=1, select bank1
  2441  0836  1303               	bcf	3,6	;RP1=0, select bank1
  2442  0837  0822               	movf	(___flsub@a+2)^(0+128),w
  2443  0838  1283               	bcf	3,5	;RP0=0, select bank0
  2444  0839  1303               	bcf	3,6	;RP1=0, select bank0
  2445  083A  00DC               	movwf	___fladd@a+2
  2446  083B  1683               	bsf	3,5	;RP0=1, select bank1
  2447  083C  1303               	bcf	3,6	;RP1=0, select bank1
  2448  083D  0821               	movf	(___flsub@a+1)^(0+128),w
  2449  083E  1283               	bcf	3,5	;RP0=0, select bank0
  2450  083F  1303               	bcf	3,6	;RP1=0, select bank0
  2451  0840  00DB               	movwf	___fladd@a+1
  2452  0841  1683               	bsf	3,5	;RP0=1, select bank1
  2453  0842  1303               	bcf	3,6	;RP1=0, select bank1
  2454  0843  0820               	movf	___flsub@a^(0+128),w
  2455  0844  1283               	bcf	3,5	;RP0=0, select bank0
  2456  0845  1303               	bcf	3,6	;RP1=0, select bank0
  2457  0846  00DA               	movwf	___fladd@a
  2458  0847  120A  158A  2578  120A  158A  	fcall	___fladd
  2459  084C  1283               	bcf	3,5	;RP0=0, select bank0
  2460  084D  1303               	bcf	3,6	;RP1=0, select bank0
  2461  084E  0859               	movf	?___fladd+3,w
  2462  084F  1683               	bsf	3,5	;RP0=1, select bank1
  2463  0850  1303               	bcf	3,6	;RP1=0, select bank1
  2464  0851  00A3               	movwf	(?___flsub+3)^(0+128)
  2465  0852  1283               	bcf	3,5	;RP0=0, select bank0
  2466  0853  1303               	bcf	3,6	;RP1=0, select bank0
  2467  0854  0858               	movf	?___fladd+2,w
  2468  0855  1683               	bsf	3,5	;RP0=1, select bank1
  2469  0856  1303               	bcf	3,6	;RP1=0, select bank1
  2470  0857  00A2               	movwf	(?___flsub+2)^(0+128)
  2471  0858  1283               	bcf	3,5	;RP0=0, select bank0
  2472  0859  1303               	bcf	3,6	;RP1=0, select bank0
  2473  085A  0857               	movf	?___fladd+1,w
  2474  085B  1683               	bsf	3,5	;RP0=1, select bank1
  2475  085C  1303               	bcf	3,6	;RP1=0, select bank1
  2476  085D  00A1               	movwf	(?___flsub+1)^(0+128)
  2477  085E  1283               	bcf	3,5	;RP0=0, select bank0
  2478  085F  1303               	bcf	3,6	;RP1=0, select bank0
  2479  0860  0856               	movf	?___fladd,w
  2480  0861  1683               	bsf	3,5	;RP0=1, select bank1
  2481  0862  1303               	bcf	3,6	;RP1=0, select bank1
  2482  0863  00A0               	movwf	?___flsub^(0+128)
  2483  0864                     l685:
  2484  0864  0008               	return
  2485  0865                     __end_of___flsub:
  2486                           
  2487                           	psect	text4
  2488  0D78                     __ptext4:	
  2489 ;; *************** function ___fladd *****************
  2490 ;; Defined at:
  2491 ;;		line 10 in file "C:\Program Files\Microchip\xc8\v2.32\pic\sources\c90\common\sprcadd.c"
  2492 ;; Parameters:    Size  Location     Type
  2493 ;;  b               4   54[BANK0 ] unsigned int 
  2494 ;;  a               4   58[BANK0 ] unsigned int 
  2495 ;; Auto vars:     Size  Location     Type
  2496 ;;  grs             1   73[BANK0 ] unsigned char 
  2497 ;;  bexp            1   72[BANK0 ] unsigned char 
  2498 ;;  aexp            1   71[BANK0 ] unsigned char 
  2499 ;;  signs           1   70[BANK0 ] unsigned char 
  2500 ;; Return value:  Size  Location     Type
  2501 ;;                  4   54[BANK0 ] unsigned char 
  2502 ;; Registers used:
  2503 ;;		wreg, status,2, status,0, btemp+1
  2504 ;; Tracked objects:
  2505 ;;		On entry : 0/0
  2506 ;;		On exit  : 0/0
  2507 ;;		Unchanged: 0/0
  2508 ;; Data sizes:     COMMON   BANK0   BANK1   BANK3   BANK2
  2509 ;;      Params:         0       8       0       0       0
  2510 ;;      Locals:         0       4       0       0       0
  2511 ;;      Temps:          0       8       0       0       0
  2512 ;;      Totals:         0      20       0       0       0
  2513 ;;Total ram usage:       20 bytes
  2514 ;; Hardware stack levels used: 1
  2515 ;; This function calls:
  2516 ;;		Nothing
  2517 ;; This function is called by:
  2518 ;;		_realizarCalculo
  2519 ;;		___flsub
  2520 ;;		_controlarValores
  2521 ;; This function uses a non-reentrant model
  2522 ;;
  2523                           
  2524                           
  2525                           ;psect for function ___fladd
  2526  0D78                     ___fladd:
  2527  0D78                     l2204:	
  2528                           ;incstack = 0
  2529                           ; Regs used in ___fladd: [wreg+status,2+status,0+btemp+1]
  2530                           
  2531  0D78  1283               	bcf	3,5	;RP0=0, select bank0
  2532  0D79  1303               	bcf	3,6	;RP1=0, select bank0
  2533  0D7A  0859               	movf	___fladd@b+3,w
  2534  0D7B  3980               	andlw	128
  2535  0D7C  00DE               	movwf	??___fladd
  2536  0D7D  085E               	movf	??___fladd,w
  2537  0D7E  00E6               	movwf	___fladd@signs
  2538  0D7F                     l2206:
  2539  0D7F  0859               	movf	___fladd@b+3,w
  2540  0D80  00DE               	movwf	??___fladd
  2541  0D81  075E               	addwf	??___fladd,w
  2542  0D82  00DF               	movwf	??___fladd+1
  2543  0D83  085F               	movf	??___fladd+1,w
  2544  0D84  00E8               	movwf	___fladd@bexp
  2545  0D85                     l2208:
  2546  0D85  1FD8               	btfss	___fladd@b+2,7
  2547  0D86  2D88               	goto	u2671
  2548  0D87  2D89               	goto	u2670
  2549  0D88                     u2671:
  2550  0D88  2D8A               	goto	l2212
  2551  0D89                     u2670:
  2552  0D89                     l2210:
  2553  0D89  1468               	bsf	___fladd@bexp,0
  2554  0D8A                     l2212:
  2555  0D8A  0868               	movf	___fladd@bexp,w
  2556  0D8B  1903               	btfsc	3,2
  2557  0D8C  2D8E               	goto	u2681
  2558  0D8D  2D8F               	goto	u2680
  2559  0D8E                     u2681:
  2560  0D8E  2D9F               	goto	l2222
  2561  0D8F                     u2680:
  2562  0D8F                     l2214:
  2563  0D8F  0A68               	incf	___fladd@bexp,w
  2564  0D90  1D03               	btfss	3,2
  2565  0D91  2D93               	goto	u2691
  2566  0D92  2D94               	goto	u2690
  2567  0D93                     u2691:
  2568  0D93  2D9C               	goto	l2218
  2569  0D94                     u2690:
  2570  0D94                     l2216:
  2571  0D94  3000               	movlw	0
  2572  0D95  00D9               	movwf	___fladd@b+3
  2573  0D96  3000               	movlw	0
  2574  0D97  00D8               	movwf	___fladd@b+2
  2575  0D98  3000               	movlw	0
  2576  0D99  00D7               	movwf	___fladd@b+1
  2577  0D9A  3000               	movlw	0
  2578  0D9B  00D6               	movwf	___fladd@b
  2579  0D9C                     l2218:
  2580  0D9C  17D8               	bsf	___fladd@b+2,7
  2581  0D9D                     l2220:
  2582  0D9D  01D9               	clrf	___fladd@b+3
  2583  0D9E  2DA7               	goto	l2224
  2584  0D9F                     l2222:
  2585  0D9F  3000               	movlw	0
  2586  0DA0  00D9               	movwf	___fladd@b+3
  2587  0DA1  3000               	movlw	0
  2588  0DA2  00D8               	movwf	___fladd@b+2
  2589  0DA3  3000               	movlw	0
  2590  0DA4  00D7               	movwf	___fladd@b+1
  2591  0DA5  3000               	movlw	0
  2592  0DA6  00D6               	movwf	___fladd@b
  2593  0DA7                     l2224:
  2594  0DA7  085D               	movf	___fladd@a+3,w
  2595  0DA8  3980               	andlw	128
  2596  0DA9  00DE               	movwf	??___fladd
  2597  0DAA  085E               	movf	??___fladd,w
  2598  0DAB  00E7               	movwf	___fladd@aexp
  2599  0DAC                     l2226:
  2600  0DAC  0867               	movf	___fladd@aexp,w
  2601  0DAD  0666               	xorwf	___fladd@signs,w
  2602  0DAE  1903               	skipnz
  2603  0DAF  2DB1               	goto	u2701
  2604  0DB0  2DB2               	goto	u2700
  2605  0DB1                     u2701:
  2606  0DB1  2DB3               	goto	l2230
  2607  0DB2                     u2700:
  2608  0DB2                     l2228:
  2609  0DB2  1766               	bsf	___fladd@signs,6
  2610  0DB3                     l2230:
  2611  0DB3  085D               	movf	___fladd@a+3,w
  2612  0DB4  00DE               	movwf	??___fladd
  2613  0DB5  075E               	addwf	??___fladd,w
  2614  0DB6  00DF               	movwf	??___fladd+1
  2615  0DB7  085F               	movf	??___fladd+1,w
  2616  0DB8  00E7               	movwf	___fladd@aexp
  2617  0DB9                     l2232:
  2618  0DB9  1FDC               	btfss	___fladd@a+2,7
  2619  0DBA  2DBC               	goto	u2711
  2620  0DBB  2DBD               	goto	u2710
  2621  0DBC                     u2711:
  2622  0DBC  2DBE               	goto	l2236
  2623  0DBD                     u2710:
  2624  0DBD                     l2234:
  2625  0DBD  1467               	bsf	___fladd@aexp,0
  2626  0DBE                     l2236:
  2627  0DBE  0867               	movf	___fladd@aexp,w
  2628  0DBF  1903               	btfsc	3,2
  2629  0DC0  2DC2               	goto	u2721
  2630  0DC1  2DC3               	goto	u2720
  2631  0DC2                     u2721:
  2632  0DC2  2DD3               	goto	l2246
  2633  0DC3                     u2720:
  2634  0DC3                     l2238:
  2635  0DC3  0A67               	incf	___fladd@aexp,w
  2636  0DC4  1D03               	btfss	3,2
  2637  0DC5  2DC7               	goto	u2731
  2638  0DC6  2DC8               	goto	u2730
  2639  0DC7                     u2731:
  2640  0DC7  2DD0               	goto	l2242
  2641  0DC8                     u2730:
  2642  0DC8                     l2240:
  2643  0DC8  3000               	movlw	0
  2644  0DC9  00DD               	movwf	___fladd@a+3
  2645  0DCA  3000               	movlw	0
  2646  0DCB  00DC               	movwf	___fladd@a+2
  2647  0DCC  3000               	movlw	0
  2648  0DCD  00DB               	movwf	___fladd@a+1
  2649  0DCE  3000               	movlw	0
  2650  0DCF  00DA               	movwf	___fladd@a
  2651  0DD0                     l2242:
  2652  0DD0  17DC               	bsf	___fladd@a+2,7
  2653  0DD1                     l2244:
  2654  0DD1  01DD               	clrf	___fladd@a+3
  2655  0DD2  2DDB               	goto	l639
  2656  0DD3                     l2246:
  2657  0DD3  3000               	movlw	0
  2658  0DD4  00DD               	movwf	___fladd@a+3
  2659  0DD5  3000               	movlw	0
  2660  0DD6  00DC               	movwf	___fladd@a+2
  2661  0DD7  3000               	movlw	0
  2662  0DD8  00DB               	movwf	___fladd@a+1
  2663  0DD9  3000               	movlw	0
  2664  0DDA  00DA               	movwf	___fladd@a
  2665  0DDB                     l639:
  2666  0DDB  0868               	movf	___fladd@bexp,w
  2667  0DDC  0267               	subwf	___fladd@aexp,w
  2668  0DDD  1803               	skipnc
  2669  0DDE  2DE0               	goto	u2741
  2670  0DDF  2DE1               	goto	u2740
  2671  0DE0                     u2741:
  2672  0DE0  2E25               	goto	l2282
  2673  0DE1                     u2740:
  2674  0DE1                     l2248:
  2675  0DE1  1F66               	btfss	___fladd@signs,6
  2676  0DE2  2DE4               	goto	u2751
  2677  0DE3  2DE5               	goto	u2750
  2678  0DE4                     u2751:
  2679  0DE4  2DE9               	goto	l2252
  2680  0DE5                     u2750:
  2681  0DE5                     l2250:
  2682  0DE5  3080               	movlw	128
  2683  0DE6  00DE               	movwf	??___fladd
  2684  0DE7  085E               	movf	??___fladd,w
  2685  0DE8  06E6               	xorwf	___fladd@signs,f
  2686  0DE9                     l2252:
  2687  0DE9  0868               	movf	___fladd@bexp,w
  2688  0DEA  00DE               	movwf	??___fladd
  2689  0DEB  085E               	movf	??___fladd,w
  2690  0DEC  00E9               	movwf	___fladd@grs
  2691  0DED                     l2254:
  2692  0DED  0867               	movf	___fladd@aexp,w
  2693  0DEE  00DE               	movwf	??___fladd
  2694  0DEF  085E               	movf	??___fladd,w
  2695  0DF0  00E8               	movwf	___fladd@bexp
  2696  0DF1                     l2256:
  2697  0DF1  0869               	movf	___fladd@grs,w
  2698  0DF2  00DE               	movwf	??___fladd
  2699  0DF3  085E               	movf	??___fladd,w
  2700  0DF4  00E7               	movwf	___fladd@aexp
  2701  0DF5                     l2258:
  2702  0DF5  0856               	movf	___fladd@b,w
  2703  0DF6  00DE               	movwf	??___fladd
  2704  0DF7  085E               	movf	??___fladd,w
  2705  0DF8  00E9               	movwf	___fladd@grs
  2706  0DF9                     l2260:
  2707  0DF9  085A               	movf	___fladd@a,w
  2708  0DFA  00DE               	movwf	??___fladd
  2709  0DFB  085E               	movf	??___fladd,w
  2710  0DFC  00D6               	movwf	___fladd@b
  2711  0DFD                     l2262:
  2712  0DFD  0869               	movf	___fladd@grs,w
  2713  0DFE  00DE               	movwf	??___fladd
  2714  0DFF  085E               	movf	??___fladd,w
  2715  0E00  00DA               	movwf	___fladd@a
  2716  0E01                     l2264:
  2717  0E01  0857               	movf	___fladd@b+1,w
  2718  0E02  00DE               	movwf	??___fladd
  2719  0E03  085E               	movf	??___fladd,w
  2720  0E04  00E9               	movwf	___fladd@grs
  2721  0E05                     l2266:
  2722  0E05  085B               	movf	___fladd@a+1,w
  2723  0E06  00DE               	movwf	??___fladd
  2724  0E07  085E               	movf	??___fladd,w
  2725  0E08  00D7               	movwf	___fladd@b+1
  2726  0E09                     l2268:
  2727  0E09  0869               	movf	___fladd@grs,w
  2728  0E0A  00DE               	movwf	??___fladd
  2729  0E0B  085E               	movf	??___fladd,w
  2730  0E0C  00DB               	movwf	___fladd@a+1
  2731  0E0D                     l2270:
  2732  0E0D  0858               	movf	___fladd@b+2,w
  2733  0E0E  00DE               	movwf	??___fladd
  2734  0E0F  085E               	movf	??___fladd,w
  2735  0E10  00E9               	movwf	___fladd@grs
  2736  0E11                     l2272:
  2737  0E11  085C               	movf	___fladd@a+2,w
  2738  0E12  00DE               	movwf	??___fladd
  2739  0E13  085E               	movf	??___fladd,w
  2740  0E14  00D8               	movwf	___fladd@b+2
  2741  0E15                     l2274:
  2742  0E15  0869               	movf	___fladd@grs,w
  2743  0E16  00DE               	movwf	??___fladd
  2744  0E17  085E               	movf	??___fladd,w
  2745  0E18  00DC               	movwf	___fladd@a+2
  2746  0E19                     l2276:
  2747  0E19  0859               	movf	___fladd@b+3,w
  2748  0E1A  00DE               	movwf	??___fladd
  2749  0E1B  085E               	movf	??___fladd,w
  2750  0E1C  00E9               	movwf	___fladd@grs
  2751  0E1D                     l2278:
  2752  0E1D  085D               	movf	___fladd@a+3,w
  2753  0E1E  00DE               	movwf	??___fladd
  2754  0E1F  085E               	movf	??___fladd,w
  2755  0E20  00D9               	movwf	___fladd@b+3
  2756  0E21                     l2280:
  2757  0E21  0869               	movf	___fladd@grs,w
  2758  0E22  00DE               	movwf	??___fladd
  2759  0E23  085E               	movf	??___fladd,w
  2760  0E24  00DD               	movwf	___fladd@a+3
  2761  0E25                     l2282:
  2762  0E25  01E9               	clrf	___fladd@grs
  2763  0E26                     l2284:
  2764  0E26  0867               	movf	___fladd@aexp,w
  2765  0E27  00DE               	movwf	??___fladd
  2766  0E28  01DF               	clrf	??___fladd+1
  2767  0E29  085F               	movf	??___fladd+1,w
  2768  0E2A  00E1               	movwf	??___fladd+3
  2769  0E2B  0868               	movf	___fladd@bexp,w
  2770  0E2C  025E               	subwf	??___fladd,w
  2771  0E2D  00E0               	movwf	??___fladd+2
  2772  0E2E  1C03               	skipc
  2773  0E2F  03E1               	decf	??___fladd+3,f
  2774  0E30  0861               	movf	??___fladd+3,w
  2775  0E31  3A80               	xorlw	128
  2776  0E32  00FF               	movwf	btemp+1
  2777  0E33  3080               	movlw	128
  2778  0E34  027F               	subwf	btemp+1,w
  2779  0E35  1D03               	skipz
  2780  0E36  2E39               	goto	u2765
  2781  0E37  301A               	movlw	26
  2782  0E38  0260               	subwf	??___fladd+2,w
  2783  0E39                     u2765:
  2784  0E39  1C03               	skipc
  2785  0E3A  2E3C               	goto	u2761
  2786  0E3B  2E3D               	goto	u2760
  2787  0E3C                     u2761:
  2788  0E3C  2E7A               	goto	l2300
  2789  0E3D                     u2760:
  2790  0E3D                     l2286:
  2791  0E3D  1283               	bcf	3,5	;RP0=0, select bank0
  2792  0E3E  1303               	bcf	3,6	;RP1=0, select bank0
  2793  0E3F  0859               	movf	___fladd@b+3,w
  2794  0E40  0458               	iorwf	___fladd@b+2,w
  2795  0E41  0457               	iorwf	___fladd@b+1,w
  2796  0E42  0456               	iorwf	___fladd@b,w
  2797  0E43  1D03               	skipz
  2798  0E44  2E46               	goto	u2771
  2799  0E45  2E48               	goto	u2770
  2800  0E46                     u2771:
  2801  0E46  3001               	movlw	1
  2802  0E47  2E49               	goto	u2780
  2803  0E48                     u2770:
  2804  0E48  3000               	movlw	0
  2805  0E49                     u2780:
  2806  0E49  00DE               	movwf	??___fladd
  2807  0E4A  085E               	movf	??___fladd,w
  2808  0E4B  00E9               	movwf	___fladd@grs
  2809  0E4C  3000               	movlw	0
  2810  0E4D  00D9               	movwf	___fladd@b+3
  2811  0E4E  3000               	movlw	0
  2812  0E4F  00D8               	movwf	___fladd@b+2
  2813  0E50  3000               	movlw	0
  2814  0E51  00D7               	movwf	___fladd@b+1
  2815  0E52  3000               	movlw	0
  2816  0E53  00D6               	movwf	___fladd@b
  2817  0E54  0867               	movf	___fladd@aexp,w
  2818  0E55  00DE               	movwf	??___fladd
  2819  0E56  085E               	movf	??___fladd,w
  2820  0E57  00E8               	movwf	___fladd@bexp
  2821  0E58  2E82               	goto	l643
  2822  0E59                     l645:
  2823  0E59  1C69               	btfss	___fladd@grs,0
  2824  0E5A  2E5C               	goto	u2791
  2825  0E5B  2E5D               	goto	u2790
  2826  0E5C                     u2791:
  2827  0E5C  2E66               	goto	l2290
  2828  0E5D                     u2790:
  2829  0E5D                     l2288:
  2830  0E5D  0869               	movf	___fladd@grs,w
  2831  0E5E  00DE               	movwf	??___fladd
  2832  0E5F  1003               	clrc
  2833  0E60  0C5E               	rrf	??___fladd,w
  2834  0E61  3801               	iorlw	1
  2835  0E62  00DF               	movwf	??___fladd+1
  2836  0E63  085F               	movf	??___fladd+1,w
  2837  0E64  00E9               	movwf	___fladd@grs
  2838  0E65  2E68               	goto	l2292
  2839  0E66                     l2290:
  2840  0E66  1003               	clrc
  2841  0E67  0CE9               	rrf	___fladd@grs,f
  2842  0E68                     l2292:
  2843  0E68  1C56               	btfss	___fladd@b,0
  2844  0E69  2E6B               	goto	u2801
  2845  0E6A  2E6C               	goto	u2800
  2846  0E6B                     u2801:
  2847  0E6B  2E6D               	goto	l2296
  2848  0E6C                     u2800:
  2849  0E6C                     l2294:
  2850  0E6C  17E9               	bsf	___fladd@grs,7
  2851  0E6D                     l2296:
  2852  0E6D  3001               	movlw	1
  2853  0E6E  00DE               	movwf	??___fladd
  2854  0E6F                     u2815:
  2855  0E6F  0D59               	rlf	___fladd@b+3,w
  2856  0E70  0CD9               	rrf	___fladd@b+3,f
  2857  0E71  0CD8               	rrf	___fladd@b+2,f
  2858  0E72  0CD7               	rrf	___fladd@b+1,f
  2859  0E73  0CD6               	rrf	___fladd@b,f
  2860  0E74  0BDE               	decfsz	??___fladd& (0+127),f
  2861  0E75  2E6F               	goto	u2815
  2862  0E76                     l2298:
  2863  0E76  3001               	movlw	1
  2864  0E77  00DE               	movwf	??___fladd
  2865  0E78  085E               	movf	??___fladd,w
  2866  0E79  07E8               	addwf	___fladd@bexp,f
  2867  0E7A                     l2300:
  2868  0E7A  1283               	bcf	3,5	;RP0=0, select bank0
  2869  0E7B  1303               	bcf	3,6	;RP1=0, select bank0
  2870  0E7C  0867               	movf	___fladd@aexp,w
  2871  0E7D  0268               	subwf	___fladd@bexp,w
  2872  0E7E  1C03               	skipc
  2873  0E7F  2E81               	goto	u2821
  2874  0E80  2E82               	goto	u2820
  2875  0E81                     u2821:
  2876  0E81  2E59               	goto	l645
  2877  0E82                     u2820:
  2878  0E82                     l643:
  2879  0E82  1B66               	btfsc	___fladd@signs,6
  2880  0E83  2E85               	goto	u2831
  2881  0E84  2E86               	goto	u2830
  2882  0E85                     u2831:
  2883  0E85  2ED1               	goto	l2326
  2884  0E86                     u2830:
  2885  0E86                     l2302:
  2886  0E86  0868               	movf	___fladd@bexp,w
  2887  0E87  1D03               	btfss	3,2
  2888  0E88  2E8A               	goto	u2841
  2889  0E89  2E8B               	goto	u2840
  2890  0E8A                     u2841:
  2891  0E8A  2E94               	goto	l2308
  2892  0E8B                     u2840:
  2893  0E8B                     l2304:
  2894  0E8B  3000               	movlw	0
  2895  0E8C  00D9               	movwf	?___fladd+3
  2896  0E8D  3000               	movlw	0
  2897  0E8E  00D8               	movwf	?___fladd+2
  2898  0E8F  3000               	movlw	0
  2899  0E90  00D7               	movwf	?___fladd+1
  2900  0E91  3000               	movlw	0
  2901  0E92  00D6               	movwf	?___fladd
  2902  0E93  2FFF               	goto	l652
  2903  0E94                     l2308:
  2904  0E94  085A               	movf	___fladd@a,w
  2905  0E95  07D6               	addwf	___fladd@b,f
  2906  0E96  085B               	movf	___fladd@a+1,w
  2907  0E97  1103               	clrz
  2908  0E98  1803               	skipnc
  2909  0E99  3E01               	addlw	1
  2910  0E9A  1903               	skipnz
  2911  0E9B  2E9D               	goto	u2851
  2912  0E9C  07D7               	addwf	___fladd@b+1,f
  2913  0E9D                     u2851:
  2914  0E9D  085C               	movf	___fladd@a+2,w
  2915  0E9E  1103               	clrz
  2916  0E9F  1803               	skipnc
  2917  0EA0  3E01               	addlw	1
  2918  0EA1  1903               	skipnz
  2919  0EA2  2EA4               	goto	u2852
  2920  0EA3  07D8               	addwf	___fladd@b+2,f
  2921  0EA4                     u2852:
  2922  0EA4  085D               	movf	___fladd@a+3,w
  2923  0EA5  1103               	clrz
  2924  0EA6  1803               	skipnc
  2925  0EA7  3E01               	addlw	1
  2926  0EA8  1903               	skipnz
  2927  0EA9  2EAB               	goto	u2853
  2928  0EAA  07D9               	addwf	___fladd@b+3,f
  2929  0EAB                     u2853:
  2930  0EAB                     l2310:
  2931  0EAB  1C59               	btfss	___fladd@b+3,0
  2932  0EAC  2EAE               	goto	u2861
  2933  0EAD  2EAF               	goto	u2860
  2934  0EAE                     u2861:
  2935  0EAE  2F85               	goto	l2360
  2936  0EAF                     u2860:
  2937  0EAF                     l2312:
  2938  0EAF  1C69               	btfss	___fladd@grs,0
  2939  0EB0  2EB2               	goto	u2871
  2940  0EB1  2EB3               	goto	u2870
  2941  0EB2                     u2871:
  2942  0EB2  2EBC               	goto	l2316
  2943  0EB3                     u2870:
  2944  0EB3                     l2314:
  2945  0EB3  0869               	movf	___fladd@grs,w
  2946  0EB4  00DE               	movwf	??___fladd
  2947  0EB5  1003               	clrc
  2948  0EB6  0C5E               	rrf	??___fladd,w
  2949  0EB7  3801               	iorlw	1
  2950  0EB8  00DF               	movwf	??___fladd+1
  2951  0EB9  085F               	movf	??___fladd+1,w
  2952  0EBA  00E9               	movwf	___fladd@grs
  2953  0EBB  2EBE               	goto	l2318
  2954  0EBC                     l2316:
  2955  0EBC  1003               	clrc
  2956  0EBD  0CE9               	rrf	___fladd@grs,f
  2957  0EBE                     l2318:
  2958  0EBE  1C56               	btfss	___fladd@b,0
  2959  0EBF  2EC1               	goto	u2881
  2960  0EC0  2EC2               	goto	u2880
  2961  0EC1                     u2881:
  2962  0EC1  2EC3               	goto	l2322
  2963  0EC2                     u2880:
  2964  0EC2                     l2320:
  2965  0EC2  17E9               	bsf	___fladd@grs,7
  2966  0EC3                     l2322:
  2967  0EC3  3001               	movlw	1
  2968  0EC4  00DE               	movwf	??___fladd
  2969  0EC5                     u2895:
  2970  0EC5  0D59               	rlf	___fladd@b+3,w
  2971  0EC6  0CD9               	rrf	___fladd@b+3,f
  2972  0EC7  0CD8               	rrf	___fladd@b+2,f
  2973  0EC8  0CD7               	rrf	___fladd@b+1,f
  2974  0EC9  0CD6               	rrf	___fladd@b,f
  2975  0ECA  0BDE               	decfsz	??___fladd& (0+127),f
  2976  0ECB  2EC5               	goto	u2895
  2977  0ECC                     l2324:
  2978  0ECC  3001               	movlw	1
  2979  0ECD  00DE               	movwf	??___fladd
  2980  0ECE  085E               	movf	??___fladd,w
  2981  0ECF  07E8               	addwf	___fladd@bexp,f
  2982  0ED0  2F85               	goto	l2360
  2983  0ED1                     l2326:
  2984  0ED1  0859               	movf	___fladd@b+3,w
  2985  0ED2  3A80               	xorlw	128
  2986  0ED3  00FF               	movwf	btemp+1
  2987  0ED4  085D               	movf	___fladd@a+3,w
  2988  0ED5  3A80               	xorlw	128
  2989  0ED6  027F               	subwf	btemp+1,w
  2990  0ED7  1D03               	skipz
  2991  0ED8  2EE3               	goto	u2903
  2992  0ED9  085C               	movf	___fladd@a+2,w
  2993  0EDA  0258               	subwf	___fladd@b+2,w
  2994  0EDB  1D03               	skipz
  2995  0EDC  2EE3               	goto	u2903
  2996  0EDD  085B               	movf	___fladd@a+1,w
  2997  0EDE  0257               	subwf	___fladd@b+1,w
  2998  0EDF  1D03               	skipz
  2999  0EE0  2EE3               	goto	u2903
  3000  0EE1  085A               	movf	___fladd@a,w
  3001  0EE2  0256               	subwf	___fladd@b,w
  3002  0EE3                     u2903:
  3003  0EE3  1803               	skipnc
  3004  0EE4  2EE6               	goto	u2901
  3005  0EE5  2EE7               	goto	u2900
  3006  0EE6                     u2901:
  3007  0EE6  2F3F               	goto	l2336
  3008  0EE7                     u2900:
  3009  0EE7                     l2328:
  3010  0EE7  30FF               	movlw	255
  3011  0EE8  00DE               	movwf	??___fladd
  3012  0EE9  30FF               	movlw	255
  3013  0EEA  00DF               	movwf	??___fladd+1
  3014  0EEB  30FF               	movlw	255
  3015  0EEC  00E0               	movwf	??___fladd+2
  3016  0EED  30FF               	movlw	255
  3017  0EEE  00E1               	movwf	??___fladd+3
  3018  0EEF  085A               	movf	___fladd@a,w
  3019  0EF0  00E2               	movwf	??___fladd+4
  3020  0EF1  085B               	movf	___fladd@a+1,w
  3021  0EF2  00E3               	movwf	??___fladd+5
  3022  0EF3  085C               	movf	___fladd@a+2,w
  3023  0EF4  00E4               	movwf	??___fladd+6
  3024  0EF5  085D               	movf	___fladd@a+3,w
  3025  0EF6  00E5               	movwf	??___fladd+7
  3026  0EF7  0856               	movf	___fladd@b,w
  3027  0EF8  02E2               	subwf	??___fladd+4,f
  3028  0EF9  0857               	movf	___fladd@b+1,w
  3029  0EFA  1C03               	skipc
  3030  0EFB  0F57               	incfsz	___fladd@b+1,w
  3031  0EFC  2EFE               	goto	u2911
  3032  0EFD  2EFF               	goto	u2912
  3033  0EFE                     u2911:
  3034  0EFE  02E3               	subwf	??___fladd+5,f
  3035  0EFF                     u2912:
  3036  0EFF  0858               	movf	___fladd@b+2,w
  3037  0F00  1C03               	skipc
  3038  0F01  0F58               	incfsz	___fladd@b+2,w
  3039  0F02  2F04               	goto	u2913
  3040  0F03  2F05               	goto	u2914
  3041  0F04                     u2913:
  3042  0F04  02E4               	subwf	??___fladd+6,f
  3043  0F05                     u2914:
  3044  0F05  0859               	movf	___fladd@b+3,w
  3045  0F06  1C03               	skipc
  3046  0F07  0F59               	incfsz	___fladd@b+3,w
  3047  0F08  2F0A               	goto	u2915
  3048  0F09  2F0B               	goto	u2916
  3049  0F0A                     u2915:
  3050  0F0A  02E5               	subwf	??___fladd+7,f
  3051  0F0B                     u2916:
  3052  0F0B  0862               	movf	??___fladd+4,w
  3053  0F0C  07DE               	addwf	??___fladd,f
  3054  0F0D  0863               	movf	??___fladd+5,w
  3055  0F0E  1803               	skipnc
  3056  0F0F  0F63               	incfsz	??___fladd+5,w
  3057  0F10  2F12               	goto	u2920
  3058  0F11  2F13               	goto	u2921
  3059  0F12                     u2920:
  3060  0F12  07DF               	addwf	??___fladd+1,f
  3061  0F13                     u2921:
  3062  0F13  0864               	movf	??___fladd+6,w
  3063  0F14  1803               	skipnc
  3064  0F15  0F64               	incfsz	??___fladd+6,w
  3065  0F16  2F18               	goto	u2922
  3066  0F17  2F19               	goto	u2923
  3067  0F18                     u2922:
  3068  0F18  07E0               	addwf	??___fladd+2,f
  3069  0F19                     u2923:
  3070  0F19  0865               	movf	??___fladd+7,w
  3071  0F1A  1803               	skipnc
  3072  0F1B  0A65               	incf	??___fladd+7,w
  3073  0F1C  07E1               	addwf	??___fladd+3,f
  3074  0F1D  0861               	movf	??___fladd+3,w
  3075  0F1E  00D9               	movwf	___fladd@b+3
  3076  0F1F  0860               	movf	??___fladd+2,w
  3077  0F20  00D8               	movwf	___fladd@b+2
  3078  0F21  085F               	movf	??___fladd+1,w
  3079  0F22  00D7               	movwf	___fladd@b+1
  3080  0F23  085E               	movf	??___fladd,w
  3081  0F24  00D6               	movwf	___fladd@b
  3082  0F25                     l2330:
  3083  0F25  3080               	movlw	128
  3084  0F26  00DE               	movwf	??___fladd
  3085  0F27  085E               	movf	??___fladd,w
  3086  0F28  06E6               	xorwf	___fladd@signs,f
  3087  0F29  09E9               	comf	___fladd@grs,f
  3088  0F2A  0AE9               	incf	___fladd@grs,f
  3089  0F2B                     l2332:
  3090  0F2B  0869               	movf	___fladd@grs,w
  3091  0F2C  1D03               	btfss	3,2
  3092  0F2D  2F2F               	goto	u2931
  3093  0F2E  2F30               	goto	u2930
  3094  0F2F                     u2931:
  3095  0F2F  2F4D               	goto	l660
  3096  0F30                     u2930:
  3097  0F30                     l2334:
  3098  0F30  3001               	movlw	1
  3099  0F31  07D6               	addwf	___fladd@b,f
  3100  0F32  3000               	movlw	0
  3101  0F33  1803               	skipnc
  3102  0F34  3001               	movlw	1
  3103  0F35  07D7               	addwf	___fladd@b+1,f
  3104  0F36  3000               	movlw	0
  3105  0F37  1803               	skipnc
  3106  0F38  3001               	movlw	1
  3107  0F39  07D8               	addwf	___fladd@b+2,f
  3108  0F3A  3000               	movlw	0
  3109  0F3B  1803               	skipnc
  3110  0F3C  3001               	movlw	1
  3111  0F3D  07D9               	addwf	___fladd@b+3,f
  3112  0F3E  2F4D               	goto	l660
  3113  0F3F                     l2336:
  3114  0F3F  085A               	movf	___fladd@a,w
  3115  0F40  02D6               	subwf	___fladd@b,f
  3116  0F41  085B               	movf	___fladd@a+1,w
  3117  0F42  1C03               	skipc
  3118  0F43  0F5B               	incfsz	___fladd@a+1,w
  3119  0F44  02D7               	subwf	___fladd@b+1,f
  3120  0F45  085C               	movf	___fladd@a+2,w
  3121  0F46  1C03               	skipc
  3122  0F47  0F5C               	incfsz	___fladd@a+2,w
  3123  0F48  02D8               	subwf	___fladd@b+2,f
  3124  0F49  085D               	movf	___fladd@a+3,w
  3125  0F4A  1C03               	skipc
  3126  0F4B  0F5D               	incfsz	___fladd@a+3,w
  3127  0F4C  02D9               	subwf	___fladd@b+3,f
  3128  0F4D                     l660:
  3129  0F4D  0859               	movf	___fladd@b+3,w
  3130  0F4E  0458               	iorwf	___fladd@b+2,w
  3131  0F4F  0457               	iorwf	___fladd@b+1,w
  3132  0F50  0456               	iorwf	___fladd@b,w
  3133  0F51  1D03               	skipz
  3134  0F52  2F54               	goto	u2941
  3135  0F53  2F55               	goto	u2940
  3136  0F54                     u2941:
  3137  0F54  2F81               	goto	l2358
  3138  0F55                     u2940:
  3139  0F55                     l2338:
  3140  0F55  0869               	movf	___fladd@grs,w
  3141  0F56  1D03               	btfss	3,2
  3142  0F57  2F59               	goto	u2951
  3143  0F58  2F5A               	goto	u2950
  3144  0F59                     u2951:
  3145  0F59  2F81               	goto	l2358
  3146  0F5A                     u2950:
  3147  0F5A                     l2340:
  3148  0F5A  3000               	movlw	0
  3149  0F5B  00D9               	movwf	?___fladd+3
  3150  0F5C  3000               	movlw	0
  3151  0F5D  00D8               	movwf	?___fladd+2
  3152  0F5E  3000               	movlw	0
  3153  0F5F  00D7               	movwf	?___fladd+1
  3154  0F60  3000               	movlw	0
  3155  0F61  00D6               	movwf	?___fladd
  3156  0F62  2FFF               	goto	l652
  3157  0F63                     l2344:
  3158  0F63  3001               	movlw	1
  3159  0F64  00DE               	movwf	??___fladd
  3160  0F65                     u2965:
  3161  0F65  1003               	clrc
  3162  0F66  0DD6               	rlf	___fladd@b,f
  3163  0F67  0DD7               	rlf	___fladd@b+1,f
  3164  0F68  0DD8               	rlf	___fladd@b+2,f
  3165  0F69  0DD9               	rlf	___fladd@b+3,f
  3166  0F6A  0BDE               	decfsz	??___fladd,f
  3167  0F6B  2F65               	goto	u2965
  3168  0F6C                     l2346:
  3169  0F6C  1FE9               	btfss	___fladd@grs,7
  3170  0F6D  2F6F               	goto	u2971
  3171  0F6E  2F70               	goto	u2970
  3172  0F6F                     u2971:
  3173  0F6F  2F71               	goto	l664
  3174  0F70                     u2970:
  3175  0F70                     l2348:
  3176  0F70  1456               	bsf	___fladd@b,0
  3177  0F71                     l664:
  3178  0F71  1C69               	btfss	___fladd@grs,0
  3179  0F72  2F74               	goto	u2981
  3180  0F73  2F75               	goto	u2980
  3181  0F74                     u2981:
  3182  0F74  2F78               	goto	l2352
  3183  0F75                     u2980:
  3184  0F75                     l2350:
  3185  0F75  1403               	setc
  3186  0F76  0DE9               	rlf	___fladd@grs,f
  3187  0F77  2F7A               	goto	l2354
  3188  0F78                     l2352:
  3189  0F78  1003               	clrc
  3190  0F79  0DE9               	rlf	___fladd@grs,f
  3191  0F7A                     l2354:
  3192  0F7A  0868               	movf	___fladd@bexp,w
  3193  0F7B  1903               	btfsc	3,2
  3194  0F7C  2F7E               	goto	u2991
  3195  0F7D  2F7F               	goto	u2990
  3196  0F7E                     u2991:
  3197  0F7E  2F81               	goto	l2358
  3198  0F7F                     u2990:
  3199  0F7F                     l2356:
  3200  0F7F  3001               	movlw	1
  3201  0F80  02E8               	subwf	___fladd@bexp,f
  3202  0F81                     l2358:
  3203  0F81  1FD8               	btfss	___fladd@b+2,7
  3204  0F82  2F84               	goto	u3001
  3205  0F83  2F85               	goto	u3000
  3206  0F84                     u3001:
  3207  0F84  2F63               	goto	l2344
  3208  0F85                     u3000:
  3209  0F85                     l2360:
  3210  0F85  01E7               	clrf	___fladd@aexp
  3211  0F86                     l2362:
  3212  0F86  1FE9               	btfss	___fladd@grs,7
  3213  0F87  2F89               	goto	u3011
  3214  0F88  2F8A               	goto	u3010
  3215  0F89                     u3011:
  3216  0F89  2F98               	goto	l2370
  3217  0F8A                     u3010:
  3218  0F8A                     l2364:
  3219  0F8A  0869               	movf	___fladd@grs,w
  3220  0F8B  397F               	andlw	127
  3221  0F8C  1903               	btfsc	3,2
  3222  0F8D  2F8F               	goto	u3021
  3223  0F8E  2F90               	goto	u3020
  3224  0F8F                     u3021:
  3225  0F8F  2F93               	goto	l670
  3226  0F90                     u3020:
  3227  0F90                     l2366:
  3228  0F90  01E7               	clrf	___fladd@aexp
  3229  0F91  0AE7               	incf	___fladd@aexp,f
  3230  0F92  2F98               	goto	l2370
  3231  0F93                     l670:
  3232  0F93  1C56               	btfss	___fladd@b,0
  3233  0F94  2F96               	goto	u3031
  3234  0F95  2F97               	goto	u3030
  3235  0F96                     u3031:
  3236  0F96  2F98               	goto	l2370
  3237  0F97                     u3030:
  3238  0F97  2F90               	goto	l2366
  3239  0F98                     l2370:
  3240  0F98  0867               	movf	___fladd@aexp,w
  3241  0F99  1903               	btfsc	3,2
  3242  0F9A  2F9C               	goto	u3041
  3243  0F9B  2F9D               	goto	u3040
  3244  0F9C                     u3041:
  3245  0F9C  2FD1               	goto	l673
  3246  0F9D                     u3040:
  3247  0F9D                     l2372:
  3248  0F9D  3001               	movlw	1
  3249  0F9E  07D6               	addwf	___fladd@b,f
  3250  0F9F  3000               	movlw	0
  3251  0FA0  1803               	skipnc
  3252  0FA1  3001               	movlw	1
  3253  0FA2  07D7               	addwf	___fladd@b+1,f
  3254  0FA3  3000               	movlw	0
  3255  0FA4  1803               	skipnc
  3256  0FA5  3001               	movlw	1
  3257  0FA6  07D8               	addwf	___fladd@b+2,f
  3258  0FA7  3000               	movlw	0
  3259  0FA8  1803               	skipnc
  3260  0FA9  3001               	movlw	1
  3261  0FAA  07D9               	addwf	___fladd@b+3,f
  3262  0FAB                     l2374:
  3263  0FAB  1C59               	btfss	___fladd@b+3,0
  3264  0FAC  2FAE               	goto	u3051
  3265  0FAD  2FAF               	goto	u3050
  3266  0FAE                     u3051:
  3267  0FAE  2FD1               	goto	l673
  3268  0FAF                     u3050:
  3269  0FAF                     l2376:
  3270  0FAF  0856               	movf	___fladd@b,w
  3271  0FB0  00DE               	movwf	??___fladd
  3272  0FB1  0857               	movf	___fladd@b+1,w
  3273  0FB2  00DF               	movwf	??___fladd+1
  3274  0FB3  0858               	movf	___fladd@b+2,w
  3275  0FB4  00E0               	movwf	??___fladd+2
  3276  0FB5  0859               	movf	___fladd@b+3,w
  3277  0FB6  00E1               	movwf	??___fladd+3
  3278  0FB7  3001               	movlw	1
  3279  0FB8  00E2               	movwf	??___fladd+4
  3280  0FB9                     u3065:
  3281  0FB9  0D61               	rlf	??___fladd+3,w
  3282  0FBA  0CE1               	rrf	??___fladd+3,f
  3283  0FBB  0CE0               	rrf	??___fladd+2,f
  3284  0FBC  0CDF               	rrf	??___fladd+1,f
  3285  0FBD  0CDE               	rrf	??___fladd,f
  3286  0FBE                     u3060:
  3287  0FBE  0BE2               	decfsz	??___fladd+4,f
  3288  0FBF  2FB9               	goto	u3065
  3289  0FC0  0861               	movf	??___fladd+3,w
  3290  0FC1  00D9               	movwf	___fladd@b+3
  3291  0FC2  0860               	movf	??___fladd+2,w
  3292  0FC3  00D8               	movwf	___fladd@b+2
  3293  0FC4  085F               	movf	??___fladd+1,w
  3294  0FC5  00D7               	movwf	___fladd@b+1
  3295  0FC6  085E               	movf	??___fladd,w
  3296  0FC7  00D6               	movwf	___fladd@b
  3297  0FC8  0A68               	incf	___fladd@bexp,w
  3298  0FC9  1903               	btfsc	3,2
  3299  0FCA  2FCC               	goto	u3071
  3300  0FCB  2FCD               	goto	u3070
  3301  0FCC                     u3071:
  3302  0FCC  2FD1               	goto	l673
  3303  0FCD                     u3070:
  3304  0FCD                     l2378:
  3305  0FCD  3001               	movlw	1
  3306  0FCE  00DE               	movwf	??___fladd
  3307  0FCF  085E               	movf	??___fladd,w
  3308  0FD0  07E8               	addwf	___fladd@bexp,f
  3309  0FD1                     l673:
  3310  0FD1  0A68               	incf	___fladd@bexp,w
  3311  0FD2  1903               	btfsc	3,2
  3312  0FD3  2FD5               	goto	u3081
  3313  0FD4  2FD6               	goto	u3080
  3314  0FD5                     u3081:
  3315  0FD5  2FDB               	goto	l2382
  3316  0FD6                     u3080:
  3317  0FD6                     l2380:
  3318  0FD6  0868               	movf	___fladd@bexp,w
  3319  0FD7  1D03               	btfss	3,2
  3320  0FD8  2FDA               	goto	u3091
  3321  0FD9  2FDB               	goto	u3090
  3322  0FDA                     u3091:
  3323  0FDA  2FE9               	goto	l2388
  3324  0FDB                     u3090:
  3325  0FDB                     l2382:
  3326  0FDB  3000               	movlw	0
  3327  0FDC  00D9               	movwf	___fladd@b+3
  3328  0FDD  3000               	movlw	0
  3329  0FDE  00D8               	movwf	___fladd@b+2
  3330  0FDF  3000               	movlw	0
  3331  0FE0  00D7               	movwf	___fladd@b+1
  3332  0FE1  3000               	movlw	0
  3333  0FE2  00D6               	movwf	___fladd@b
  3334  0FE3                     l2384:
  3335  0FE3  0868               	movf	___fladd@bexp,w
  3336  0FE4  1D03               	btfss	3,2
  3337  0FE5  2FE7               	goto	u3101
  3338  0FE6  2FE8               	goto	u3100
  3339  0FE7                     u3101:
  3340  0FE7  2FE9               	goto	l2388
  3341  0FE8                     u3100:
  3342  0FE8                     l2386:
  3343  0FE8  01E6               	clrf	___fladd@signs
  3344  0FE9                     l2388:
  3345  0FE9  1C68               	btfss	___fladd@bexp,0
  3346  0FEA  2FEC               	goto	u3111
  3347  0FEB  2FED               	goto	u3110
  3348  0FEC                     u3111:
  3349  0FEC  2FEF               	goto	l2392
  3350  0FED                     u3110:
  3351  0FED                     l2390:
  3352  0FED  17D8               	bsf	___fladd@b+2,7
  3353  0FEE  2FF3               	goto	l681
  3354  0FEF                     l2392:
  3355  0FEF  307F               	movlw	127
  3356  0FF0  00DE               	movwf	??___fladd
  3357  0FF1  085E               	movf	??___fladd,w
  3358  0FF2  05D8               	andwf	___fladd@b+2,f
  3359  0FF3                     l681:
  3360  0FF3  0868               	movf	___fladd@bexp,w
  3361  0FF4  00DE               	movwf	??___fladd
  3362  0FF5  1003               	clrc
  3363  0FF6  0C5E               	rrf	??___fladd,w
  3364  0FF7  00DF               	movwf	??___fladd+1
  3365  0FF8  085F               	movf	??___fladd+1,w
  3366  0FF9  00D9               	movwf	___fladd@b+3
  3367  0FFA                     l2394:
  3368  0FFA  1FE6               	btfss	___fladd@signs,7
  3369  0FFB  2FFD               	goto	u3121
  3370  0FFC  2FFE               	goto	u3120
  3371  0FFD                     u3121:
  3372  0FFD  2FFF               	goto	l682
  3373  0FFE                     u3120:
  3374  0FFE                     l2396:
  3375  0FFE  17D9               	bsf	___fladd@b+3,7
  3376  0FFF                     l682:
  3377  0FFF                     l652:
  3378  0FFF  0008               	return
  3379  1000                     __end_of___fladd:
  3380                           
  3381                           	psect	text5
  3382  14C2                     __ptext5:	
  3383 ;; *************** function ___awdiv *****************
  3384 ;; Defined at:
  3385 ;;		line 5 in file "C:\Program Files\Microchip\xc8\v2.32\pic\sources\c90\common\awdiv.c"
  3386 ;; Parameters:    Size  Location     Type
  3387 ;;  divisor         2    0[COMMON] int 
  3388 ;;  dividend        2    2[COMMON] int 
  3389 ;; Auto vars:     Size  Location     Type
  3390 ;;  quotient        2    7[COMMON] int 
  3391 ;;  sign            1    6[COMMON] unsigned char 
  3392 ;;  counter         1    5[COMMON] unsigned char 
  3393 ;; Return value:  Size  Location     Type
  3394 ;;                  2    0[COMMON] int 
  3395 ;; Registers used:
  3396 ;;		wreg, status,2, status,0
  3397 ;; Tracked objects:
  3398 ;;		On entry : 0/0
  3399 ;;		On exit  : 0/0
  3400 ;;		Unchanged: 0/0
  3401 ;; Data sizes:     COMMON   BANK0   BANK1   BANK3   BANK2
  3402 ;;      Params:         4       0       0       0       0
  3403 ;;      Locals:         4       0       0       0       0
  3404 ;;      Temps:          1       0       0       0       0
  3405 ;;      Totals:         9       0       0       0       0
  3406 ;;Total ram usage:        9 bytes
  3407 ;; Hardware stack levels used: 1
  3408 ;; This function calls:
  3409 ;;		Nothing
  3410 ;; This function is called by:
  3411 ;;		_realizarCalculo
  3412 ;; This function uses a non-reentrant model
  3413 ;;
  3414                           
  3415                           
  3416                           ;psect for function ___awdiv
  3417  14C2                     ___awdiv:
  3418  14C2                     l2812:	
  3419                           ;incstack = 0
  3420                           ; Regs used in ___awdiv: [wreg+status,2+status,0]
  3421                           
  3422  14C2  01F6               	clrf	___awdiv@sign
  3423  14C3                     l2814:
  3424  14C3  1FF1               	btfss	___awdiv@divisor+1,7
  3425  14C4  2CC6               	goto	u4131
  3426  14C5  2CC7               	goto	u4130
  3427  14C6                     u4131:
  3428  14C6  2CCE               	goto	l2820
  3429  14C7                     u4130:
  3430  14C7                     l2816:
  3431  14C7  09F0               	comf	___awdiv@divisor,f
  3432  14C8  09F1               	comf	___awdiv@divisor+1,f
  3433  14C9  0AF0               	incf	___awdiv@divisor,f
  3434  14CA  1903               	skipnz
  3435  14CB  0AF1               	incf	___awdiv@divisor+1,f
  3436  14CC                     l2818:
  3437  14CC  01F6               	clrf	___awdiv@sign
  3438  14CD  0AF6               	incf	___awdiv@sign,f
  3439  14CE                     l2820:
  3440  14CE  1FF3               	btfss	___awdiv@dividend+1,7
  3441  14CF  2CD1               	goto	u4141
  3442  14D0  2CD2               	goto	u4140
  3443  14D1                     u4141:
  3444  14D1  2CDB               	goto	l2826
  3445  14D2                     u4140:
  3446  14D2                     l2822:
  3447  14D2  09F2               	comf	___awdiv@dividend,f
  3448  14D3  09F3               	comf	___awdiv@dividend+1,f
  3449  14D4  0AF2               	incf	___awdiv@dividend,f
  3450  14D5  1903               	skipnz
  3451  14D6  0AF3               	incf	___awdiv@dividend+1,f
  3452  14D7                     l2824:
  3453  14D7  3001               	movlw	1
  3454  14D8  00F4               	movwf	??___awdiv
  3455  14D9  0874               	movf	??___awdiv,w
  3456  14DA  06F6               	xorwf	___awdiv@sign,f
  3457  14DB                     l2826:
  3458  14DB  01F7               	clrf	___awdiv@quotient
  3459  14DC  01F8               	clrf	___awdiv@quotient+1
  3460  14DD                     l2828:
  3461  14DD  0870               	movf	___awdiv@divisor,w
  3462  14DE  0471               	iorwf	___awdiv@divisor+1,w
  3463  14DF  1903               	btfsc	3,2
  3464  14E0  2CE2               	goto	u4151
  3465  14E1  2CE3               	goto	u4150
  3466  14E2                     u4151:
  3467  14E2  2D1A               	goto	l2848
  3468  14E3                     u4150:
  3469  14E3                     l2830:
  3470  14E3  01F5               	clrf	___awdiv@counter
  3471  14E4  0AF5               	incf	___awdiv@counter,f
  3472  14E5  2CF1               	goto	l2836
  3473  14E6                     l2832:
  3474  14E6  3001               	movlw	1
  3475  14E7                     u4165:
  3476  14E7  1003               	clrc
  3477  14E8  0DF0               	rlf	___awdiv@divisor,f
  3478  14E9  0DF1               	rlf	___awdiv@divisor+1,f
  3479  14EA  3EFF               	addlw	-1
  3480  14EB  1D03               	skipz
  3481  14EC  2CE7               	goto	u4165
  3482  14ED                     l2834:
  3483  14ED  3001               	movlw	1
  3484  14EE  00F4               	movwf	??___awdiv
  3485  14EF  0874               	movf	??___awdiv,w
  3486  14F0  07F5               	addwf	___awdiv@counter,f
  3487  14F1                     l2836:
  3488  14F1  1FF1               	btfss	___awdiv@divisor+1,7
  3489  14F2  2CF4               	goto	u4171
  3490  14F3  2CF5               	goto	u4170
  3491  14F4                     u4171:
  3492  14F4  2CE6               	goto	l2832
  3493  14F5                     u4170:
  3494  14F5                     l2838:
  3495  14F5  3001               	movlw	1
  3496  14F6                     u4185:
  3497  14F6  1003               	clrc
  3498  14F7  0DF7               	rlf	___awdiv@quotient,f
  3499  14F8  0DF8               	rlf	___awdiv@quotient+1,f
  3500  14F9  3EFF               	addlw	-1
  3501  14FA  1D03               	skipz
  3502  14FB  2CF6               	goto	u4185
  3503  14FC  0871               	movf	___awdiv@divisor+1,w
  3504  14FD  0273               	subwf	___awdiv@dividend+1,w
  3505  14FE  1D03               	skipz
  3506  14FF  2D02               	goto	u4195
  3507  1500  0870               	movf	___awdiv@divisor,w
  3508  1501  0272               	subwf	___awdiv@dividend,w
  3509  1502                     u4195:
  3510  1502  1C03               	skipc
  3511  1503  2D05               	goto	u4191
  3512  1504  2D06               	goto	u4190
  3513  1505                     u4191:
  3514  1505  2D0D               	goto	l2844
  3515  1506                     u4190:
  3516  1506                     l2840:
  3517  1506  0870               	movf	___awdiv@divisor,w
  3518  1507  02F2               	subwf	___awdiv@dividend,f
  3519  1508  0871               	movf	___awdiv@divisor+1,w
  3520  1509  1C03               	skipc
  3521  150A  03F3               	decf	___awdiv@dividend+1,f
  3522  150B  02F3               	subwf	___awdiv@dividend+1,f
  3523  150C                     l2842:
  3524  150C  1477               	bsf	___awdiv@quotient,0
  3525  150D                     l2844:
  3526  150D  3001               	movlw	1
  3527  150E                     u4205:
  3528  150E  1003               	clrc
  3529  150F  0CF1               	rrf	___awdiv@divisor+1,f
  3530  1510  0CF0               	rrf	___awdiv@divisor,f
  3531  1511  3EFF               	addlw	-1
  3532  1512  1D03               	skipz
  3533  1513  2D0E               	goto	u4205
  3534  1514                     l2846:
  3535  1514  3001               	movlw	1
  3536  1515  02F5               	subwf	___awdiv@counter,f
  3537  1516  1D03               	btfss	3,2
  3538  1517  2D19               	goto	u4211
  3539  1518  2D1A               	goto	u4210
  3540  1519                     u4211:
  3541  1519  2CF5               	goto	l2838
  3542  151A                     u4210:
  3543  151A                     l2848:
  3544  151A  0876               	movf	___awdiv@sign,w
  3545  151B  1903               	btfsc	3,2
  3546  151C  2D1E               	goto	u4221
  3547  151D  2D1F               	goto	u4220
  3548  151E                     u4221:
  3549  151E  2D24               	goto	l2852
  3550  151F                     u4220:
  3551  151F                     l2850:
  3552  151F  09F7               	comf	___awdiv@quotient,f
  3553  1520  09F8               	comf	___awdiv@quotient+1,f
  3554  1521  0AF7               	incf	___awdiv@quotient,f
  3555  1522  1903               	skipnz
  3556  1523  0AF8               	incf	___awdiv@quotient+1,f
  3557  1524                     l2852:
  3558  1524  0878               	movf	___awdiv@quotient+1,w
  3559  1525  00F1               	movwf	?___awdiv+1
  3560  1526  0877               	movf	___awdiv@quotient,w
  3561  1527  00F0               	movwf	?___awdiv
  3562  1528                     l499:
  3563  1528  0008               	return
  3564  1529                     __end_of___awdiv:
  3565                           
  3566                           	psect	text6
  3567  0949                     __ptext6:	
  3568 ;; *************** function _PWM1_Duty *****************
  3569 ;; Defined at:
  3570 ;;		line 17 in file "PWM.c"
  3571 ;; Parameters:    Size  Location     Type
  3572 ;;  duty            2   29[BANK1 ] unsigned int 
  3573 ;;  freq            2   31[BANK1 ] unsigned int 
  3574 ;; Auto vars:     Size  Location     Type
  3575 ;;		None
  3576 ;; Return value:  Size  Location     Type
  3577 ;;                  1    wreg      void 
  3578 ;; Registers used:
  3579 ;;		wreg, status,2, status,0, btemp+1, pclath, cstack
  3580 ;; Tracked objects:
  3581 ;;		On entry : 0/0
  3582 ;;		On exit  : 0/0
  3583 ;;		Unchanged: 0/0
  3584 ;; Data sizes:     COMMON   BANK0   BANK1   BANK3   BANK2
  3585 ;;      Params:         0       0       4       0       0
  3586 ;;      Locals:         0       0       0       0       0
  3587 ;;      Temps:          0       0       2       0       0
  3588 ;;      Totals:         0       0       6       0       0
  3589 ;;Total ram usage:        6 bytes
  3590 ;; Hardware stack levels used: 1
  3591 ;; Hardware stack levels required when called: 2
  3592 ;; This function calls:
  3593 ;;		_PWM_Init
  3594 ;;		___aldiv
  3595 ;;		___fldiv
  3596 ;;		___flmul
  3597 ;;		___fltol
  3598 ;;		___xxtofl
  3599 ;; This function is called by:
  3600 ;;		_realizarCalculo
  3601 ;; This function uses a non-reentrant model
  3602 ;;
  3603                           
  3604                           
  3605                           ;psect for function _PWM1_Duty
  3606  0949                     _PWM1_Duty:
  3607  0949                     l2774:	
  3608                           ;incstack = 0
  3609                           ; Regs used in _PWM1_Duty: [wreg+status,2+status,0+btemp+1+pclath+cstack]
  3610                           
  3611                           
  3612                           ;PWM.c: 17: void PWM1_Duty(unsigned int duty, unsigned int freq);PWM.c: 18: {;PWM.c: 19:
      +                             PWM_Init(freq);
  3613  0949  1683               	bsf	3,5	;RP0=1, select bank1
  3614  094A  1303               	bcf	3,6	;RP1=0, select bank1
  3615  094B  083F               	movf	PWM1_Duty@freq^(0+128),w
  3616  094C  1283               	bcf	3,5	;RP0=0, select bank0
  3617  094D  1303               	bcf	3,6	;RP1=0, select bank0
  3618  094E  00A6               	movwf	PWM_Init@freq
  3619  094F  1683               	bsf	3,5	;RP0=1, select bank1
  3620  0950  1303               	bcf	3,6	;RP1=0, select bank1
  3621  0951  0840               	movf	(PWM1_Duty@freq+1)^(0+128),w
  3622  0952  1283               	bcf	3,5	;RP0=0, select bank0
  3623  0953  1303               	bcf	3,6	;RP1=0, select bank0
  3624  0954  00A7               	movwf	PWM_Init@freq+1
  3625  0955  01A8               	clrf	PWM_Init@freq+2
  3626  0956  01A9               	clrf	PWM_Init@freq+3
  3627  0957  160A  118A  237D  120A  158A  	fcall	_PWM_Init
  3628  095C                     l2776:
  3629                           
  3630                           ;PWM.c: 20:   if(duty<1024)
  3631  095C  3004               	movlw	4
  3632  095D  1683               	bsf	3,5	;RP0=1, select bank1
  3633  095E  1303               	bcf	3,6	;RP1=0, select bank1
  3634  095F  023E               	subwf	(PWM1_Duty@duty+1)^(0+128),w
  3635  0960  3000               	movlw	0
  3636  0961  1903               	skipnz
  3637  0962  023D               	subwf	PWM1_Duty@duty^(0+128),w
  3638  0963  1803               	skipnc
  3639  0964  2966               	goto	u4011
  3640  0965  2967               	goto	u4010
  3641  0966                     u4011:
  3642  0966  2A2C               	goto	l172
  3643  0967                     u4010:
  3644  0967                     l2778:
  3645                           
  3646                           ;PWM.c: 21:   {;PWM.c: 22:     duty = ((float)duty/1023.0)*(4000000/(freq*4));
  3647  0967  083D               	movf	PWM1_Duty@duty^(0+128),w
  3648  0968  1283               	bcf	3,5	;RP0=0, select bank0
  3649  0969  1303               	bcf	3,6	;RP1=0, select bank0
  3650  096A  00AE               	movwf	___xxtofl@val
  3651  096B  1683               	bsf	3,5	;RP0=1, select bank1
  3652  096C  1303               	bcf	3,6	;RP1=0, select bank1
  3653  096D  083E               	movf	(PWM1_Duty@duty+1)^(0+128),w
  3654  096E  1283               	bcf	3,5	;RP0=0, select bank0
  3655  096F  1303               	bcf	3,6	;RP1=0, select bank0
  3656  0970  00AF               	movwf	___xxtofl@val+1
  3657  0971  01B0               	clrf	___xxtofl@val+2
  3658  0972  01B1               	clrf	___xxtofl@val+3
  3659  0973  3000               	movlw	0
  3660  0974  160A  118A  25A5  120A  158A  	fcall	___xxtofl
  3661  0979  1283               	bcf	3,5	;RP0=0, select bank0
  3662  097A  1303               	bcf	3,6	;RP1=0, select bank0
  3663  097B  0831               	movf	?___xxtofl+3,w
  3664  097C  1683               	bsf	3,5	;RP0=1, select bank1
  3665  097D  1303               	bcf	3,6	;RP1=0, select bank1
  3666  097E  00AF               	movwf	(___fldiv@b+3)^(0+128)
  3667  097F  1283               	bcf	3,5	;RP0=0, select bank0
  3668  0980  1303               	bcf	3,6	;RP1=0, select bank0
  3669  0981  0830               	movf	?___xxtofl+2,w
  3670  0982  1683               	bsf	3,5	;RP0=1, select bank1
  3671  0983  1303               	bcf	3,6	;RP1=0, select bank1
  3672  0984  00AE               	movwf	(___fldiv@b+2)^(0+128)
  3673  0985  1283               	bcf	3,5	;RP0=0, select bank0
  3674  0986  1303               	bcf	3,6	;RP1=0, select bank0
  3675  0987  082F               	movf	?___xxtofl+1,w
  3676  0988  1683               	bsf	3,5	;RP0=1, select bank1
  3677  0989  1303               	bcf	3,6	;RP1=0, select bank1
  3678  098A  00AD               	movwf	(___fldiv@b+1)^(0+128)
  3679  098B  1283               	bcf	3,5	;RP0=0, select bank0
  3680  098C  1303               	bcf	3,6	;RP1=0, select bank0
  3681  098D  082E               	movf	?___xxtofl,w
  3682  098E  1683               	bsf	3,5	;RP0=1, select bank1
  3683  098F  1303               	bcf	3,6	;RP1=0, select bank1
  3684  0990  00AC               	movwf	___fldiv@b^(0+128)
  3685  0991  3044               	movlw	68
  3686  0992  00AB               	movwf	(___fldiv@a+3)^(0+128)
  3687  0993  307F               	movlw	127
  3688  0994  00AA               	movwf	(___fldiv@a+2)^(0+128)
  3689  0995  30C0               	movlw	192
  3690  0996  00A9               	movwf	(___fldiv@a+1)^(0+128)
  3691  0997  3000               	movlw	0
  3692  0998  00A8               	movwf	___fldiv@a^(0+128)
  3693  0999  120A  158A  2315  120A  158A  	fcall	___fldiv
  3694  099E  1683               	bsf	3,5	;RP0=1, select bank1
  3695  099F  1303               	bcf	3,6	;RP1=0, select bank1
  3696  09A0  082B               	movf	(?___fldiv+3)^(0+128),w
  3697  09A1  1283               	bcf	3,5	;RP0=0, select bank0
  3698  09A2  1303               	bcf	3,6	;RP1=0, select bank0
  3699  09A3  00C3               	movwf	___flmul@a+3
  3700  09A4  1683               	bsf	3,5	;RP0=1, select bank1
  3701  09A5  1303               	bcf	3,6	;RP1=0, select bank1
  3702  09A6  082A               	movf	(?___fldiv+2)^(0+128),w
  3703  09A7  1283               	bcf	3,5	;RP0=0, select bank0
  3704  09A8  1303               	bcf	3,6	;RP1=0, select bank0
  3705  09A9  00C2               	movwf	___flmul@a+2
  3706  09AA  1683               	bsf	3,5	;RP0=1, select bank1
  3707  09AB  1303               	bcf	3,6	;RP1=0, select bank1
  3708  09AC  0829               	movf	(?___fldiv+1)^(0+128),w
  3709  09AD  1283               	bcf	3,5	;RP0=0, select bank0
  3710  09AE  1303               	bcf	3,6	;RP1=0, select bank0
  3711  09AF  00C1               	movwf	___flmul@a+1
  3712  09B0  1683               	bsf	3,5	;RP0=1, select bank1
  3713  09B1  1303               	bcf	3,6	;RP1=0, select bank1
  3714  09B2  0828               	movf	?___fldiv^(0+128),w
  3715  09B3  1283               	bcf	3,5	;RP0=0, select bank0
  3716  09B4  1303               	bcf	3,6	;RP1=0, select bank0
  3717  09B5  00C0               	movwf	___flmul@a
  3718  09B6  3000               	movlw	0
  3719  09B7  00F7               	movwf	___aldiv@dividend+3
  3720  09B8  303D               	movlw	61
  3721  09B9  00F6               	movwf	___aldiv@dividend+2
  3722  09BA  3009               	movlw	9
  3723  09BB  00F5               	movwf	___aldiv@dividend+1
  3724  09BC  3000               	movlw	0
  3725  09BD  00F4               	movwf	___aldiv@dividend
  3726  09BE  1683               	bsf	3,5	;RP0=1, select bank1
  3727  09BF  1303               	bcf	3,6	;RP1=0, select bank1
  3728  09C0  0840               	movf	(PWM1_Duty@freq+1)^(0+128),w
  3729  09C1  00C2               	movwf	(??_PWM1_Duty^(0+128)+1)
  3730  09C2  083F               	movf	PWM1_Duty@freq^(0+128),w
  3731  09C3  00C1               	movwf	??_PWM1_Duty^(0+128)
  3732  09C4  1003               	clrc
  3733  09C5  0DC1               	rlf	??_PWM1_Duty^(0+128),f
  3734  09C6  0DC2               	rlf	(??_PWM1_Duty^(0+128)+1),f
  3735  09C7  1003               	clrc
  3736  09C8  0DC1               	rlf	??_PWM1_Duty^(0+128),f
  3737  09C9  0DC2               	rlf	(??_PWM1_Duty^(0+128)+1),f
  3738  09CA  0841               	movf	??_PWM1_Duty^(0+128),w
  3739  09CB  00F0               	movwf	___aldiv@divisor
  3740  09CC  0842               	movf	(??_PWM1_Duty+1)^(0+128),w
  3741  09CD  00F1               	movwf	___aldiv@divisor+1
  3742  09CE  01F2               	clrf	___aldiv@divisor+2
  3743  09CF  01F3               	clrf	___aldiv@divisor+3
  3744  09D0  120A  118A  2006  120A  158A  	fcall	___aldiv
  3745  09D5  0873               	movf	?___aldiv+3,w
  3746  09D6  1283               	bcf	3,5	;RP0=0, select bank0
  3747  09D7  1303               	bcf	3,6	;RP1=0, select bank0
  3748  09D8  00B1               	movwf	___xxtofl@val+3
  3749  09D9  0872               	movf	?___aldiv+2,w
  3750  09DA  00B0               	movwf	___xxtofl@val+2
  3751  09DB  0871               	movf	?___aldiv+1,w
  3752  09DC  00AF               	movwf	___xxtofl@val+1
  3753  09DD  0870               	movf	?___aldiv,w
  3754  09DE  00AE               	movwf	___xxtofl@val
  3755  09DF  3001               	movlw	1
  3756  09E0  160A  118A  25A5  120A  158A  	fcall	___xxtofl
  3757  09E5  1283               	bcf	3,5	;RP0=0, select bank0
  3758  09E6  1303               	bcf	3,6	;RP1=0, select bank0
  3759  09E7  0831               	movf	?___xxtofl+3,w
  3760  09E8  00BF               	movwf	___flmul@b+3
  3761  09E9  0830               	movf	?___xxtofl+2,w
  3762  09EA  00BE               	movwf	___flmul@b+2
  3763  09EB  082F               	movf	?___xxtofl+1,w
  3764  09EC  00BD               	movwf	___flmul@b+1
  3765  09ED  082E               	movf	?___xxtofl,w
  3766  09EE  00BC               	movwf	___flmul@b
  3767  09EF  120A  118A  20A3  120A  158A  	fcall	___flmul
  3768  09F4  1283               	bcf	3,5	;RP0=0, select bank0
  3769  09F5  1303               	bcf	3,6	;RP1=0, select bank0
  3770  09F6  083F               	movf	?___flmul+3,w
  3771  09F7  00A9               	movwf	___fltol@f1+3
  3772  09F8  083E               	movf	?___flmul+2,w
  3773  09F9  00A8               	movwf	___fltol@f1+2
  3774  09FA  083D               	movf	?___flmul+1,w
  3775  09FB  00A7               	movwf	___fltol@f1+1
  3776  09FC  083C               	movf	?___flmul,w
  3777  09FD  00A6               	movwf	___fltol@f1
  3778  09FE  160A  118A  2529  120A  158A  	fcall	___fltol
  3779  0A03  1283               	bcf	3,5	;RP0=0, select bank0
  3780  0A04  1303               	bcf	3,6	;RP1=0, select bank0
  3781  0A05  0827               	movf	?___fltol+1,w
  3782  0A06  1683               	bsf	3,5	;RP0=1, select bank1
  3783  0A07  1303               	bcf	3,6	;RP1=0, select bank1
  3784  0A08  00BE               	movwf	(PWM1_Duty@duty+1)^(0+128)
  3785  0A09  1283               	bcf	3,5	;RP0=0, select bank0
  3786  0A0A  1303               	bcf	3,6	;RP1=0, select bank0
  3787  0A0B  0826               	movf	?___fltol,w
  3788  0A0C  1683               	bsf	3,5	;RP0=1, select bank1
  3789  0A0D  1303               	bcf	3,6	;RP1=0, select bank1
  3790  0A0E  00BD               	movwf	PWM1_Duty@duty^(0+128)
  3791  0A0F                     l2780:
  3792                           
  3793                           ;PWM.c: 23:     CCP1X = duty & 0b00000010;
  3794  0A0F  1283               	bcf	3,5	;RP0=0, select bank0
  3795  0A10  1303               	bcf	3,6	;RP1=0, select bank0
  3796  0A11  1297               	bcf	23,5	;volatile
  3797  0A12                     l2782:
  3798                           
  3799                           ;PWM.c: 24:     CCP1Y = duty & 0b00000001;
  3800  0A12  1683               	bsf	3,5	;RP0=1, select bank1
  3801  0A13  1303               	bcf	3,6	;RP1=0, select bank1
  3802  0A14  183D               	btfsc	PWM1_Duty@duty^(0+128),0
  3803  0A15  2A17               	goto	u4021
  3804  0A16  2A1B               	goto	u4020
  3805  0A17                     u4021:
  3806  0A17  1283               	bcf	3,5	;RP0=0, select bank0
  3807  0A18  1303               	bcf	3,6	;RP1=0, select bank0
  3808  0A19  1617               	bsf	23,4	;volatile
  3809  0A1A  2A1E               	goto	u4034
  3810  0A1B                     u4020:
  3811  0A1B  1283               	bcf	3,5	;RP0=0, select bank0
  3812  0A1C  1303               	bcf	3,6	;RP1=0, select bank0
  3813  0A1D  1217               	bcf	23,4	;volatile
  3814  0A1E                     u4034:
  3815  0A1E                     l2784:
  3816                           
  3817                           ;PWM.c: 25:     CCPR1L = (unsigned char)duty>>2;
  3818  0A1E  1683               	bsf	3,5	;RP0=1, select bank1
  3819  0A1F  1303               	bcf	3,6	;RP1=0, select bank1
  3820  0A20  083D               	movf	PWM1_Duty@duty^(0+128),w
  3821  0A21  00C1               	movwf	??_PWM1_Duty^(0+128)
  3822  0A22  3002               	movlw	2
  3823  0A23                     u4045:
  3824  0A23  1003               	clrc
  3825  0A24  0CC1               	rrf	??_PWM1_Duty^(0+128),f
  3826  0A25  3EFF               	addlw	-1
  3827  0A26  1D03               	skipz
  3828  0A27  2A23               	goto	u4045
  3829  0A28  0841               	movf	??_PWM1_Duty^(0+128),w
  3830  0A29  1283               	bcf	3,5	;RP0=0, select bank0
  3831  0A2A  1303               	bcf	3,6	;RP1=0, select bank0
  3832  0A2B  0095               	movwf	21	;volatile
  3833  0A2C                     l172:
  3834  0A2C  0008               	return
  3835  0A2D                     __end_of_PWM1_Duty:
  3836                           
  3837                           	psect	text7
  3838  13EE                     __ptext7:	
  3839 ;; *************** function _iniciarLcd *****************
  3840 ;; Defined at:
  3841 ;;		line 148 in file "main.c"
  3842 ;; Parameters:    Size  Location     Type
  3843 ;;		None
  3844 ;; Auto vars:     Size  Location     Type
  3845 ;;		None
  3846 ;; Return value:  Size  Location     Type
  3847 ;;                  1    wreg      void 
  3848 ;; Registers used:
  3849 ;;		wreg, fsr0l, fsr0h, status,2, status,0, btemp+1, pclath, cstack
  3850 ;; Tracked objects:
  3851 ;;		On entry : 0/0
  3852 ;;		On exit  : 0/0
  3853 ;;		Unchanged: 0/0
  3854 ;; Data sizes:     COMMON   BANK0   BANK1   BANK3   BANK2
  3855 ;;      Params:         0       0       0       0       0
  3856 ;;      Locals:         0       0       0       0       0
  3857 ;;      Temps:          0       0       0       0       0
  3858 ;;      Totals:         0       0       0       0       0
  3859 ;;Total ram usage:        0 bytes
  3860 ;; Hardware stack levels used: 1
  3861 ;; Hardware stack levels required when called: 5
  3862 ;; This function calls:
  3863 ;;		_imprimirValoresLcd
  3864 ;;		_lcd_cmd
  3865 ;;		_lcd_init
  3866 ;;		_lcd_str
  3867 ;; This function is called by:
  3868 ;;		_main
  3869 ;; This function uses a non-reentrant model
  3870 ;;
  3871                           
  3872                           
  3873                           ;psect for function _iniciarLcd
  3874  13EE                     _iniciarLcd:
  3875  13EE                     l2862:	
  3876                           ;incstack = 0
  3877                           ; Regs used in _iniciarLcd: [wreg-fsr0h+status,2+status,0+btemp+1+pclath+cstack]
  3878                           
  3879                           
  3880                           ;main.c: 149:     lcd_init();
  3881  13EE  160A  118A  2347  160A  118A  	fcall	_lcd_init
  3882                           
  3883                           ;main.c: 150:     lcd_cmd(0x80);
  3884  13F3  3080               	movlw	128
  3885  13F4  160A  118A  21FB  160A  118A  	fcall	_lcd_cmd
  3886  13F9                     l2864:
  3887                           
  3888                           ;main.c: 151:     lcd_str("TEMP:");
  3889  13F9  3011               	movlw	(low ((STR_7-__stringbase)| (0+32768)))& (0+255)
  3890  13FA  00F2               	movwf	lcd_str@str
  3891  13FB  3080               	movlw	128
  3892  13FC  00F3               	movwf	lcd_str@str+1
  3893  13FD  160A  118A  2283  160A  118A  	fcall	_lcd_str
  3894  1402                     l2866:
  3895                           
  3896                           ;main.c: 152:     lcd_cmd(0xC0);
  3897  1402  30C0               	movlw	192
  3898  1403  160A  118A  21FB  160A  118A  	fcall	_lcd_cmd
  3899                           
  3900                           ;main.c: 153:     lcd_str("  KP:");
  3901  1408  300B               	movlw	(low ((STR_8-__stringbase)| (0+32768)))& (0+255)
  3902  1409  00F2               	movwf	lcd_str@str
  3903  140A  3080               	movlw	128
  3904  140B  00F3               	movwf	lcd_str@str+1
  3905  140C  160A  118A  2283  160A  118A  	fcall	_lcd_str
  3906  1411                     l2868:
  3907                           
  3908                           ;main.c: 154:     lcd_cmd(0x85);
  3909  1411  3085               	movlw	133
  3910  1412  160A  118A  21FB  160A  118A  	fcall	_lcd_cmd
  3911  1417                     l2870:
  3912                           
  3913                           ;main.c: 156:     imprimirValoresLcd();
  3914  1417  160A  118A  272D  160A  118A  	fcall	_imprimirValoresLcd
  3915  141C                     l2872:
  3916                           
  3917                           ;main.c: 157:     menu = 2;
  3918  141C  3002               	movlw	2
  3919  141D  1683               	bsf	3,5	;RP0=1, select bank1
  3920  141E  1303               	bcf	3,6	;RP1=0, select bank1
  3921  141F  00ED               	movwf	_menu^(0+128)
  3922  1420  3000               	movlw	0
  3923  1421  00EE               	movwf	(_menu^(0+128)+1)
  3924  1422                     l2874:
  3925                           
  3926                           ;main.c: 158:     imprimirValoresLcd();
  3927  1422  160A  118A  272D  160A  118A  	fcall	_imprimirValoresLcd
  3928  1427                     l2876:
  3929                           
  3930                           ;main.c: 159:     menu = 1;
  3931  1427  3001               	movlw	1
  3932  1428  1683               	bsf	3,5	;RP0=1, select bank1
  3933  1429  1303               	bcf	3,6	;RP1=0, select bank1
  3934  142A  00ED               	movwf	_menu^(0+128)
  3935  142B  3000               	movlw	0
  3936  142C  00EE               	movwf	(_menu^(0+128)+1)
  3937  142D                     l119:
  3938  142D  0008               	return
  3939  142E                     __end_of_iniciarLcd:
  3940                           
  3941                           	psect	text8
  3942  1347                     __ptext8:	
  3943 ;; *************** function _lcd_init *****************
  3944 ;; Defined at:
  3945 ;;		line 57 in file "lcd.c"
  3946 ;; Parameters:    Size  Location     Type
  3947 ;;		None
  3948 ;; Auto vars:     Size  Location     Type
  3949 ;;		None
  3950 ;; Return value:  Size  Location     Type
  3951 ;;                  1    wreg      void 
  3952 ;; Registers used:
  3953 ;;		wreg, status,2, status,0, pclath, cstack
  3954 ;; Tracked objects:
  3955 ;;		On entry : 0/0
  3956 ;;		On exit  : 0/0
  3957 ;;		Unchanged: 0/0
  3958 ;; Data sizes:     COMMON   BANK0   BANK1   BANK3   BANK2
  3959 ;;      Params:         0       0       0       0       0
  3960 ;;      Locals:         0       0       0       0       0
  3961 ;;      Temps:          0       0       0       0       0
  3962 ;;      Totals:         0       0       0       0       0
  3963 ;;Total ram usage:        0 bytes
  3964 ;; Hardware stack levels used: 1
  3965 ;; Hardware stack levels required when called: 2
  3966 ;; This function calls:
  3967 ;;		_lcd_cmd
  3968 ;; This function is called by:
  3969 ;;		_iniciarLcd
  3970 ;; This function uses a non-reentrant model
  3971 ;;
  3972                           
  3973                           
  3974                           ;psect for function _lcd_init
  3975  1347                     _lcd_init:
  3976  1347                     l2754:	
  3977                           ;incstack = 0
  3978                           ; Regs used in _lcd_init: [wreg+status,2+status,0+pclath+cstack]
  3979                           
  3980                           
  3981                           ;lcd.c: 59:  PORTEbits.RE1=0;
  3982  1347  1283               	bcf	3,5	;RP0=0, select bank0
  3983  1348  1303               	bcf	3,6	;RP1=0, select bank0
  3984  1349  1089               	bcf	9,1	;volatile
  3985                           
  3986                           ;lcd.c: 60:  PORTEbits.RE0=0;
  3987  134A  1009               	bcf	9,0	;volatile
  3988                           
  3989                           ;lcd.c: 62:  PORTEbits.RE1=1;
  3990  134B  1489               	bsf	9,1	;volatile
  3991  134C                     l2756:
  3992                           
  3993                           ;lcd.c: 64:  lcd_cmd(0x38);
  3994  134C  3038               	movlw	56
  3995  134D  160A  118A  21FB  160A  118A  	fcall	_lcd_cmd
  3996                           
  3997                           ;lcd.c: 66:  lcd_cmd(0x38);
  3998  1352  3038               	movlw	56
  3999  1353  160A  118A  21FB  160A  118A  	fcall	_lcd_cmd
  4000                           
  4001                           ;lcd.c: 68:  lcd_cmd(0x38);
  4002  1358  3038               	movlw	56
  4003  1359  160A  118A  21FB  160A  118A  	fcall	_lcd_cmd
  4004                           
  4005                           ;lcd.c: 69:  lcd_cmd(0x08);
  4006  135E  3008               	movlw	8
  4007  135F  160A  118A  21FB  160A  118A  	fcall	_lcd_cmd
  4008                           
  4009                           ;lcd.c: 70:  lcd_cmd(0x0F);
  4010  1364  300F               	movlw	15
  4011  1365  160A  118A  21FB  160A  118A  	fcall	_lcd_cmd
  4012                           
  4013                           ;lcd.c: 71:  lcd_cmd(0x01);
  4014  136A  3001               	movlw	1
  4015  136B  160A  118A  21FB  160A  118A  	fcall	_lcd_cmd
  4016                           
  4017                           ;lcd.c: 72:  lcd_cmd(0x38);
  4018  1370  3038               	movlw	56
  4019  1371  160A  118A  21FB  160A  118A  	fcall	_lcd_cmd
  4020                           
  4021                           ;lcd.c: 73:     lcd_cmd(0x80);
  4022  1376  3080               	movlw	128
  4023  1377  160A  118A  21FB  160A  118A  	fcall	_lcd_cmd
  4024  137C                     l226:
  4025  137C  0008               	return
  4026  137D                     __end_of_lcd_init:
  4027                           
  4028                           	psect	text9
  4029  172D                     __ptext9:	
  4030 ;; *************** function _imprimirValoresLcd *****************
  4031 ;; Defined at:
  4032 ;;		line 128 in file "main.c"
  4033 ;; Parameters:    Size  Location     Type
  4034 ;;		None
  4035 ;; Auto vars:     Size  Location     Type
  4036 ;;		None
  4037 ;; Return value:  Size  Location     Type
  4038 ;;                  1    wreg      void 
  4039 ;; Registers used:
  4040 ;;		wreg, fsr0l, fsr0h, status,2, status,0, btemp+1, pclath, cstack
  4041 ;; Tracked objects:
  4042 ;;		On entry : 0/0
  4043 ;;		On exit  : 0/0
  4044 ;;		Unchanged: 0/0
  4045 ;; Data sizes:     COMMON   BANK0   BANK1   BANK3   BANK2
  4046 ;;      Params:         0       0       0       0       0
  4047 ;;      Locals:         0       0       0       0       0
  4048 ;;      Temps:          0       1       0       0       0
  4049 ;;      Totals:         0       1       0       0       0
  4050 ;;Total ram usage:        1 bytes
  4051 ;; Hardware stack levels used: 1
  4052 ;; Hardware stack levels required when called: 4
  4053 ;; This function calls:
  4054 ;;		___fleq
  4055 ;;		___fltol
  4056 ;;		___xxtofl
  4057 ;;		_imprimirTemperatura
  4058 ;;		_lcd_cmd
  4059 ;;		_lcd_str
  4060 ;;		_sprintf
  4061 ;; This function is called by:
  4062 ;;		_iniciarLcd
  4063 ;;		_main
  4064 ;; This function uses a non-reentrant model
  4065 ;;
  4066                           
  4067                           
  4068                           ;psect for function _imprimirValoresLcd
  4069  172D                     _imprimirValoresLcd:
  4070  172D                     l2736:	
  4071                           ;incstack = 0
  4072                           ; Regs used in _imprimirValoresLcd: [wreg-fsr0h+status,2+status,0+btemp+1+pclath+cstack]
  4073                           
  4074                           
  4075                           ;main.c: 129:     if (menu != 1){
  4076  172D  1683               	bsf	3,5	;RP0=1, select bank1
  4077  172E  1303               	bcf	3,6	;RP1=0, select bank1
  4078  172F  036D               	decf	_menu^(0+128),w
  4079  1730  046E               	iorwf	(_menu+1)^(0+128),w
  4080  1731  1903               	btfsc	3,2
  4081  1732  2F34               	goto	u3951
  4082  1733  2F35               	goto	u3950
  4083  1734                     u3951:
  4084  1734  2F5B               	goto	l2746
  4085  1735                     u3950:
  4086  1735                     l2738:
  4087                           
  4088                           ;main.c: 130:         if (setPoint != setPointReferencia){
  4089  1735  085E               	movf	(_setPointReferencia+1)^(0+128),w
  4090  1736  066C               	xorwf	(_setPoint+1)^(0+128),w
  4091  1737  1D03               	skipz
  4092  1738  2F3B               	goto	u3965
  4093  1739  085D               	movf	_setPointReferencia^(0+128),w
  4094  173A  066B               	xorwf	_setPoint^(0+128),w
  4095  173B                     u3965:
  4096  173B  1903               	skipnz
  4097  173C  2F3E               	goto	u3961
  4098  173D  2F3F               	goto	u3960
  4099  173E                     u3961:
  4100  173E  2F54               	goto	l2744
  4101  173F                     u3960:
  4102  173F                     l2740:
  4103                           
  4104                           ;main.c: 131:             imprimirTemperatura(setPoint);
  4105  173F  086C               	movf	(_setPoint+1)^(0+128),w
  4106  1740  1283               	bcf	3,5	;RP0=0, select bank0
  4107  1741  1303               	bcf	3,6	;RP1=0, select bank0
  4108  1742  00B0               	movwf	imprimirTemperatura@tempSet+1
  4109  1743  1683               	bsf	3,5	;RP0=1, select bank1
  4110  1744  1303               	bcf	3,6	;RP1=0, select bank1
  4111  1745  086B               	movf	_setPoint^(0+128),w
  4112  1746  1283               	bcf	3,5	;RP0=0, select bank0
  4113  1747  1303               	bcf	3,6	;RP1=0, select bank0
  4114  1748  00AF               	movwf	imprimirTemperatura@tempSet
  4115  1749  160A  118A  2661  160A  118A  	fcall	_imprimirTemperatura
  4116  174E                     l2742:
  4117                           
  4118                           ;main.c: 132:             setPointReferencia = setPoint;
  4119  174E  1683               	bsf	3,5	;RP0=1, select bank1
  4120  174F  1303               	bcf	3,6	;RP1=0, select bank1
  4121  1750  086C               	movf	(_setPoint+1)^(0+128),w
  4122  1751  00DE               	movwf	(_setPointReferencia+1)^(0+128)
  4123  1752  086B               	movf	_setPoint^(0+128),w
  4124  1753  00DD               	movwf	_setPointReferencia^(0+128)
  4125  1754                     l2744:
  4126                           
  4127                           ;main.c: 135:         lcd_cmd(0x89 +6);
  4128  1754  308F               	movlw	143
  4129  1755  160A  118A  21FB  160A  118A  	fcall	_lcd_cmd
  4130                           
  4131                           ;main.c: 136:     } else {
  4132  175A  2FFF               	goto	l116
  4133  175B                     l2746:
  4134                           
  4135                           ;main.c: 137:         if (kp != kpReferencia){
  4136  175B  1683               	bsf	3,5	;RP0=1, select bank3
  4137  175C  1703               	bsf	3,6	;RP1=1, select bank3
  4138  175D  0828               	movf	_kpReferencia^(0+384),w
  4139  175E  1283               	bcf	3,5	;RP0=0, select bank0
  4140  175F  1303               	bcf	3,6	;RP1=0, select bank0
  4141  1760  00AE               	movwf	___xxtofl@val
  4142  1761  1683               	bsf	3,5	;RP0=1, select bank3
  4143  1762  1703               	bsf	3,6	;RP1=1, select bank3
  4144  1763  0829               	movf	(_kpReferencia+1)^(0+384),w
  4145  1764  1283               	bcf	3,5	;RP0=0, select bank0
  4146  1765  1303               	bcf	3,6	;RP1=0, select bank0
  4147  1766  00AF               	movwf	___xxtofl@val+1
  4148  1767  3000               	movlw	0
  4149  1768  1BAF               	btfsc	___xxtofl@val+1,7
  4150  1769  30FF               	movlw	255
  4151  176A  00B0               	movwf	___xxtofl@val+2
  4152  176B  00B1               	movwf	___xxtofl@val+3
  4153  176C  3001               	movlw	1
  4154  176D  160A  118A  25A5  160A  118A  	fcall	___xxtofl
  4155  1772  1283               	bcf	3,5	;RP0=0, select bank0
  4156  1773  1303               	bcf	3,6	;RP1=0, select bank0
  4157  1774  0831               	movf	?___xxtofl+3,w
  4158  1775  00BF               	movwf	___fleq@ff1+3
  4159  1776  0830               	movf	?___xxtofl+2,w
  4160  1777  00BE               	movwf	___fleq@ff1+2
  4161  1778  082F               	movf	?___xxtofl+1,w
  4162  1779  00BD               	movwf	___fleq@ff1+1
  4163  177A  082E               	movf	?___xxtofl,w
  4164  177B  00BC               	movwf	___fleq@ff1
  4165  177C  1683               	bsf	3,5	;RP0=1, select bank1
  4166  177D  1303               	bcf	3,6	;RP1=0, select bank1
  4167  177E  086A               	movf	(_kp+3)^(0+128),w
  4168  177F  1283               	bcf	3,5	;RP0=0, select bank0
  4169  1780  1303               	bcf	3,6	;RP1=0, select bank0
  4170  1781  00C3               	movwf	___fleq@ff2+3
  4171  1782  1683               	bsf	3,5	;RP0=1, select bank1
  4172  1783  1303               	bcf	3,6	;RP1=0, select bank1
  4173  1784  0869               	movf	(_kp+2)^(0+128),w
  4174  1785  1283               	bcf	3,5	;RP0=0, select bank0
  4175  1786  1303               	bcf	3,6	;RP1=0, select bank0
  4176  1787  00C2               	movwf	___fleq@ff2+2
  4177  1788  1683               	bsf	3,5	;RP0=1, select bank1
  4178  1789  1303               	bcf	3,6	;RP1=0, select bank1
  4179  178A  0868               	movf	(_kp+1)^(0+128),w
  4180  178B  1283               	bcf	3,5	;RP0=0, select bank0
  4181  178C  1303               	bcf	3,6	;RP1=0, select bank0
  4182  178D  00C1               	movwf	___fleq@ff2+1
  4183  178E  1683               	bsf	3,5	;RP0=1, select bank1
  4184  178F  1303               	bcf	3,6	;RP1=0, select bank1
  4185  1790  0867               	movf	_kp^(0+128),w
  4186  1791  1283               	bcf	3,5	;RP0=0, select bank0
  4187  1792  1303               	bcf	3,6	;RP1=0, select bank0
  4188  1793  00C0               	movwf	___fleq@ff2
  4189  1794  160A  118A  2472  160A  118A  	fcall	___fleq
  4190  1799  1803               	btfsc	3,0
  4191  179A  2F9C               	goto	u3971
  4192  179B  2F9D               	goto	u3970
  4193  179C                     u3971:
  4194  179C  2FF9               	goto	l115
  4195  179D                     u3970:
  4196  179D                     l2748:
  4197                           
  4198                           ;main.c: 138:             lcd_cmd(0xC5);
  4199  179D  30C5               	movlw	197
  4200  179E  160A  118A  21FB  160A  118A  	fcall	_lcd_cmd
  4201  17A3                     l2750:
  4202                           
  4203                           ;main.c: 139:             sprintf(kp_string, "%d", kp);
  4204  17A3  301A               	movlw	(low ((STR_1-__stringbase)| (0+32768)))& (0+255)
  4205  17A4  1283               	bcf	3,5	;RP0=0, select bank0
  4206  17A5  1303               	bcf	3,6	;RP1=0, select bank0
  4207  17A6  00C8               	movwf	??_imprimirValoresLcd
  4208  17A7  0848               	movf	??_imprimirValoresLcd,w
  4209  17A8  00A0               	movwf	sprintf@f
  4210  17A9  1683               	bsf	3,5	;RP0=1, select bank1
  4211  17AA  1303               	bcf	3,6	;RP1=0, select bank1
  4212  17AB  086A               	movf	(_kp+3)^(0+128),w
  4213  17AC  1283               	bcf	3,5	;RP0=0, select bank0
  4214  17AD  1303               	bcf	3,6	;RP1=0, select bank0
  4215  17AE  00A4               	movwf	?_sprintf+4
  4216  17AF  1683               	bsf	3,5	;RP0=1, select bank1
  4217  17B0  1303               	bcf	3,6	;RP1=0, select bank1
  4218  17B1  0869               	movf	(_kp+2)^(0+128),w
  4219  17B2  1283               	bcf	3,5	;RP0=0, select bank0
  4220  17B3  1303               	bcf	3,6	;RP1=0, select bank0
  4221  17B4  00A3               	movwf	?_sprintf+3
  4222  17B5  1683               	bsf	3,5	;RP0=1, select bank1
  4223  17B6  1303               	bcf	3,6	;RP1=0, select bank1
  4224  17B7  0868               	movf	(_kp+1)^(0+128),w
  4225  17B8  1283               	bcf	3,5	;RP0=0, select bank0
  4226  17B9  1303               	bcf	3,6	;RP1=0, select bank0
  4227  17BA  00A2               	movwf	?_sprintf+2
  4228  17BB  1683               	bsf	3,5	;RP0=1, select bank1
  4229  17BC  1303               	bcf	3,6	;RP1=0, select bank1
  4230  17BD  0867               	movf	_kp^(0+128),w
  4231  17BE  1283               	bcf	3,5	;RP0=0, select bank0
  4232  17BF  1303               	bcf	3,6	;RP1=0, select bank0
  4233  17C0  00A1               	movwf	?_sprintf+1
  4234  17C1  3010               	movlw	(low (_kp_string| (0+256)))& (0+255)
  4235  17C2  120A  158A  222D  160A  118A  	fcall	_sprintf
  4236  17C7                     l2752:
  4237                           
  4238                           ;main.c: 140:             lcd_str(kp_string);
  4239  17C7  3010               	movlw	(low (_kp_string| (0+256)))& (0+255)
  4240  17C8  00F2               	movwf	lcd_str@str
  4241  17C9  3001               	movlw	1
  4242  17CA  00F3               	movwf	lcd_str@str+1
  4243  17CB  160A  118A  2283  160A  118A  	fcall	_lcd_str
  4244                           
  4245                           ;main.c: 141:             kpReferencia = kp;
  4246  17D0  1683               	bsf	3,5	;RP0=1, select bank1
  4247  17D1  1303               	bcf	3,6	;RP1=0, select bank1
  4248  17D2  086A               	movf	(_kp+3)^(0+128),w
  4249  17D3  1283               	bcf	3,5	;RP0=0, select bank0
  4250  17D4  1303               	bcf	3,6	;RP1=0, select bank0
  4251  17D5  00A9               	movwf	___fltol@f1+3
  4252  17D6  1683               	bsf	3,5	;RP0=1, select bank1
  4253  17D7  1303               	bcf	3,6	;RP1=0, select bank1
  4254  17D8  0869               	movf	(_kp+2)^(0+128),w
  4255  17D9  1283               	bcf	3,5	;RP0=0, select bank0
  4256  17DA  1303               	bcf	3,6	;RP1=0, select bank0
  4257  17DB  00A8               	movwf	___fltol@f1+2
  4258  17DC  1683               	bsf	3,5	;RP0=1, select bank1
  4259  17DD  1303               	bcf	3,6	;RP1=0, select bank1
  4260  17DE  0868               	movf	(_kp+1)^(0+128),w
  4261  17DF  1283               	bcf	3,5	;RP0=0, select bank0
  4262  17E0  1303               	bcf	3,6	;RP1=0, select bank0
  4263  17E1  00A7               	movwf	___fltol@f1+1
  4264  17E2  1683               	bsf	3,5	;RP0=1, select bank1
  4265  17E3  1303               	bcf	3,6	;RP1=0, select bank1
  4266  17E4  0867               	movf	_kp^(0+128),w
  4267  17E5  1283               	bcf	3,5	;RP0=0, select bank0
  4268  17E6  1303               	bcf	3,6	;RP1=0, select bank0
  4269  17E7  00A6               	movwf	___fltol@f1
  4270  17E8  160A  118A  2529  160A  118A  	fcall	___fltol
  4271  17ED  1283               	bcf	3,5	;RP0=0, select bank0
  4272  17EE  1303               	bcf	3,6	;RP1=0, select bank0
  4273  17EF  0827               	movf	?___fltol+1,w
  4274  17F0  1683               	bsf	3,5	;RP0=1, select bank3
  4275  17F1  1703               	bsf	3,6	;RP1=1, select bank3
  4276  17F2  00A9               	movwf	(_kpReferencia+1)^(0+384)
  4277  17F3  1283               	bcf	3,5	;RP0=0, select bank0
  4278  17F4  1303               	bcf	3,6	;RP1=0, select bank0
  4279  17F5  0826               	movf	?___fltol,w
  4280  17F6  1683               	bsf	3,5	;RP0=1, select bank3
  4281  17F7  1703               	bsf	3,6	;RP1=1, select bank3
  4282  17F8  00A8               	movwf	_kpReferencia^(0+384)
  4283  17F9                     l115:	
  4284                           ;main.c: 142:         }
  4285                           
  4286                           
  4287                           ;main.c: 144:         lcd_cmd(0xC9 +6);
  4288  17F9  30CF               	movlw	207
  4289  17FA  160A  118A  21FB  160A  118A  	fcall	_lcd_cmd
  4290  17FF                     l116:
  4291  17FF  0008               	return
  4292  1800                     __end_of_imprimirValoresLcd:
  4293                           
  4294                           	psect	text10
  4295  1661                     __ptext10:	
  4296 ;; *************** function _imprimirTemperatura *****************
  4297 ;; Defined at:
  4298 ;;		line 44 in file "main.c"
  4299 ;; Parameters:    Size  Location     Type
  4300 ;;  tempSet         2   15[BANK0 ] unsigned int 
  4301 ;; Auto vars:     Size  Location     Type
  4302 ;;  dezena          2   22[BANK0 ] int 
  4303 ;;  centena         2   20[BANK0 ] int 
  4304 ;;  milhar          2   18[BANK0 ] int 
  4305 ;; Return value:  Size  Location     Type
  4306 ;;                  1    wreg      void 
  4307 ;; Registers used:
  4308 ;;		wreg, fsr0l, fsr0h, status,2, status,0, btemp+1, pclath, cstack
  4309 ;; Tracked objects:
  4310 ;;		On entry : 0/0
  4311 ;;		On exit  : 0/0
  4312 ;;		Unchanged: 0/0
  4313 ;; Data sizes:     COMMON   BANK0   BANK1   BANK3   BANK2
  4314 ;;      Params:         0       2       0       0       0
  4315 ;;      Locals:         0       8       0       0       0
  4316 ;;      Temps:          0       1       0       0       0
  4317 ;;      Totals:         0      11       0       0       0
  4318 ;;Total ram usage:       11 bytes
  4319 ;; Hardware stack levels used: 1
  4320 ;; Hardware stack levels required when called: 3
  4321 ;; This function calls:
  4322 ;;		___lwdiv
  4323 ;;		___lwmod
  4324 ;;		_lcd_cmd
  4325 ;;		_lcd_str
  4326 ;;		_sprintf
  4327 ;; This function is called by:
  4328 ;;		_imprimirValoresLcd
  4329 ;; This function uses a non-reentrant model
  4330 ;;
  4331                           
  4332                           
  4333                           ;psect for function _imprimirTemperatura
  4334  1661                     _imprimirTemperatura:
  4335  1661                     l2136:	
  4336                           ;incstack = 0
  4337                           ; Regs used in _imprimirTemperatura: [wreg-fsr0h+status,2+status,0+btemp+1+pclath+cstack
      +                          ]
  4338                           
  4339                           
  4340                           ;main.c: 45:     int milhar = tempSet/1000;
  4341  1661  30E8               	movlw	232
  4342  1662  00F6               	movwf	___lwdiv@divisor
  4343  1663  3003               	movlw	3
  4344  1664  00F7               	movwf	___lwdiv@divisor+1
  4345  1665  1283               	bcf	3,5	;RP0=0, select bank0
  4346  1666  1303               	bcf	3,6	;RP1=0, select bank0
  4347  1667  0830               	movf	imprimirTemperatura@tempSet+1,w
  4348  1668  00F9               	movwf	___lwdiv@dividend+1
  4349  1669  082F               	movf	imprimirTemperatura@tempSet,w
  4350  166A  00F8               	movwf	___lwdiv@dividend
  4351  166B  160A  118A  242E  160A  118A  	fcall	___lwdiv
  4352  1670  0877               	movf	?___lwdiv+1,w
  4353  1671  1283               	bcf	3,5	;RP0=0, select bank0
  4354  1672  1303               	bcf	3,6	;RP1=0, select bank0
  4355  1673  00B3               	movwf	imprimirTemperatura@milhar+1
  4356  1674  0876               	movf	?___lwdiv,w
  4357  1675  00B2               	movwf	imprimirTemperatura@milhar
  4358                           
  4359                           ;main.c: 46:     int centena = (tempSet%1000)/100;
  4360  1676  3064               	movlw	100
  4361  1677  00F6               	movwf	___lwdiv@divisor
  4362  1678  3000               	movlw	0
  4363  1679  00F7               	movwf	___lwdiv@divisor+1
  4364  167A  0830               	movf	imprimirTemperatura@tempSet+1,w
  4365  167B  00F3               	movwf	___lwmod@dividend+1
  4366  167C  082F               	movf	imprimirTemperatura@tempSet,w
  4367  167D  00F2               	movwf	___lwmod@dividend
  4368  167E  30E8               	movlw	232
  4369  167F  00F0               	movwf	___lwmod@divisor
  4370  1680  3003               	movlw	3
  4371  1681  00F1               	movwf	___lwmod@divisor+1
  4372  1682  160A  118A  23B4  160A  118A  	fcall	___lwmod
  4373  1687  0871               	movf	?___lwmod+1,w
  4374  1688  00F9               	movwf	___lwdiv@dividend+1
  4375  1689  0870               	movf	?___lwmod,w
  4376  168A  00F8               	movwf	___lwdiv@dividend
  4377  168B  160A  118A  242E  160A  118A  	fcall	___lwdiv
  4378  1690  0877               	movf	?___lwdiv+1,w
  4379  1691  1283               	bcf	3,5	;RP0=0, select bank0
  4380  1692  1303               	bcf	3,6	;RP1=0, select bank0
  4381  1693  00B5               	movwf	imprimirTemperatura@centena+1
  4382  1694  0876               	movf	?___lwdiv,w
  4383  1695  00B4               	movwf	imprimirTemperatura@centena
  4384                           
  4385                           ;main.c: 47:     int dezena = ((tempSet%1000)%100)/10;
  4386  1696  0830               	movf	imprimirTemperatura@tempSet+1,w
  4387  1697  00F3               	movwf	___lwmod@dividend+1
  4388  1698  082F               	movf	imprimirTemperatura@tempSet,w
  4389  1699  00F2               	movwf	___lwmod@dividend
  4390  169A  30E8               	movlw	232
  4391  169B  00F0               	movwf	___lwmod@divisor
  4392  169C  3003               	movlw	3
  4393  169D  00F1               	movwf	___lwmod@divisor+1
  4394  169E  160A  118A  23B4  160A  118A  	fcall	___lwmod
  4395  16A3  0871               	movf	?___lwmod+1,w
  4396  16A4  1283               	bcf	3,5	;RP0=0, select bank0
  4397  16A5  1303               	bcf	3,6	;RP1=0, select bank0
  4398  16A6  00B9               	movwf	_imprimirTemperatura$859+1
  4399  16A7  0870               	movf	?___lwmod,w
  4400  16A8  00B8               	movwf	_imprimirTemperatura$859
  4401                           
  4402                           ;main.c: 47:     int dezena = ((tempSet%1000)%100)/10;
  4403  16A9  300A               	movlw	10
  4404  16AA  00F6               	movwf	___lwdiv@divisor
  4405  16AB  3000               	movlw	0
  4406  16AC  00F7               	movwf	___lwdiv@divisor+1
  4407  16AD  0839               	movf	_imprimirTemperatura$859+1,w
  4408  16AE  00F3               	movwf	___lwmod@dividend+1
  4409  16AF  0838               	movf	_imprimirTemperatura$859,w
  4410  16B0  00F2               	movwf	___lwmod@dividend
  4411  16B1  3064               	movlw	100
  4412  16B2  00F0               	movwf	___lwmod@divisor
  4413  16B3  3000               	movlw	0
  4414  16B4  00F1               	movwf	___lwmod@divisor+1
  4415  16B5  160A  118A  23B4  160A  118A  	fcall	___lwmod
  4416  16BA  0871               	movf	?___lwmod+1,w
  4417  16BB  00F9               	movwf	___lwdiv@dividend+1
  4418  16BC  0870               	movf	?___lwmod,w
  4419  16BD  00F8               	movwf	___lwdiv@dividend
  4420  16BE  160A  118A  242E  160A  118A  	fcall	___lwdiv
  4421  16C3  0877               	movf	?___lwdiv+1,w
  4422  16C4  1283               	bcf	3,5	;RP0=0, select bank0
  4423  16C5  1303               	bcf	3,6	;RP1=0, select bank0
  4424  16C6  00B7               	movwf	imprimirTemperatura@dezena+1
  4425  16C7  0876               	movf	?___lwdiv,w
  4426  16C8  00B6               	movwf	imprimirTemperatura@dezena
  4427                           
  4428                           ;main.c: 49:     lcd_cmd(0x85);
  4429  16C9  3085               	movlw	133
  4430  16CA  160A  118A  21FB  160A  118A  	fcall	_lcd_cmd
  4431  16CF                     l2138:
  4432                           
  4433                           ;main.c: 50:     sprintf(setPoint_string, "%d", milhar);
  4434  16CF  301A               	movlw	(low ((STR_1-__stringbase)| (0+32768)))& (0+255)
  4435  16D0  1283               	bcf	3,5	;RP0=0, select bank0
  4436  16D1  1303               	bcf	3,6	;RP1=0, select bank0
  4437  16D2  00B1               	movwf	??_imprimirTemperatura
  4438  16D3  0831               	movf	??_imprimirTemperatura,w
  4439  16D4  00A0               	movwf	sprintf@f
  4440  16D5  0833               	movf	imprimirTemperatura@milhar+1,w
  4441  16D6  00A2               	movwf	?_sprintf+2
  4442  16D7  0832               	movf	imprimirTemperatura@milhar,w
  4443  16D8  00A1               	movwf	?_sprintf+1
  4444  16D9  30AA               	movlw	(low (_setPoint_string| (0+256)))& (0+255)
  4445  16DA  120A  158A  222D  160A  118A  	fcall	_sprintf
  4446  16DF                     l2140:
  4447                           
  4448                           ;main.c: 51:     lcd_str(setPoint_string);
  4449  16DF  30AA               	movlw	(low (_setPoint_string| (0+256)))& (0+255)
  4450  16E0  00F2               	movwf	lcd_str@str
  4451  16E1  3001               	movlw	1
  4452  16E2  00F3               	movwf	lcd_str@str+1
  4453  16E3  160A  118A  2283  160A  118A  	fcall	_lcd_str
  4454  16E8                     l2142:
  4455                           
  4456                           ;main.c: 52:     sprintf(setPoint_string, "%d", centena);
  4457  16E8  301A               	movlw	(low ((STR_1-__stringbase)| (0+32768)))& (0+255)
  4458  16E9  1283               	bcf	3,5	;RP0=0, select bank0
  4459  16EA  1303               	bcf	3,6	;RP1=0, select bank0
  4460  16EB  00B1               	movwf	??_imprimirTemperatura
  4461  16EC  0831               	movf	??_imprimirTemperatura,w
  4462  16ED  00A0               	movwf	sprintf@f
  4463  16EE  0835               	movf	imprimirTemperatura@centena+1,w
  4464  16EF  00A2               	movwf	?_sprintf+2
  4465  16F0  0834               	movf	imprimirTemperatura@centena,w
  4466  16F1  00A1               	movwf	?_sprintf+1
  4467  16F2  30AA               	movlw	(low (_setPoint_string| (0+256)))& (0+255)
  4468  16F3  120A  158A  222D  160A  118A  	fcall	_sprintf
  4469  16F8                     l2144:
  4470                           
  4471                           ;main.c: 53:     lcd_str(setPoint_string);
  4472  16F8  30AA               	movlw	(low (_setPoint_string| (0+256)))& (0+255)
  4473  16F9  00F2               	movwf	lcd_str@str
  4474  16FA  3001               	movlw	1
  4475  16FB  00F3               	movwf	lcd_str@str+1
  4476  16FC  160A  118A  2283  160A  118A  	fcall	_lcd_str
  4477  1701                     l2146:
  4478                           
  4479                           ;main.c: 54:     lcd_str(".");
  4480  1701  301D               	movlw	(low ((STR_3-__stringbase)| (0+32768)))& (0+255)
  4481  1702  00F2               	movwf	lcd_str@str
  4482  1703  3080               	movlw	128
  4483  1704  00F3               	movwf	lcd_str@str+1
  4484  1705  160A  118A  2283  160A  118A  	fcall	_lcd_str
  4485  170A                     l2148:
  4486                           
  4487                           ;main.c: 55:     sprintf(setPoint_string, "%d", dezena);
  4488  170A  301A               	movlw	(low ((STR_1-__stringbase)| (0+32768)))& (0+255)
  4489  170B  1283               	bcf	3,5	;RP0=0, select bank0
  4490  170C  1303               	bcf	3,6	;RP1=0, select bank0
  4491  170D  00B1               	movwf	??_imprimirTemperatura
  4492  170E  0831               	movf	??_imprimirTemperatura,w
  4493  170F  00A0               	movwf	sprintf@f
  4494  1710  0837               	movf	imprimirTemperatura@dezena+1,w
  4495  1711  00A2               	movwf	?_sprintf+2
  4496  1712  0836               	movf	imprimirTemperatura@dezena,w
  4497  1713  00A1               	movwf	?_sprintf+1
  4498  1714  30AA               	movlw	(low (_setPoint_string| (0+256)))& (0+255)
  4499  1715  120A  158A  222D  160A  118A  	fcall	_sprintf
  4500  171A                     l2150:
  4501                           
  4502                           ;main.c: 56:     lcd_str(setPoint_string);
  4503  171A  30AA               	movlw	(low (_setPoint_string| (0+256)))& (0+255)
  4504  171B  00F2               	movwf	lcd_str@str
  4505  171C  3001               	movlw	1
  4506  171D  00F3               	movwf	lcd_str@str+1
  4507  171E  160A  118A  2283  160A  118A  	fcall	_lcd_str
  4508  1723                     l2152:
  4509                           
  4510                           ;main.c: 57:     lcd_str(" C");
  4511  1723  3017               	movlw	(low ((STR_5-__stringbase)| (0+32768)))& (0+255)
  4512  1724  00F2               	movwf	lcd_str@str
  4513  1725  3080               	movlw	128
  4514  1726  00F3               	movwf	lcd_str@str+1
  4515  1727  160A  118A  2283  160A  118A  	fcall	_lcd_str
  4516  172C                     l73:
  4517  172C  0008               	return
  4518  172D                     __end_of_imprimirTemperatura:
  4519                           
  4520                           	psect	text11
  4521  0A2D                     __ptext11:	
  4522 ;; *************** function _sprintf *****************
  4523 ;; Defined at:
  4524 ;;		line 505 in file "C:\Program Files\Microchip\xc8\v2.32\pic\sources\c90\common\doprnt.c"
  4525 ;; Parameters:    Size  Location     Type
  4526 ;;  sp              1    wreg     PTR unsigned char 
  4527 ;;		 -> kp_string(32), setPoint_string(32), 
  4528 ;;  f               1    0[BANK0 ] PTR const unsigned char 
  4529 ;;		 -> STR_6(3), STR_4(3), STR_2(3), STR_1(3), 
  4530 ;; Auto vars:     Size  Location     Type
  4531 ;;  sp              1   13[BANK0 ] PTR unsigned char 
  4532 ;;		 -> kp_string(32), setPoint_string(32), 
  4533 ;;  tmpval          4    0        struct .
  4534 ;;  val             2   11[BANK0 ] unsigned int 
  4535 ;;  cp              2    0        PTR const unsigned char 
  4536 ;;  len             2    0        unsigned int 
  4537 ;;  c               1   14[BANK0 ] unsigned char 
  4538 ;;  prec            1   10[BANK0 ] char 
  4539 ;;  flag            1    9[BANK0 ] unsigned char 
  4540 ;;  ap              1    8[BANK0 ] PTR void [1]
  4541 ;;		 -> ?_sprintf(2), 
  4542 ;; Return value:  Size  Location     Type
  4543 ;;                  2    0[BANK0 ] int 
  4544 ;; Registers used:
  4545 ;;		wreg, fsr0l, fsr0h, status,2, status,0, btemp+1, pclath, cstack
  4546 ;; Tracked objects:
  4547 ;;		On entry : 0/0
  4548 ;;		On exit  : 0/0
  4549 ;;		Unchanged: 0/0
  4550 ;; Data sizes:     COMMON   BANK0   BANK1   BANK3   BANK2
  4551 ;;      Params:         0       5       0       0       0
  4552 ;;      Locals:         0       7       0       0       0
  4553 ;;      Temps:          0       3       0       0       0
  4554 ;;      Totals:         0      15       0       0       0
  4555 ;;Total ram usage:       15 bytes
  4556 ;; Hardware stack levels used: 1
  4557 ;; Hardware stack levels required when called: 1
  4558 ;; This function calls:
  4559 ;;		___lwdiv
  4560 ;;		___lwmod
  4561 ;; This function is called by:
  4562 ;;		_imprimirTemperatura
  4563 ;;		_imprimirValoresLcd
  4564 ;; This function uses a non-reentrant model
  4565 ;;
  4566                           
  4567                           
  4568                           ;psect for function _sprintf
  4569  0A2D                     _sprintf:
  4570                           
  4571                           ;incstack = 0
  4572                           ; Regs used in _sprintf: [wreg-fsr0h+status,2+status,0+btemp+1+pclath+cstack]
  4573                           ;sprintf@sp stored from wreg
  4574  0A2D  1283               	bcf	3,5	;RP0=0, select bank0
  4575  0A2E  1303               	bcf	3,6	;RP1=0, select bank0
  4576  0A2F  00AD               	movwf	sprintf@sp
  4577  0A30                     l2012:
  4578                           
  4579                           ;C:\Program Files\Microchip\xc8\v2.32\pic\sources\c90\common\doprnt.c: 505: sprintf(char
      +                           * sp, const char * f, ...);C:\Program Files\Microchip\xc8\v2.32\pic\sources\c90\common\
      +                          doprnt.c: 506: {;C:\Program Files\Microchip\xc8\v2.32\pic\sources\c90\common\doprnt.c: 5
      +                          07:  va_list ap;;C:\Program Files\Microchip\xc8\v2.32\pic\sources\c90\common\doprnt.c: 5
      +                          12:  char c;;C:\Program Files\Microchip\xc8\v2.32\pic\sources\c90\common\doprnt.c: 521: 
      +                           signed char prec;;C:\Program Files\Microchip\xc8\v2.32\pic\sources\c90\common\doprnt.c:
      +                           525:  unsigned char flag;
  4580  0A30  3021               	movlw	(low ((?_sprintf| 0+1)))& (0+255)
  4581  0A31  00A5               	movwf	??_sprintf
  4582  0A32  0825               	movf	??_sprintf,w
  4583  0A33  00A8               	movwf	sprintf@ap
  4584                           
  4585                           ;C:\Program Files\Microchip\xc8\v2.32\pic\sources\c90\common\doprnt.c: 553:  while((c = 
      +                          *f++)) {
  4586  0A34  2AFE               	goto	l2064
  4587  0A35                     l2014:
  4588                           
  4589                           ;C:\Program Files\Microchip\xc8\v2.32\pic\sources\c90\common\doprnt.c: 555:   if(c != '%
      +                          ')
  4590  0A35  3025               	movlw	37
  4591  0A36  062E               	xorwf	sprintf@c,w
  4592  0A37  1903               	btfsc	3,2
  4593  0A38  2A3A               	goto	u2311
  4594  0A39  2A3B               	goto	u2310
  4595  0A3A                     u2311:
  4596  0A3A  2A47               	goto	l2020
  4597  0A3B                     u2310:
  4598  0A3B                     l2016:
  4599                           
  4600                           ;C:\Program Files\Microchip\xc8\v2.32\pic\sources\c90\common\doprnt.c: 557:   {;C:\Progr
      +                          am Files\Microchip\xc8\v2.32\pic\sources\c90\common\doprnt.c: 558:    ((*sp++ = (c)));
  4601  0A3B  082E               	movf	sprintf@c,w
  4602  0A3C  00A5               	movwf	??_sprintf
  4603  0A3D  082D               	movf	sprintf@sp,w
  4604  0A3E  0084               	movwf	4
  4605  0A3F  0825               	movf	??_sprintf,w
  4606  0A40  1783               	bsf	3,7	;select IRP bank2
  4607  0A41  0080               	movwf	0
  4608  0A42                     l2018:
  4609  0A42  3001               	movlw	1
  4610  0A43  00A5               	movwf	??_sprintf
  4611  0A44  0825               	movf	??_sprintf,w
  4612  0A45  07AD               	addwf	sprintf@sp,f
  4613                           
  4614                           ;C:\Program Files\Microchip\xc8\v2.32\pic\sources\c90\common\doprnt.c: 559:    continue;
  4615  0A46  2AFE               	goto	l2064
  4616  0A47                     l2020:
  4617                           
  4618                           ;C:\Program Files\Microchip\xc8\v2.32\pic\sources\c90\common\doprnt.c: 565:   flag = 0;
  4619  0A47  01A9               	clrf	sprintf@flag
  4620  0A48                     l2024:	
  4621                           ;C:\Program Files\Microchip\xc8\v2.32\pic\sources\c90\common\doprnt.c: 661:   switch(c =
      +                           *f++) {
  4622                           
  4623  0A48  3001               	movlw	1
  4624  0A49  07A0               	addwf	sprintf@f,f
  4625  0A4A  30FF               	movlw	-1
  4626  0A4B  0720               	addwf	sprintf@f,w
  4627  0A4C  0084               	movwf	4
  4628  0A4D  160A  118A  200A  120A  158A  	fcall	stringdir
  4629  0A52  00AE               	movwf	sprintf@c
  4630  0A53  00A5               	movwf	??_sprintf
  4631  0A54  01A6               	clrf	??_sprintf+1
  4632                           
  4633                           ; Switch on 2 bytes has been partitioned into a top level switch of size 1, and 1 sub-sw
      +                          itches
  4634                           ; Switch size 1, requested type "simple"
  4635                           ; Number of cases is 1, Range of values is 0 to 0
  4636                           ; switch strategies available:
  4637                           ; Name         Instructions Cycles
  4638                           ; simple_byte            4     3 (average)
  4639                           ; direct_byte           11     8 (fixed)
  4640                           ; jumptable            260     6 (fixed)
  4641                           ;	Chosen strategy is simple_byte
  4642  0A55  0826               	movf	??_sprintf+1,w
  4643  0A56  3A00               	xorlw	0	; case 0
  4644  0A57  1903               	skipnz
  4645  0A58  2A5A               	goto	l3006
  4646  0A59  2AFE               	goto	l2064
  4647  0A5A                     l3006:
  4648                           
  4649                           ; Switch size 1, requested type "simple"
  4650                           ; Number of cases is 3, Range of values is 0 to 105
  4651                           ; switch strategies available:
  4652                           ; Name         Instructions Cycles
  4653                           ; simple_byte           10     6 (average)
  4654                           ; jumptable            260     6 (fixed)
  4655                           ;	Chosen strategy is simple_byte
  4656  0A5A  0825               	movf	??_sprintf,w
  4657  0A5B  3A00               	xorlw	0	; case 0
  4658  0A5C  1903               	skipnz
  4659  0A5D  2B10               	goto	l2066
  4660  0A5E  3A64               	xorlw	100	; case 100
  4661  0A5F  1903               	skipnz
  4662  0A60  2A65               	goto	l2026
  4663  0A61  3A0D               	xorlw	13	; case 105
  4664  0A62  1903               	skipnz
  4665  0A63  2A65               	goto	l2026
  4666  0A64  2AFE               	goto	l2064
  4667  0A65                     l2026:
  4668                           
  4669                           ;C:\Program Files\Microchip\xc8\v2.32\pic\sources\c90\common\doprnt.c: 1279:   {;C:\Prog
      +                          ram Files\Microchip\xc8\v2.32\pic\sources\c90\common\doprnt.c: 1285:     val = (unsigned
      +                           int)(*(int *)__va_arg((*(int **)ap), (int)0));
  4670  0A65  0828               	movf	sprintf@ap,w
  4671  0A66  0084               	movwf	4
  4672  0A67  1383               	bcf	3,7	;select IRP bank0
  4673  0A68  0800               	movf	0,w
  4674  0A69  00AB               	movwf	sprintf@val
  4675  0A6A  0A84               	incf	4,f
  4676  0A6B  0800               	movf	0,w
  4677  0A6C  00AC               	movwf	sprintf@val+1
  4678  0A6D                     l2028:
  4679  0A6D  3002               	movlw	2
  4680  0A6E  00A5               	movwf	??_sprintf
  4681  0A6F  0825               	movf	??_sprintf,w
  4682  0A70  07A8               	addwf	sprintf@ap,f
  4683  0A71                     l2030:
  4684                           
  4685                           ;C:\Program Files\Microchip\xc8\v2.32\pic\sources\c90\common\doprnt.c: 1287:    if((int)
      +                          val < 0) {
  4686  0A71  1FAC               	btfss	sprintf@val+1,7
  4687  0A72  2A74               	goto	u2321
  4688  0A73  2A75               	goto	u2320
  4689  0A74                     u2321:
  4690  0A74  2A7E               	goto	l2036
  4691  0A75                     u2320:
  4692  0A75                     l2032:
  4693                           
  4694                           ;C:\Program Files\Microchip\xc8\v2.32\pic\sources\c90\common\doprnt.c: 1288:     flag |=
      +                           0x03;
  4695  0A75  3003               	movlw	3
  4696  0A76  00A5               	movwf	??_sprintf
  4697  0A77  0825               	movf	??_sprintf,w
  4698  0A78  04A9               	iorwf	sprintf@flag,f
  4699  0A79                     l2034:
  4700                           
  4701                           ;C:\Program Files\Microchip\xc8\v2.32\pic\sources\c90\common\doprnt.c: 1289:     val = -
      +                          val;
  4702  0A79  09AB               	comf	sprintf@val,f
  4703  0A7A  09AC               	comf	sprintf@val+1,f
  4704  0A7B  0AAB               	incf	sprintf@val,f
  4705  0A7C  1903               	skipnz
  4706  0A7D  0AAC               	incf	sprintf@val+1,f
  4707  0A7E                     l2036:
  4708                           
  4709                           ;C:\Program Files\Microchip\xc8\v2.32\pic\sources\c90\common\doprnt.c: 1292:   };C:\Prog
      +                          ram Files\Microchip\xc8\v2.32\pic\sources\c90\common\doprnt.c: 1331:    for(c = 1 ; c !=
      +                           sizeof dpowers/sizeof dpowers[0] ; c++)
  4710  0A7E  01AE               	clrf	sprintf@c
  4711  0A7F  0AAE               	incf	sprintf@c,f
  4712  0A80                     l2042:
  4713                           
  4714                           ;C:\Program Files\Microchip\xc8\v2.32\pic\sources\c90\common\doprnt.c: 1332:     if(val 
      +                          < dpowers[c])
  4715  0A80  082E               	movf	sprintf@c,w
  4716  0A81  00A5               	movwf	??_sprintf
  4717  0A82  0725               	addwf	??_sprintf,w
  4718  0A83  3E01               	addlw	low ((_dpowers-__stringbase)| (0+32768))
  4719  0A84  0084               	movwf	4
  4720  0A85  160A  118A  200A  120A  158A  	fcall	stringdir
  4721  0A8A  00A6               	movwf	??_sprintf+1
  4722  0A8B  160A  118A  200A  120A  158A  	fcall	stringdir
  4723  0A90  00A7               	movwf	??_sprintf+2
  4724  0A91  0827               	movf	??_sprintf+2,w
  4725  0A92  022C               	subwf	sprintf@val+1,w
  4726  0A93  1D03               	skipz
  4727  0A94  2A97               	goto	u2335
  4728  0A95  0826               	movf	??_sprintf+1,w
  4729  0A96  022B               	subwf	sprintf@val,w
  4730  0A97                     u2335:
  4731  0A97  1803               	skipnc
  4732  0A98  2A9A               	goto	u2331
  4733  0A99  2A9B               	goto	u2330
  4734  0A9A                     u2331:
  4735  0A9A  2A9C               	goto	l2046
  4736  0A9B                     u2330:
  4737  0A9B  2AA6               	goto	l2048
  4738  0A9C                     l2046:
  4739  0A9C  3001               	movlw	1
  4740  0A9D  00A5               	movwf	??_sprintf
  4741  0A9E  0825               	movf	??_sprintf,w
  4742  0A9F  07AE               	addwf	sprintf@c,f
  4743  0AA0  3005               	movlw	5
  4744  0AA1  062E               	xorwf	sprintf@c,w
  4745  0AA2  1D03               	btfss	3,2
  4746  0AA3  2AA5               	goto	u2341
  4747  0AA4  2AA6               	goto	u2340
  4748  0AA5                     u2341:
  4749  0AA5  2A80               	goto	l2042
  4750  0AA6                     u2340:
  4751  0AA6                     l2048:
  4752                           
  4753                           ;C:\Program Files\Microchip\xc8\v2.32\pic\sources\c90\common\doprnt.c: 1448:   {;C:\Prog
      +                          ram Files\Microchip\xc8\v2.32\pic\sources\c90\common\doprnt.c: 1464:    if(flag & 0x03)
  4754  0AA6  0829               	movf	sprintf@flag,w
  4755  0AA7  3903               	andlw	3
  4756  0AA8  1903               	btfsc	3,2
  4757  0AA9  2AAB               	goto	u2351
  4758  0AAA  2AAC               	goto	u2350
  4759  0AAB                     u2351:
  4760  0AAB  2AB7               	goto	l2054
  4761  0AAC                     u2350:
  4762  0AAC                     l2050:
  4763                           
  4764                           ;C:\Program Files\Microchip\xc8\v2.32\pic\sources\c90\common\doprnt.c: 1465:     ((*sp++
      +                           = ('-')));
  4765  0AAC  302D               	movlw	45
  4766  0AAD  00A5               	movwf	??_sprintf
  4767  0AAE  082D               	movf	sprintf@sp,w
  4768  0AAF  0084               	movwf	4
  4769  0AB0  0825               	movf	??_sprintf,w
  4770  0AB1  1783               	bsf	3,7	;select IRP bank2
  4771  0AB2  0080               	movwf	0
  4772  0AB3                     l2052:
  4773  0AB3  3001               	movlw	1
  4774  0AB4  00A5               	movwf	??_sprintf
  4775  0AB5  0825               	movf	??_sprintf,w
  4776  0AB6  07AD               	addwf	sprintf@sp,f
  4777  0AB7                     l2054:
  4778                           
  4779                           ;C:\Program Files\Microchip\xc8\v2.32\pic\sources\c90\common\doprnt.c: 1495:   };C:\Prog
      +                          ram Files\Microchip\xc8\v2.32\pic\sources\c90\common\doprnt.c: 1498:   prec = c;
  4780  0AB7  082E               	movf	sprintf@c,w
  4781  0AB8  00A5               	movwf	??_sprintf
  4782  0AB9  0825               	movf	??_sprintf,w
  4783  0ABA  00AA               	movwf	sprintf@prec
  4784                           
  4785                           ;C:\Program Files\Microchip\xc8\v2.32\pic\sources\c90\common\doprnt.c: 1500:   while(pre
      +                          c--) {
  4786  0ABB  2AF5               	goto	l2062
  4787  0ABC                     l2056:
  4788                           
  4789                           ;C:\Program Files\Microchip\xc8\v2.32\pic\sources\c90\common\doprnt.c: 1504:    {;C:\Pro
      +                          gram Files\Microchip\xc8\v2.32\pic\sources\c90\common\doprnt.c: 1515:     c = (val / dpo
      +                          wers[(unsigned char)prec]) % 10 + '0';
  4790  0ABC  300A               	movlw	10
  4791  0ABD  00F0               	movwf	___lwmod@divisor
  4792  0ABE  3000               	movlw	0
  4793  0ABF  00F1               	movwf	___lwmod@divisor+1
  4794  0AC0  082A               	movf	sprintf@prec,w
  4795  0AC1  00A5               	movwf	??_sprintf
  4796  0AC2  0725               	addwf	??_sprintf,w
  4797  0AC3  3E01               	addlw	low ((_dpowers-__stringbase)| (0+32768))
  4798  0AC4  0084               	movwf	4
  4799  0AC5  160A  118A  200A  120A  158A  	fcall	stringdir
  4800  0ACA  00F6               	movwf	___lwdiv@divisor
  4801  0ACB  160A  118A  200A  120A  158A  	fcall	stringdir
  4802  0AD0  00F7               	movwf	___lwdiv@divisor+1
  4803  0AD1  082C               	movf	sprintf@val+1,w
  4804  0AD2  00F9               	movwf	___lwdiv@dividend+1
  4805  0AD3  082B               	movf	sprintf@val,w
  4806  0AD4  00F8               	movwf	___lwdiv@dividend
  4807  0AD5  160A  118A  242E  120A  158A  	fcall	___lwdiv
  4808  0ADA  0877               	movf	?___lwdiv+1,w
  4809  0ADB  00F3               	movwf	___lwmod@dividend+1
  4810  0ADC  0876               	movf	?___lwdiv,w
  4811  0ADD  00F2               	movwf	___lwmod@dividend
  4812  0ADE  160A  118A  23B4  120A  158A  	fcall	___lwmod
  4813  0AE3  0870               	movf	?___lwmod,w
  4814  0AE4  3E30               	addlw	48
  4815  0AE5  1283               	bcf	3,5	;RP0=0, select bank0
  4816  0AE6  1303               	bcf	3,6	;RP1=0, select bank0
  4817  0AE7  00A6               	movwf	??_sprintf+1
  4818  0AE8  0826               	movf	??_sprintf+1,w
  4819  0AE9  00AE               	movwf	sprintf@c
  4820  0AEA                     l2058:
  4821                           
  4822                           ;C:\Program Files\Microchip\xc8\v2.32\pic\sources\c90\common\doprnt.c: 1549:    };C:\Pro
      +                          gram Files\Microchip\xc8\v2.32\pic\sources\c90\common\doprnt.c: 1550:    ((*sp++ = (c)))
      +                          ;
  4823  0AEA  082E               	movf	sprintf@c,w
  4824  0AEB  00A5               	movwf	??_sprintf
  4825  0AEC  082D               	movf	sprintf@sp,w
  4826  0AED  0084               	movwf	4
  4827  0AEE  0825               	movf	??_sprintf,w
  4828  0AEF  1783               	bsf	3,7	;select IRP bank2
  4829  0AF0  0080               	movwf	0
  4830  0AF1                     l2060:
  4831  0AF1  3001               	movlw	1
  4832  0AF2  00A5               	movwf	??_sprintf
  4833  0AF3  0825               	movf	??_sprintf,w
  4834  0AF4  07AD               	addwf	sprintf@sp,f
  4835  0AF5                     l2062:
  4836                           
  4837                           ;C:\Program Files\Microchip\xc8\v2.32\pic\sources\c90\common\doprnt.c: 1500:   while(pre
      +                          c--) {
  4838  0AF5  30FF               	movlw	255
  4839  0AF6  00A5               	movwf	??_sprintf
  4840  0AF7  0825               	movf	??_sprintf,w
  4841  0AF8  07AA               	addwf	sprintf@prec,f
  4842  0AF9  0A2A               	incf	sprintf@prec,w
  4843  0AFA  1D03               	btfss	3,2
  4844  0AFB  2AFD               	goto	u2361
  4845  0AFC  2AFE               	goto	u2360
  4846  0AFD                     u2361:
  4847  0AFD  2ABC               	goto	l2056
  4848  0AFE                     u2360:
  4849  0AFE                     l2064:
  4850                           
  4851                           ;C:\Program Files\Microchip\xc8\v2.32\pic\sources\c90\common\doprnt.c: 553:  while((c = 
      +                          *f++)) {
  4852  0AFE  3001               	movlw	1
  4853  0AFF  07A0               	addwf	sprintf@f,f
  4854  0B00  30FF               	movlw	-1
  4855  0B01  0720               	addwf	sprintf@f,w
  4856  0B02  0084               	movwf	4
  4857  0B03  160A  118A  200A  120A  158A  	fcall	stringdir
  4858  0B08  00A5               	movwf	??_sprintf
  4859  0B09  0825               	movf	??_sprintf,w
  4860  0B0A  00AE               	movwf	sprintf@c
  4861  0B0B  082E               	movf	sprintf@c,w
  4862  0B0C  1D03               	btfss	3,2
  4863  0B0D  2B0F               	goto	u2371
  4864  0B0E  2B10               	goto	u2370
  4865  0B0F                     u2371:
  4866  0B0F  2A35               	goto	l2014
  4867  0B10                     u2370:
  4868  0B10                     l2066:
  4869                           
  4870                           ;C:\Program Files\Microchip\xc8\v2.32\pic\sources\c90\common\doprnt.c: 1564:  *sp = 0;
  4871  0B10  082D               	movf	sprintf@sp,w
  4872  0B11  0084               	movwf	4
  4873  0B12  1783               	bsf	3,7	;select IRP bank2
  4874  0B13  0180               	clrf	0
  4875  0B14                     l342:
  4876  0B14  0008               	return
  4877  0B15                     __end_of_sprintf:
  4878                           
  4879                           	psect	text12
  4880  13B4                     __ptext12:	
  4881 ;; *************** function ___lwmod *****************
  4882 ;; Defined at:
  4883 ;;		line 5 in file "C:\Program Files\Microchip\xc8\v2.32\pic\sources\c90\common\lwmod.c"
  4884 ;; Parameters:    Size  Location     Type
  4885 ;;  divisor         2    0[COMMON] unsigned int 
  4886 ;;  dividend        2    2[COMMON] unsigned int 
  4887 ;; Auto vars:     Size  Location     Type
  4888 ;;  counter         1    5[COMMON] unsigned char 
  4889 ;; Return value:  Size  Location     Type
  4890 ;;                  2    0[COMMON] unsigned int 
  4891 ;; Registers used:
  4892 ;;		wreg, status,2, status,0
  4893 ;; Tracked objects:
  4894 ;;		On entry : 0/0
  4895 ;;		On exit  : 0/0
  4896 ;;		Unchanged: 0/0
  4897 ;; Data sizes:     COMMON   BANK0   BANK1   BANK3   BANK2
  4898 ;;      Params:         4       0       0       0       0
  4899 ;;      Locals:         1       0       0       0       0
  4900 ;;      Temps:          1       0       0       0       0
  4901 ;;      Totals:         6       0       0       0       0
  4902 ;;Total ram usage:        6 bytes
  4903 ;; Hardware stack levels used: 1
  4904 ;; This function calls:
  4905 ;;		Nothing
  4906 ;; This function is called by:
  4907 ;;		_imprimirTemperatura
  4908 ;;		_sprintf
  4909 ;; This function uses a non-reentrant model
  4910 ;;
  4911                           
  4912                           
  4913                           ;psect for function ___lwmod
  4914  13B4                     ___lwmod:
  4915  13B4                     l1980:	
  4916                           ;incstack = 0
  4917                           ; Regs used in ___lwmod: [wreg+status,2+status,0]
  4918                           
  4919  13B4  0870               	movf	___lwmod@divisor,w
  4920  13B5  0471               	iorwf	___lwmod@divisor+1,w
  4921  13B6  1903               	btfsc	3,2
  4922  13B7  2BB9               	goto	u2251
  4923  13B8  2BBA               	goto	u2250
  4924  13B9                     u2251:
  4925  13B9  2BE9               	goto	l1998
  4926  13BA                     u2250:
  4927  13BA                     l1982:
  4928  13BA  01F5               	clrf	___lwmod@counter
  4929  13BB  0AF5               	incf	___lwmod@counter,f
  4930  13BC  2BC8               	goto	l1988
  4931  13BD                     l1984:
  4932  13BD  3001               	movlw	1
  4933  13BE                     u2265:
  4934  13BE  1003               	clrc
  4935  13BF  0DF0               	rlf	___lwmod@divisor,f
  4936  13C0  0DF1               	rlf	___lwmod@divisor+1,f
  4937  13C1  3EFF               	addlw	-1
  4938  13C2  1D03               	skipz
  4939  13C3  2BBE               	goto	u2265
  4940  13C4                     l1986:
  4941  13C4  3001               	movlw	1
  4942  13C5  00F4               	movwf	??___lwmod
  4943  13C6  0874               	movf	??___lwmod,w
  4944  13C7  07F5               	addwf	___lwmod@counter,f
  4945  13C8                     l1988:
  4946  13C8  1FF1               	btfss	___lwmod@divisor+1,7
  4947  13C9  2BCB               	goto	u2271
  4948  13CA  2BCC               	goto	u2270
  4949  13CB                     u2271:
  4950  13CB  2BBD               	goto	l1984
  4951  13CC                     u2270:
  4952  13CC                     l1990:
  4953  13CC  0871               	movf	___lwmod@divisor+1,w
  4954  13CD  0273               	subwf	___lwmod@dividend+1,w
  4955  13CE  1D03               	skipz
  4956  13CF  2BD2               	goto	u2285
  4957  13D0  0870               	movf	___lwmod@divisor,w
  4958  13D1  0272               	subwf	___lwmod@dividend,w
  4959  13D2                     u2285:
  4960  13D2  1C03               	skipc
  4961  13D3  2BD5               	goto	u2281
  4962  13D4  2BD6               	goto	u2280
  4963  13D5                     u2281:
  4964  13D5  2BDC               	goto	l1994
  4965  13D6                     u2280:
  4966  13D6                     l1992:
  4967  13D6  0870               	movf	___lwmod@divisor,w
  4968  13D7  02F2               	subwf	___lwmod@dividend,f
  4969  13D8  0871               	movf	___lwmod@divisor+1,w
  4970  13D9  1C03               	skipc
  4971  13DA  03F3               	decf	___lwmod@dividend+1,f
  4972  13DB  02F3               	subwf	___lwmod@dividend+1,f
  4973  13DC                     l1994:
  4974  13DC  3001               	movlw	1
  4975  13DD                     u2295:
  4976  13DD  1003               	clrc
  4977  13DE  0CF1               	rrf	___lwmod@divisor+1,f
  4978  13DF  0CF0               	rrf	___lwmod@divisor,f
  4979  13E0  3EFF               	addlw	-1
  4980  13E1  1D03               	skipz
  4981  13E2  2BDD               	goto	u2295
  4982  13E3                     l1996:
  4983  13E3  3001               	movlw	1
  4984  13E4  02F5               	subwf	___lwmod@counter,f
  4985  13E5  1D03               	btfss	3,2
  4986  13E6  2BE8               	goto	u2301
  4987  13E7  2BE9               	goto	u2300
  4988  13E8                     u2301:
  4989  13E8  2BCC               	goto	l1990
  4990  13E9                     u2300:
  4991  13E9                     l1998:
  4992  13E9  0873               	movf	___lwmod@dividend+1,w
  4993  13EA  00F1               	movwf	?___lwmod+1
  4994  13EB  0872               	movf	___lwmod@dividend,w
  4995  13EC  00F0               	movwf	?___lwmod
  4996  13ED                     l628:
  4997  13ED  0008               	return
  4998  13EE                     __end_of___lwmod:
  4999                           
  5000                           	psect	text13
  5001  142E                     __ptext13:	
  5002 ;; *************** function ___lwdiv *****************
  5003 ;; Defined at:
  5004 ;;		line 5 in file "C:\Program Files\Microchip\xc8\v2.32\pic\sources\c90\common\lwdiv.c"
  5005 ;; Parameters:    Size  Location     Type
  5006 ;;  divisor         2    6[COMMON] unsigned int 
  5007 ;;  dividend        2    8[COMMON] unsigned int 
  5008 ;; Auto vars:     Size  Location     Type
  5009 ;;  quotient        2   11[COMMON] unsigned int 
  5010 ;;  counter         1   13[COMMON] unsigned char 
  5011 ;; Return value:  Size  Location     Type
  5012 ;;                  2    6[COMMON] unsigned int 
  5013 ;; Registers used:
  5014 ;;		wreg, status,2, status,0
  5015 ;; Tracked objects:
  5016 ;;		On entry : 0/0
  5017 ;;		On exit  : 0/0
  5018 ;;		Unchanged: 0/0
  5019 ;; Data sizes:     COMMON   BANK0   BANK1   BANK3   BANK2
  5020 ;;      Params:         4       0       0       0       0
  5021 ;;      Locals:         3       0       0       0       0
  5022 ;;      Temps:          1       0       0       0       0
  5023 ;;      Totals:         8       0       0       0       0
  5024 ;;Total ram usage:        8 bytes
  5025 ;; Hardware stack levels used: 1
  5026 ;; This function calls:
  5027 ;;		Nothing
  5028 ;; This function is called by:
  5029 ;;		_imprimirTemperatura
  5030 ;;		_sprintf
  5031 ;; This function uses a non-reentrant model
  5032 ;;
  5033                           
  5034                           
  5035                           ;psect for function ___lwdiv
  5036  142E                     ___lwdiv:
  5037  142E                     l1954:	
  5038                           ;incstack = 0
  5039                           ; Regs used in ___lwdiv: [wreg+status,2+status,0]
  5040                           
  5041  142E  01FB               	clrf	___lwdiv@quotient
  5042  142F  01FC               	clrf	___lwdiv@quotient+1
  5043  1430                     l1956:
  5044  1430  0876               	movf	___lwdiv@divisor,w
  5045  1431  0477               	iorwf	___lwdiv@divisor+1,w
  5046  1432  1903               	btfsc	3,2
  5047  1433  2C35               	goto	u2181
  5048  1434  2C36               	goto	u2180
  5049  1435                     u2181:
  5050  1435  2C6D               	goto	l1976
  5051  1436                     u2180:
  5052  1436                     l1958:
  5053  1436  01FD               	clrf	___lwdiv@counter
  5054  1437  0AFD               	incf	___lwdiv@counter,f
  5055  1438  2C44               	goto	l1964
  5056  1439                     l1960:
  5057  1439  3001               	movlw	1
  5058  143A                     u2195:
  5059  143A  1003               	clrc
  5060  143B  0DF6               	rlf	___lwdiv@divisor,f
  5061  143C  0DF7               	rlf	___lwdiv@divisor+1,f
  5062  143D  3EFF               	addlw	-1
  5063  143E  1D03               	skipz
  5064  143F  2C3A               	goto	u2195
  5065  1440                     l1962:
  5066  1440  3001               	movlw	1
  5067  1441  00FA               	movwf	??___lwdiv
  5068  1442  087A               	movf	??___lwdiv,w
  5069  1443  07FD               	addwf	___lwdiv@counter,f
  5070  1444                     l1964:
  5071  1444  1FF7               	btfss	___lwdiv@divisor+1,7
  5072  1445  2C47               	goto	u2201
  5073  1446  2C48               	goto	u2200
  5074  1447                     u2201:
  5075  1447  2C39               	goto	l1960
  5076  1448                     u2200:
  5077  1448                     l1966:
  5078  1448  3001               	movlw	1
  5079  1449                     u2215:
  5080  1449  1003               	clrc
  5081  144A  0DFB               	rlf	___lwdiv@quotient,f
  5082  144B  0DFC               	rlf	___lwdiv@quotient+1,f
  5083  144C  3EFF               	addlw	-1
  5084  144D  1D03               	skipz
  5085  144E  2C49               	goto	u2215
  5086  144F  0877               	movf	___lwdiv@divisor+1,w
  5087  1450  0279               	subwf	___lwdiv@dividend+1,w
  5088  1451  1D03               	skipz
  5089  1452  2C55               	goto	u2225
  5090  1453  0876               	movf	___lwdiv@divisor,w
  5091  1454  0278               	subwf	___lwdiv@dividend,w
  5092  1455                     u2225:
  5093  1455  1C03               	skipc
  5094  1456  2C58               	goto	u2221
  5095  1457  2C59               	goto	u2220
  5096  1458                     u2221:
  5097  1458  2C60               	goto	l1972
  5098  1459                     u2220:
  5099  1459                     l1968:
  5100  1459  0876               	movf	___lwdiv@divisor,w
  5101  145A  02F8               	subwf	___lwdiv@dividend,f
  5102  145B  0877               	movf	___lwdiv@divisor+1,w
  5103  145C  1C03               	skipc
  5104  145D  03F9               	decf	___lwdiv@dividend+1,f
  5105  145E  02F9               	subwf	___lwdiv@dividend+1,f
  5106  145F                     l1970:
  5107  145F  147B               	bsf	___lwdiv@quotient,0
  5108  1460                     l1972:
  5109  1460  3001               	movlw	1
  5110  1461                     u2235:
  5111  1461  1003               	clrc
  5112  1462  0CF7               	rrf	___lwdiv@divisor+1,f
  5113  1463  0CF6               	rrf	___lwdiv@divisor,f
  5114  1464  3EFF               	addlw	-1
  5115  1465  1D03               	skipz
  5116  1466  2C61               	goto	u2235
  5117  1467                     l1974:
  5118  1467  3001               	movlw	1
  5119  1468  02FD               	subwf	___lwdiv@counter,f
  5120  1469  1D03               	btfss	3,2
  5121  146A  2C6C               	goto	u2241
  5122  146B  2C6D               	goto	u2240
  5123  146C                     u2241:
  5124  146C  2C48               	goto	l1966
  5125  146D                     u2240:
  5126  146D                     l1976:
  5127  146D  087C               	movf	___lwdiv@quotient+1,w
  5128  146E  00F7               	movwf	?___lwdiv+1
  5129  146F  087B               	movf	___lwdiv@quotient,w
  5130  1470  00F6               	movwf	?___lwdiv
  5131  1471                     l618:
  5132  1471  0008               	return
  5133  1472                     __end_of___lwdiv:
  5134                           
  5135                           	psect	text14
  5136  1283                     __ptext14:	
  5137 ;; *************** function _lcd_str *****************
  5138 ;; Defined at:
  5139 ;;		line 76 in file "lcd.c"
  5140 ;; Parameters:    Size  Location     Type
  5141 ;;  str             2    2[COMMON] PTR const unsigned char 
  5142 ;;		 -> STR_8(6), STR_7(6), kp_string(32), STR_5(3), 
  5143 ;;		 -> STR_3(2), setPoint_string(32), 
  5144 ;; Auto vars:     Size  Location     Type
  5145 ;;  i               1    5[COMMON] unsigned char 
  5146 ;; Return value:  Size  Location     Type
  5147 ;;                  1    wreg      void 
  5148 ;; Registers used:
  5149 ;;		wreg, fsr0l, fsr0h, status,2, status,0, btemp+1, pclath, cstack
  5150 ;; Tracked objects:
  5151 ;;		On entry : 0/0
  5152 ;;		On exit  : 0/0
  5153 ;;		Unchanged: 0/0
  5154 ;; Data sizes:     COMMON   BANK0   BANK1   BANK3   BANK2
  5155 ;;      Params:         2       0       0       0       0
  5156 ;;      Locals:         1       0       0       0       0
  5157 ;;      Temps:          1       0       0       0       0
  5158 ;;      Totals:         4       0       0       0       0
  5159 ;;Total ram usage:        4 bytes
  5160 ;; Hardware stack levels used: 1
  5161 ;; Hardware stack levels required when called: 2
  5162 ;; This function calls:
  5163 ;;		_lcd_dat
  5164 ;; This function is called by:
  5165 ;;		_imprimirTemperatura
  5166 ;;		_imprimirValoresLcd
  5167 ;;		_iniciarLcd
  5168 ;; This function uses a non-reentrant model
  5169 ;;
  5170                           
  5171                           
  5172                           ;psect for function _lcd_str
  5173  1283                     _lcd_str:
  5174  1283                     l2074:	
  5175                           ;incstack = 0
  5176                           ; Regs used in _lcd_str: [wreg-fsr0h+status,2+status,0+btemp+1+pclath+cstack]
  5177                           
  5178                           
  5179                           ;lcd.c: 76: void lcd_str(const char* str);lcd.c: 77: {;lcd.c: 78:  unsigned char i=0;
  5180  1283  01F5               	clrf	lcd_str@i
  5181                           
  5182                           ;lcd.c: 80:  while(str[i] != 0 )
  5183  1284  2A9A               	goto	l2080
  5184  1285                     l2076:
  5185                           
  5186                           ;lcd.c: 81:  {;lcd.c: 82:    lcd_dat(str[i]);
  5187  1285  0875               	movf	lcd_str@i,w
  5188  1286  0772               	addwf	lcd_str@str,w
  5189  1287  0084               	movwf	4
  5190  1288  0873               	movf	lcd_str@str+1,w
  5191  1289  1803               	skipnc
  5192  128A  0A73               	incf	lcd_str@str+1,w
  5193  128B  00FF               	movwf	btemp+1
  5194  128C  160A  118A  2000  160A  118A  	fcall	stringtab
  5195  1291  160A  118A  220B  160A  118A  	fcall	_lcd_dat
  5196  1296                     l2078:
  5197                           
  5198                           ;lcd.c: 83:    i++;
  5199  1296  3001               	movlw	1
  5200  1297  00F4               	movwf	??_lcd_str
  5201  1298  0874               	movf	??_lcd_str,w
  5202  1299  07F5               	addwf	lcd_str@i,f
  5203  129A                     l2080:
  5204                           
  5205                           ;lcd.c: 80:  while(str[i] != 0 )
  5206  129A  0875               	movf	lcd_str@i,w
  5207  129B  0772               	addwf	lcd_str@str,w
  5208  129C  0084               	movwf	4
  5209  129D  0873               	movf	lcd_str@str+1,w
  5210  129E  1803               	skipnc
  5211  129F  0A73               	incf	lcd_str@str+1,w
  5212  12A0  1283               	bcf	3,5	;RP0=0, select bank0
  5213  12A1  1303               	bcf	3,6	;RP1=0, select bank0
  5214  12A2  00FF               	movwf	btemp+1
  5215  12A3  160A  118A  2000  160A  118A  	fcall	stringtab
  5216  12A8  3A00               	xorlw	0
  5217  12A9  1D03               	skipz
  5218  12AA  2AAC               	goto	u2381
  5219  12AB  2AAD               	goto	u2380
  5220  12AC                     u2381:
  5221  12AC  2A85               	goto	l2076
  5222  12AD                     u2380:
  5223  12AD                     l232:
  5224  12AD  0008               	return
  5225  12AE                     __end_of_lcd_str:
  5226                           
  5227                           	psect	text15
  5228  120B                     __ptext15:	
  5229 ;; *************** function _lcd_dat *****************
  5230 ;; Defined at:
  5231 ;;		line 46 in file "lcd.c"
  5232 ;; Parameters:    Size  Location     Type
  5233 ;;  val             1    wreg     unsigned char 
  5234 ;; Auto vars:     Size  Location     Type
  5235 ;;  val             1    1[COMMON] unsigned char 
  5236 ;; Return value:  Size  Location     Type
  5237 ;;                  1    wreg      void 
  5238 ;; Registers used:
  5239 ;;		wreg, status,2, status,0, pclath, cstack
  5240 ;; Tracked objects:
  5241 ;;		On entry : 0/0
  5242 ;;		On exit  : 0/0
  5243 ;;		Unchanged: 0/0
  5244 ;; Data sizes:     COMMON   BANK0   BANK1   BANK3   BANK2
  5245 ;;      Params:         0       0       0       0       0
  5246 ;;      Locals:         1       0       0       0       0
  5247 ;;      Temps:          0       0       0       0       0
  5248 ;;      Totals:         1       0       0       0       0
  5249 ;;Total ram usage:        1 bytes
  5250 ;; Hardware stack levels used: 1
  5251 ;; Hardware stack levels required when called: 1
  5252 ;; This function calls:
  5253 ;;		_lcd_wr
  5254 ;; This function is called by:
  5255 ;;		_lcd_str
  5256 ;; This function uses a non-reentrant model
  5257 ;;
  5258                           
  5259                           
  5260                           ;psect for function _lcd_dat
  5261  120B                     _lcd_dat:
  5262                           
  5263                           ;incstack = 0
  5264                           ; Regs used in _lcd_dat: [wreg+status,2+status,0+pclath+cstack]
  5265                           ;lcd_dat@val stored from wreg
  5266  120B  00F1               	movwf	lcd_dat@val
  5267  120C                     l1944:
  5268                           
  5269                           ;lcd.c: 46: void lcd_dat(unsigned char val);lcd.c: 47: {;lcd.c: 48:  PORTEbits.RE1=1;
  5270  120C  1283               	bcf	3,5	;RP0=0, select bank0
  5271  120D  1303               	bcf	3,6	;RP1=0, select bank0
  5272  120E  1489               	bsf	9,1	;volatile
  5273  120F                     l1946:
  5274                           
  5275                           ;lcd.c: 49:         lcd_wr(val);
  5276  120F  0871               	movf	lcd_dat@val,w
  5277  1210  160A  118A  21C0  160A  118A  	fcall	_lcd_wr
  5278  1215                     l1948:
  5279                           
  5280                           ;lcd.c: 50:         PORTEbits.RE0=1;
  5281  1215  1283               	bcf	3,5	;RP0=0, select bank0
  5282  1216  1303               	bcf	3,6	;RP1=0, select bank0
  5283  1217  1409               	bsf	9,0	;volatile
  5284  1218                     l1950:
  5285                           
  5286                           ;lcd.c: 52:         PORTEbits.RE1=0;
  5287  1218  1089               	bcf	9,1	;volatile
  5288  1219                     l1952:
  5289                           
  5290                           ;lcd.c: 54:  PORTEbits.RE1=1;
  5291  1219  1489               	bsf	9,1	;volatile
  5292  121A                     l223:
  5293  121A  0008               	return
  5294  121B                     __end_of_lcd_dat:
  5295                           
  5296                           	psect	text16
  5297  11FB                     __ptext16:	
  5298 ;; *************** function _lcd_cmd *****************
  5299 ;; Defined at:
  5300 ;;		line 35 in file "lcd.c"
  5301 ;; Parameters:    Size  Location     Type
  5302 ;;  val             1    wreg     unsigned char 
  5303 ;; Auto vars:     Size  Location     Type
  5304 ;;  val             1    1[COMMON] unsigned char 
  5305 ;; Return value:  Size  Location     Type
  5306 ;;                  1    wreg      void 
  5307 ;; Registers used:
  5308 ;;		wreg, status,2, status,0, pclath, cstack
  5309 ;; Tracked objects:
  5310 ;;		On entry : 0/0
  5311 ;;		On exit  : 0/0
  5312 ;;		Unchanged: 0/0
  5313 ;; Data sizes:     COMMON   BANK0   BANK1   BANK3   BANK2
  5314 ;;      Params:         0       0       0       0       0
  5315 ;;      Locals:         1       0       0       0       0
  5316 ;;      Temps:          0       0       0       0       0
  5317 ;;      Totals:         1       0       0       0       0
  5318 ;;Total ram usage:        1 bytes
  5319 ;; Hardware stack levels used: 1
  5320 ;; Hardware stack levels required when called: 1
  5321 ;; This function calls:
  5322 ;;		_lcd_wr
  5323 ;; This function is called by:
  5324 ;;		_imprimirTemperatura
  5325 ;;		_imprimirValoresLcd
  5326 ;;		_iniciarLcd
  5327 ;;		_lcd_init
  5328 ;; This function uses a non-reentrant model
  5329 ;;
  5330                           
  5331                           
  5332                           ;psect for function _lcd_cmd
  5333  11FB                     _lcd_cmd:
  5334                           
  5335                           ;incstack = 0
  5336                           ; Regs used in _lcd_cmd: [wreg+status,2+status,0+pclath+cstack]
  5337                           ;lcd_cmd@val stored from wreg
  5338  11FB  00F1               	movwf	lcd_cmd@val
  5339  11FC                     l2002:
  5340                           
  5341                           ;lcd.c: 35: void lcd_cmd(unsigned char val);lcd.c: 36: {;lcd.c: 37:  PORTEbits.RE1=1;
  5342  11FC  1283               	bcf	3,5	;RP0=0, select bank0
  5343  11FD  1303               	bcf	3,6	;RP1=0, select bank0
  5344  11FE  1489               	bsf	9,1	;volatile
  5345  11FF                     l2004:
  5346                           
  5347                           ;lcd.c: 38:         lcd_wr(val);
  5348  11FF  0871               	movf	lcd_cmd@val,w
  5349  1200  160A  118A  21C0  160A  118A  	fcall	_lcd_wr
  5350  1205                     l2006:
  5351                           
  5352                           ;lcd.c: 39:         PORTEbits.RE0=0;
  5353  1205  1283               	bcf	3,5	;RP0=0, select bank0
  5354  1206  1303               	bcf	3,6	;RP1=0, select bank0
  5355  1207  1009               	bcf	9,0	;volatile
  5356  1208                     l2008:
  5357                           
  5358                           ;lcd.c: 41:         PORTEbits.RE1=0;
  5359  1208  1089               	bcf	9,1	;volatile
  5360  1209                     l2010:
  5361                           
  5362                           ;lcd.c: 43:  PORTEbits.RE1=1;
  5363  1209  1489               	bsf	9,1	;volatile
  5364  120A                     l220:
  5365  120A  0008               	return
  5366  120B                     __end_of_lcd_cmd:
  5367                           
  5368                           	psect	text17
  5369  11C0                     __ptext17:	
  5370 ;; *************** function _lcd_wr *****************
  5371 ;; Defined at:
  5372 ;;		line 30 in file "lcd.c"
  5373 ;; Parameters:    Size  Location     Type
  5374 ;;  val             1    wreg     unsigned char 
  5375 ;; Auto vars:     Size  Location     Type
  5376 ;;  val             1    0[COMMON] unsigned char 
  5377 ;; Return value:  Size  Location     Type
  5378 ;;                  1    wreg      void 
  5379 ;; Registers used:
  5380 ;;		wreg
  5381 ;; Tracked objects:
  5382 ;;		On entry : 0/0
  5383 ;;		On exit  : 0/0
  5384 ;;		Unchanged: 0/0
  5385 ;; Data sizes:     COMMON   BANK0   BANK1   BANK3   BANK2
  5386 ;;      Params:         0       0       0       0       0
  5387 ;;      Locals:         1       0       0       0       0
  5388 ;;      Temps:          0       0       0       0       0
  5389 ;;      Totals:         1       0       0       0       0
  5390 ;;Total ram usage:        1 bytes
  5391 ;; Hardware stack levels used: 1
  5392 ;; This function calls:
  5393 ;;		Nothing
  5394 ;; This function is called by:
  5395 ;;		_lcd_cmd
  5396 ;;		_lcd_dat
  5397 ;; This function uses a non-reentrant model
  5398 ;;
  5399                           
  5400                           
  5401                           ;psect for function _lcd_wr
  5402  11C0                     _lcd_wr:
  5403                           
  5404                           ;incstack = 0
  5405                           ; Regs used in _lcd_wr: [wreg]
  5406                           ;lcd_wr@val stored from wreg
  5407  11C0  00F0               	movwf	lcd_wr@val
  5408  11C1                     l1942:
  5409                           
  5410                           ;lcd.c: 30: void lcd_wr(unsigned char val);lcd.c: 31: {;lcd.c: 32:   PORTD=val;
  5411  11C1  0870               	movf	lcd_wr@val,w
  5412  11C2  1283               	bcf	3,5	;RP0=0, select bank0
  5413  11C3  1303               	bcf	3,6	;RP1=0, select bank0
  5414  11C4  0088               	movwf	8	;volatile
  5415  11C5                     l217:
  5416  11C5  0008               	return
  5417  11C6                     __end_of_lcd_wr:
  5418                           
  5419                           	psect	text18
  5420  1472                     __ptext18:	
  5421 ;; *************** function ___fleq *****************
  5422 ;; Defined at:
  5423 ;;		line 4 in file "C:\Program Files\Microchip\xc8\v2.32\pic\sources\c90\common\fleq.c"
  5424 ;; Parameters:    Size  Location     Type
  5425 ;;  ff1             4   28[BANK0 ] void 
  5426 ;;  ff2             4   32[BANK0 ] void 
  5427 ;; Auto vars:     Size  Location     Type
  5428 ;;		None
  5429 ;; Return value:  Size  Location     Type
  5430 ;;		None               void
  5431 ;; Registers used:
  5432 ;;		wreg, status,2, status,0
  5433 ;; Tracked objects:
  5434 ;;		On entry : 0/0
  5435 ;;		On exit  : 0/0
  5436 ;;		Unchanged: 0/0
  5437 ;; Data sizes:     COMMON   BANK0   BANK1   BANK3   BANK2
  5438 ;;      Params:         0       8       0       0       0
  5439 ;;      Locals:         0       0       0       0       0
  5440 ;;      Temps:          0       4       0       0       0
  5441 ;;      Totals:         0      12       0       0       0
  5442 ;;Total ram usage:       12 bytes
  5443 ;; Hardware stack levels used: 1
  5444 ;; This function calls:
  5445 ;;		Nothing
  5446 ;; This function is called by:
  5447 ;;		_imprimirValoresLcd
  5448 ;; This function uses a non-reentrant model
  5449 ;;
  5450                           
  5451                           
  5452                           ;psect for function ___fleq
  5453  1472                     ___fleq:
  5454  1472                     l2156:	
  5455                           ;incstack = 0
  5456                           ; Regs used in ___fleq: [wreg+status,2+status,0]
  5457                           
  5458  1472  3000               	movlw	0
  5459  1473  1283               	bcf	3,5	;RP0=0, select bank0
  5460  1474  1303               	bcf	3,6	;RP1=0, select bank0
  5461  1475  053C               	andwf	___fleq@ff1,w
  5462  1476  00C4               	movwf	??___fleq
  5463  1477  3000               	movlw	0
  5464  1478  053D               	andwf	___fleq@ff1+1,w
  5465  1479  00C5               	movwf	??___fleq+1
  5466  147A  3080               	movlw	128
  5467  147B  053E               	andwf	___fleq@ff1+2,w
  5468  147C  00C6               	movwf	??___fleq+2
  5469  147D  307F               	movlw	127
  5470  147E  053F               	andwf	___fleq@ff1+3,w
  5471  147F  00C7               	movwf	??___fleq+3
  5472  1480  0847               	movf	??___fleq+3,w
  5473  1481  0446               	iorwf	??___fleq+2,w
  5474  1482  0445               	iorwf	??___fleq+1,w
  5475  1483  0444               	iorwf	??___fleq,w
  5476  1484  1D03               	skipz
  5477  1485  2C87               	goto	u2541
  5478  1486  2C88               	goto	u2540
  5479  1487                     u2541:
  5480  1487  2C90               	goto	l515
  5481  1488                     u2540:
  5482  1488                     l2158:
  5483  1488  3000               	movlw	0
  5484  1489  00BF               	movwf	___fleq@ff1+3
  5485  148A  3000               	movlw	0
  5486  148B  00BE               	movwf	___fleq@ff1+2
  5487  148C  3000               	movlw	0
  5488  148D  00BD               	movwf	___fleq@ff1+1
  5489  148E  3000               	movlw	0
  5490  148F  00BC               	movwf	___fleq@ff1
  5491  1490                     l515:
  5492  1490  3000               	movlw	0
  5493  1491  0540               	andwf	___fleq@ff2,w
  5494  1492  00C4               	movwf	??___fleq
  5495  1493  3000               	movlw	0
  5496  1494  0541               	andwf	___fleq@ff2+1,w
  5497  1495  00C5               	movwf	??___fleq+1
  5498  1496  3080               	movlw	128
  5499  1497  0542               	andwf	___fleq@ff2+2,w
  5500  1498  00C6               	movwf	??___fleq+2
  5501  1499  307F               	movlw	127
  5502  149A  0543               	andwf	___fleq@ff2+3,w
  5503  149B  00C7               	movwf	??___fleq+3
  5504  149C  0847               	movf	??___fleq+3,w
  5505  149D  0446               	iorwf	??___fleq+2,w
  5506  149E  0445               	iorwf	??___fleq+1,w
  5507  149F  0444               	iorwf	??___fleq,w
  5508  14A0  1D03               	skipz
  5509  14A1  2CA3               	goto	u2551
  5510  14A2  2CA4               	goto	u2550
  5511  14A3                     u2551:
  5512  14A3  2CAC               	goto	l516
  5513  14A4                     u2550:
  5514  14A4                     l2160:
  5515  14A4  3000               	movlw	0
  5516  14A5  00C3               	movwf	___fleq@ff2+3
  5517  14A6  3000               	movlw	0
  5518  14A7  00C2               	movwf	___fleq@ff2+2
  5519  14A8  3000               	movlw	0
  5520  14A9  00C1               	movwf	___fleq@ff2+1
  5521  14AA  3000               	movlw	0
  5522  14AB  00C0               	movwf	___fleq@ff2
  5523  14AC                     l516:
  5524  14AC  0843               	movf	___fleq@ff2+3,w
  5525  14AD  063F               	xorwf	___fleq@ff1+3,w
  5526  14AE  1D03               	skipz
  5527  14AF  2CBA               	goto	u2565
  5528  14B0  0842               	movf	___fleq@ff2+2,w
  5529  14B1  063E               	xorwf	___fleq@ff1+2,w
  5530  14B2  1D03               	skipz
  5531  14B3  2CBA               	goto	u2565
  5532  14B4  0841               	movf	___fleq@ff2+1,w
  5533  14B5  063D               	xorwf	___fleq@ff1+1,w
  5534  14B6  1D03               	skipz
  5535  14B7  2CBA               	goto	u2565
  5536  14B8  0840               	movf	___fleq@ff2,w
  5537  14B9  063C               	xorwf	___fleq@ff1,w
  5538  14BA                     u2565:
  5539  14BA  1903               	skipnz
  5540  14BB  2CBD               	goto	u2561
  5541  14BC  2CBE               	goto	u2560
  5542  14BD                     u2561:
  5543  14BD  2CC0               	goto	l2164
  5544  14BE                     u2560:
  5545  14BE                     l2162:
  5546  14BE  1003               	clrc
  5547  14BF  2CC1               	goto	l517
  5548  14C0                     l2164:
  5549  14C0  1403               	setc
  5550  14C1                     l517:
  5551  14C1  0008               	return
  5552  14C2                     __end_of___fleq:
  5553                           
  5554                           	psect	text19
  5555  1312                     __ptext19:	
  5556 ;; *************** function _controlarCooler *****************
  5557 ;; Defined at:
  5558 ;;		line 177 in file "main.c"
  5559 ;; Parameters:    Size  Location     Type
  5560 ;;		None
  5561 ;; Auto vars:     Size  Location     Type
  5562 ;;  cooler          2   35[BANK1 ] int 
  5563 ;; Return value:  Size  Location     Type
  5564 ;;                  1    wreg      void 
  5565 ;; Registers used:
  5566 ;;		wreg, status,2, status,0, btemp+1, pclath, cstack
  5567 ;; Tracked objects:
  5568 ;;		On entry : 0/0
  5569 ;;		On exit  : 0/0
  5570 ;;		Unchanged: 0/0
  5571 ;; Data sizes:     COMMON   BANK0   BANK1   BANK3   BANK2
  5572 ;;      Params:         0       0       0       0       0
  5573 ;;      Locals:         0       0       2       0       0
  5574 ;;      Temps:          0       0       0       0       0
  5575 ;;      Totals:         0       0       2       0       0
  5576 ;;Total ram usage:        2 bytes
  5577 ;; Hardware stack levels used: 1
  5578 ;; Hardware stack levels required when called: 3
  5579 ;; This function calls:
  5580 ;;		_ADC_Read
  5581 ;;		_PWM2_Duty
  5582 ;;		_controleMaximoMinimo
  5583 ;; This function is called by:
  5584 ;;		_main
  5585 ;; This function uses a non-reentrant model
  5586 ;;
  5587                           
  5588                           
  5589                           ;psect for function _controlarCooler
  5590  1312                     _controlarCooler:
  5591  1312                     l2904:	
  5592                           ;incstack = 0
  5593                           ; Regs used in _controlarCooler: [wreg+status,2+status,0+btemp+1+pclath+cstack]
  5594                           
  5595                           
  5596                           ;main.c: 179:     int cooler = (unsigned int)ADC_Read(1);
  5597  1312  3001               	movlw	1
  5598  1313  160A  118A  22DE  160A  118A  	fcall	_ADC_Read
  5599  1318  0871               	movf	?_ADC_Read+1,w
  5600  1319  1683               	bsf	3,5	;RP0=1, select bank1
  5601  131A  1303               	bcf	3,6	;RP1=0, select bank1
  5602  131B  00C4               	movwf	(controlarCooler@cooler+1)^(0+128)
  5603  131C  0870               	movf	?_ADC_Read,w
  5604  131D  00C3               	movwf	controlarCooler@cooler^(0+128)
  5605  131E                     l2906:
  5606                           
  5607                           ;main.c: 180:     cooler = controleMaximoMinimo(cooler);
  5608  131E  0844               	movf	(controlarCooler@cooler+1)^(0+128),w
  5609  131F  1283               	bcf	3,5	;RP0=0, select bank0
  5610  1320  1303               	bcf	3,6	;RP1=0, select bank0
  5611  1321  00AD               	movwf	controleMaximoMinimo@valor+1
  5612  1322  1683               	bsf	3,5	;RP0=1, select bank1
  5613  1323  1303               	bcf	3,6	;RP1=0, select bank1
  5614  1324  0843               	movf	controlarCooler@cooler^(0+128),w
  5615  1325  1283               	bcf	3,5	;RP0=0, select bank0
  5616  1326  1303               	bcf	3,6	;RP1=0, select bank0
  5617  1327  00AC               	movwf	controleMaximoMinimo@valor
  5618  1328  160A  118A  221B  160A  118A  	fcall	_controleMaximoMinimo
  5619  132D  1283               	bcf	3,5	;RP0=0, select bank0
  5620  132E  1303               	bcf	3,6	;RP1=0, select bank0
  5621  132F  082D               	movf	?_controleMaximoMinimo+1,w
  5622  1330  1683               	bsf	3,5	;RP0=1, select bank1
  5623  1331  1303               	bcf	3,6	;RP1=0, select bank1
  5624  1332  00C4               	movwf	(controlarCooler@cooler+1)^(0+128)
  5625  1333  1283               	bcf	3,5	;RP0=0, select bank0
  5626  1334  1303               	bcf	3,6	;RP1=0, select bank0
  5627  1335  082C               	movf	?_controleMaximoMinimo,w
  5628  1336  1683               	bsf	3,5	;RP0=1, select bank1
  5629  1337  1303               	bcf	3,6	;RP1=0, select bank1
  5630  1338  00C3               	movwf	controlarCooler@cooler^(0+128)
  5631  1339                     l2908:
  5632                           
  5633                           ;main.c: 181:     PWM2_Duty(cooler, 4000);
  5634  1339  0844               	movf	(controlarCooler@cooler+1)^(0+128),w
  5635  133A  00BE               	movwf	(PWM2_Duty@duty+1)^(0+128)
  5636  133B  0843               	movf	controlarCooler@cooler^(0+128),w
  5637  133C  00BD               	movwf	PWM2_Duty@duty^(0+128)
  5638  133D  30A0               	movlw	160
  5639  133E  00BF               	movwf	PWM2_Duty@freq^(0+128)
  5640  133F  300F               	movlw	15
  5641  1340  00C0               	movwf	(PWM2_Duty@freq^(0+128)+1)
  5642  1341  120A  158A  2065  160A  118A  	fcall	_PWM2_Duty
  5643  1346                     l125:
  5644  1346  0008               	return
  5645  1347                     __end_of_controlarCooler:
  5646                           
  5647                           	psect	text20
  5648  121B                     __ptext20:	
  5649 ;; *************** function _controleMaximoMinimo *****************
  5650 ;; Defined at:
  5651 ;;		line 116 in file "main.c"
  5652 ;; Parameters:    Size  Location     Type
  5653 ;;  valor           2   12[BANK0 ] int 
  5654 ;; Auto vars:     Size  Location     Type
  5655 ;;		None
  5656 ;; Return value:  Size  Location     Type
  5657 ;;                  2   12[BANK0 ] int 
  5658 ;; Registers used:
  5659 ;;		wreg, status,2, btemp+1
  5660 ;; Tracked objects:
  5661 ;;		On entry : 0/0
  5662 ;;		On exit  : 0/0
  5663 ;;		Unchanged: 0/0
  5664 ;; Data sizes:     COMMON   BANK0   BANK1   BANK3   BANK2
  5665 ;;      Params:         0       2       0       0       0
  5666 ;;      Locals:         0       0       0       0       0
  5667 ;;      Temps:          0       0       0       0       0
  5668 ;;      Totals:         0       2       0       0       0
  5669 ;;Total ram usage:        2 bytes
  5670 ;; Hardware stack levels used: 1
  5671 ;; This function calls:
  5672 ;;		Nothing
  5673 ;; This function is called by:
  5674 ;;		_realizarCalculo
  5675 ;;		_controlarCooler
  5676 ;; This function uses a non-reentrant model
  5677 ;;
  5678                           
  5679                           
  5680                           ;psect for function _controleMaximoMinimo
  5681  121B                     _controleMaximoMinimo:
  5682  121B                     l2724:	
  5683                           ;incstack = 0
  5684                           ; Regs used in _controleMaximoMinimo: [wreg+status,2+btemp+1]
  5685                           
  5686                           
  5687                           ;main.c: 117:     if (valor < 0){
  5688  121B  1283               	bcf	3,5	;RP0=0, select bank0
  5689  121C  1303               	bcf	3,6	;RP1=0, select bank0
  5690  121D  1FAD               	btfss	controleMaximoMinimo@valor+1,7
  5691  121E  2A20               	goto	u3931
  5692  121F  2A21               	goto	u3930
  5693  1220                     u3931:
  5694  1220  2A23               	goto	l2728
  5695  1221                     u3930:
  5696  1221                     l2726:
  5697                           
  5698                           ;main.c: 118:         valor = 0;
  5699  1221  01AC               	clrf	controleMaximoMinimo@valor
  5700  1222  01AD               	clrf	controleMaximoMinimo@valor+1
  5701  1223                     l2728:
  5702                           
  5703                           ;main.c: 121:     if (valor > 1023){
  5704  1223  082D               	movf	controleMaximoMinimo@valor+1,w
  5705  1224  3A80               	xorlw	128
  5706  1225  00FF               	movwf	btemp+1
  5707  1226  3084               	movlw	132
  5708  1227  027F               	subwf	btemp+1,w
  5709  1228  1D03               	skipz
  5710  1229  2A2C               	goto	u3945
  5711  122A  3000               	movlw	0
  5712  122B  022C               	subwf	controleMaximoMinimo@valor,w
  5713  122C                     u3945:
  5714  122C  1C03               	skipc
  5715  122D  2A2F               	goto	u3941
  5716  122E  2A30               	goto	u3940
  5717  122F                     u3941:
  5718  122F  2A36               	goto	l2732
  5719  1230                     u3940:
  5720  1230                     l2730:
  5721                           
  5722                           ;main.c: 122:         valor = 1023;
  5723  1230  30FF               	movlw	255
  5724  1231  1283               	bcf	3,5	;RP0=0, select bank0
  5725  1232  1303               	bcf	3,6	;RP1=0, select bank0
  5726  1233  00AC               	movwf	controleMaximoMinimo@valor
  5727  1234  3003               	movlw	3
  5728  1235  00AD               	movwf	controleMaximoMinimo@valor+1
  5729  1236                     l2732:
  5730  1236                     l109:	
  5731                           ;main.c: 125:     return valor;
  5732                           
  5733  1236  0008               	return
  5734  1237                     __end_of_controleMaximoMinimo:
  5735                           
  5736                           	psect	text21
  5737  0865                     __ptext21:	
  5738 ;; *************** function _PWM2_Duty *****************
  5739 ;; Defined at:
  5740 ;;		line 29 in file "PWM.c"
  5741 ;; Parameters:    Size  Location     Type
  5742 ;;  duty            2   29[BANK1 ] unsigned int 
  5743 ;;  freq            2   31[BANK1 ] unsigned int 
  5744 ;; Auto vars:     Size  Location     Type
  5745 ;;		None
  5746 ;; Return value:  Size  Location     Type
  5747 ;;                  1    wreg      void 
  5748 ;; Registers used:
  5749 ;;		wreg, status,2, status,0, btemp+1, pclath, cstack
  5750 ;; Tracked objects:
  5751 ;;		On entry : 0/0
  5752 ;;		On exit  : 0/0
  5753 ;;		Unchanged: 0/0
  5754 ;; Data sizes:     COMMON   BANK0   BANK1   BANK3   BANK2
  5755 ;;      Params:         0       0       4       0       0
  5756 ;;      Locals:         0       0       0       0       0
  5757 ;;      Temps:          0       0       2       0       0
  5758 ;;      Totals:         0       0       6       0       0
  5759 ;;Total ram usage:        6 bytes
  5760 ;; Hardware stack levels used: 1
  5761 ;; Hardware stack levels required when called: 2
  5762 ;; This function calls:
  5763 ;;		_PWM_Init
  5764 ;;		___aldiv
  5765 ;;		___fldiv
  5766 ;;		___flmul
  5767 ;;		___fltol
  5768 ;;		___xxtofl
  5769 ;; This function is called by:
  5770 ;;		_controlarCooler
  5771 ;; This function uses a non-reentrant model
  5772 ;;
  5773                           
  5774                           
  5775                           ;psect for function _PWM2_Duty
  5776  0865                     _PWM2_Duty:
  5777  0865                     l2786:	
  5778                           ;incstack = 0
  5779                           ; Regs used in _PWM2_Duty: [wreg+status,2+status,0+btemp+1+pclath+cstack]
  5780                           
  5781                           
  5782                           ;PWM.c: 29: void PWM2_Duty(unsigned int duty, unsigned int freq);PWM.c: 30: {;PWM.c: 31:
      +                             PWM_Init(freq);
  5783  0865  1683               	bsf	3,5	;RP0=1, select bank1
  5784  0866  1303               	bcf	3,6	;RP1=0, select bank1
  5785  0867  083F               	movf	PWM2_Duty@freq^(0+128),w
  5786  0868  1283               	bcf	3,5	;RP0=0, select bank0
  5787  0869  1303               	bcf	3,6	;RP1=0, select bank0
  5788  086A  00A6               	movwf	PWM_Init@freq
  5789  086B  1683               	bsf	3,5	;RP0=1, select bank1
  5790  086C  1303               	bcf	3,6	;RP1=0, select bank1
  5791  086D  0840               	movf	(PWM2_Duty@freq+1)^(0+128),w
  5792  086E  1283               	bcf	3,5	;RP0=0, select bank0
  5793  086F  1303               	bcf	3,6	;RP1=0, select bank0
  5794  0870  00A7               	movwf	PWM_Init@freq+1
  5795  0871  01A8               	clrf	PWM_Init@freq+2
  5796  0872  01A9               	clrf	PWM_Init@freq+3
  5797  0873  160A  118A  237D  120A  158A  	fcall	_PWM_Init
  5798  0878                     l2788:
  5799                           
  5800                           ;PWM.c: 32:   if(duty<1024)
  5801  0878  3004               	movlw	4
  5802  0879  1683               	bsf	3,5	;RP0=1, select bank1
  5803  087A  1303               	bcf	3,6	;RP1=0, select bank1
  5804  087B  023E               	subwf	(PWM2_Duty@duty+1)^(0+128),w
  5805  087C  3000               	movlw	0
  5806  087D  1903               	skipnz
  5807  087E  023D               	subwf	PWM2_Duty@duty^(0+128),w
  5808  087F  1803               	skipnc
  5809  0880  2882               	goto	u4051
  5810  0881  2883               	goto	u4050
  5811  0882                     u4051:
  5812  0882  2948               	goto	l176
  5813  0883                     u4050:
  5814  0883                     l2790:
  5815                           
  5816                           ;PWM.c: 33:   {;PWM.c: 34:     duty = ((float)duty/1023.0)*(4000000/(freq*4));
  5817  0883  083D               	movf	PWM2_Duty@duty^(0+128),w
  5818  0884  1283               	bcf	3,5	;RP0=0, select bank0
  5819  0885  1303               	bcf	3,6	;RP1=0, select bank0
  5820  0886  00AE               	movwf	___xxtofl@val
  5821  0887  1683               	bsf	3,5	;RP0=1, select bank1
  5822  0888  1303               	bcf	3,6	;RP1=0, select bank1
  5823  0889  083E               	movf	(PWM2_Duty@duty+1)^(0+128),w
  5824  088A  1283               	bcf	3,5	;RP0=0, select bank0
  5825  088B  1303               	bcf	3,6	;RP1=0, select bank0
  5826  088C  00AF               	movwf	___xxtofl@val+1
  5827  088D  01B0               	clrf	___xxtofl@val+2
  5828  088E  01B1               	clrf	___xxtofl@val+3
  5829  088F  3000               	movlw	0
  5830  0890  160A  118A  25A5  120A  158A  	fcall	___xxtofl
  5831  0895  1283               	bcf	3,5	;RP0=0, select bank0
  5832  0896  1303               	bcf	3,6	;RP1=0, select bank0
  5833  0897  0831               	movf	?___xxtofl+3,w
  5834  0898  1683               	bsf	3,5	;RP0=1, select bank1
  5835  0899  1303               	bcf	3,6	;RP1=0, select bank1
  5836  089A  00AF               	movwf	(___fldiv@b+3)^(0+128)
  5837  089B  1283               	bcf	3,5	;RP0=0, select bank0
  5838  089C  1303               	bcf	3,6	;RP1=0, select bank0
  5839  089D  0830               	movf	?___xxtofl+2,w
  5840  089E  1683               	bsf	3,5	;RP0=1, select bank1
  5841  089F  1303               	bcf	3,6	;RP1=0, select bank1
  5842  08A0  00AE               	movwf	(___fldiv@b+2)^(0+128)
  5843  08A1  1283               	bcf	3,5	;RP0=0, select bank0
  5844  08A2  1303               	bcf	3,6	;RP1=0, select bank0
  5845  08A3  082F               	movf	?___xxtofl+1,w
  5846  08A4  1683               	bsf	3,5	;RP0=1, select bank1
  5847  08A5  1303               	bcf	3,6	;RP1=0, select bank1
  5848  08A6  00AD               	movwf	(___fldiv@b+1)^(0+128)
  5849  08A7  1283               	bcf	3,5	;RP0=0, select bank0
  5850  08A8  1303               	bcf	3,6	;RP1=0, select bank0
  5851  08A9  082E               	movf	?___xxtofl,w
  5852  08AA  1683               	bsf	3,5	;RP0=1, select bank1
  5853  08AB  1303               	bcf	3,6	;RP1=0, select bank1
  5854  08AC  00AC               	movwf	___fldiv@b^(0+128)
  5855  08AD  3044               	movlw	68
  5856  08AE  00AB               	movwf	(___fldiv@a+3)^(0+128)
  5857  08AF  307F               	movlw	127
  5858  08B0  00AA               	movwf	(___fldiv@a+2)^(0+128)
  5859  08B1  30C0               	movlw	192
  5860  08B2  00A9               	movwf	(___fldiv@a+1)^(0+128)
  5861  08B3  3000               	movlw	0
  5862  08B4  00A8               	movwf	___fldiv@a^(0+128)
  5863  08B5  120A  158A  2315  120A  158A  	fcall	___fldiv
  5864  08BA  1683               	bsf	3,5	;RP0=1, select bank1
  5865  08BB  1303               	bcf	3,6	;RP1=0, select bank1
  5866  08BC  082B               	movf	(?___fldiv+3)^(0+128),w
  5867  08BD  1283               	bcf	3,5	;RP0=0, select bank0
  5868  08BE  1303               	bcf	3,6	;RP1=0, select bank0
  5869  08BF  00C3               	movwf	___flmul@a+3
  5870  08C0  1683               	bsf	3,5	;RP0=1, select bank1
  5871  08C1  1303               	bcf	3,6	;RP1=0, select bank1
  5872  08C2  082A               	movf	(?___fldiv+2)^(0+128),w
  5873  08C3  1283               	bcf	3,5	;RP0=0, select bank0
  5874  08C4  1303               	bcf	3,6	;RP1=0, select bank0
  5875  08C5  00C2               	movwf	___flmul@a+2
  5876  08C6  1683               	bsf	3,5	;RP0=1, select bank1
  5877  08C7  1303               	bcf	3,6	;RP1=0, select bank1
  5878  08C8  0829               	movf	(?___fldiv+1)^(0+128),w
  5879  08C9  1283               	bcf	3,5	;RP0=0, select bank0
  5880  08CA  1303               	bcf	3,6	;RP1=0, select bank0
  5881  08CB  00C1               	movwf	___flmul@a+1
  5882  08CC  1683               	bsf	3,5	;RP0=1, select bank1
  5883  08CD  1303               	bcf	3,6	;RP1=0, select bank1
  5884  08CE  0828               	movf	?___fldiv^(0+128),w
  5885  08CF  1283               	bcf	3,5	;RP0=0, select bank0
  5886  08D0  1303               	bcf	3,6	;RP1=0, select bank0
  5887  08D1  00C0               	movwf	___flmul@a
  5888  08D2  3000               	movlw	0
  5889  08D3  00F7               	movwf	___aldiv@dividend+3
  5890  08D4  303D               	movlw	61
  5891  08D5  00F6               	movwf	___aldiv@dividend+2
  5892  08D6  3009               	movlw	9
  5893  08D7  00F5               	movwf	___aldiv@dividend+1
  5894  08D8  3000               	movlw	0
  5895  08D9  00F4               	movwf	___aldiv@dividend
  5896  08DA  1683               	bsf	3,5	;RP0=1, select bank1
  5897  08DB  1303               	bcf	3,6	;RP1=0, select bank1
  5898  08DC  0840               	movf	(PWM2_Duty@freq+1)^(0+128),w
  5899  08DD  00C2               	movwf	(??_PWM2_Duty^(0+128)+1)
  5900  08DE  083F               	movf	PWM2_Duty@freq^(0+128),w
  5901  08DF  00C1               	movwf	??_PWM2_Duty^(0+128)
  5902  08E0  1003               	clrc
  5903  08E1  0DC1               	rlf	??_PWM2_Duty^(0+128),f
  5904  08E2  0DC2               	rlf	(??_PWM2_Duty^(0+128)+1),f
  5905  08E3  1003               	clrc
  5906  08E4  0DC1               	rlf	??_PWM2_Duty^(0+128),f
  5907  08E5  0DC2               	rlf	(??_PWM2_Duty^(0+128)+1),f
  5908  08E6  0841               	movf	??_PWM2_Duty^(0+128),w
  5909  08E7  00F0               	movwf	___aldiv@divisor
  5910  08E8  0842               	movf	(??_PWM2_Duty+1)^(0+128),w
  5911  08E9  00F1               	movwf	___aldiv@divisor+1
  5912  08EA  01F2               	clrf	___aldiv@divisor+2
  5913  08EB  01F3               	clrf	___aldiv@divisor+3
  5914  08EC  120A  118A  2006  120A  158A  	fcall	___aldiv
  5915  08F1  0873               	movf	?___aldiv+3,w
  5916  08F2  1283               	bcf	3,5	;RP0=0, select bank0
  5917  08F3  1303               	bcf	3,6	;RP1=0, select bank0
  5918  08F4  00B1               	movwf	___xxtofl@val+3
  5919  08F5  0872               	movf	?___aldiv+2,w
  5920  08F6  00B0               	movwf	___xxtofl@val+2
  5921  08F7  0871               	movf	?___aldiv+1,w
  5922  08F8  00AF               	movwf	___xxtofl@val+1
  5923  08F9  0870               	movf	?___aldiv,w
  5924  08FA  00AE               	movwf	___xxtofl@val
  5925  08FB  3001               	movlw	1
  5926  08FC  160A  118A  25A5  120A  158A  	fcall	___xxtofl
  5927  0901  1283               	bcf	3,5	;RP0=0, select bank0
  5928  0902  1303               	bcf	3,6	;RP1=0, select bank0
  5929  0903  0831               	movf	?___xxtofl+3,w
  5930  0904  00BF               	movwf	___flmul@b+3
  5931  0905  0830               	movf	?___xxtofl+2,w
  5932  0906  00BE               	movwf	___flmul@b+2
  5933  0907  082F               	movf	?___xxtofl+1,w
  5934  0908  00BD               	movwf	___flmul@b+1
  5935  0909  082E               	movf	?___xxtofl,w
  5936  090A  00BC               	movwf	___flmul@b
  5937  090B  120A  118A  20A3  120A  158A  	fcall	___flmul
  5938  0910  1283               	bcf	3,5	;RP0=0, select bank0
  5939  0911  1303               	bcf	3,6	;RP1=0, select bank0
  5940  0912  083F               	movf	?___flmul+3,w
  5941  0913  00A9               	movwf	___fltol@f1+3
  5942  0914  083E               	movf	?___flmul+2,w
  5943  0915  00A8               	movwf	___fltol@f1+2
  5944  0916  083D               	movf	?___flmul+1,w
  5945  0917  00A7               	movwf	___fltol@f1+1
  5946  0918  083C               	movf	?___flmul,w
  5947  0919  00A6               	movwf	___fltol@f1
  5948  091A  160A  118A  2529  120A  158A  	fcall	___fltol
  5949  091F  1283               	bcf	3,5	;RP0=0, select bank0
  5950  0920  1303               	bcf	3,6	;RP1=0, select bank0
  5951  0921  0827               	movf	?___fltol+1,w
  5952  0922  1683               	bsf	3,5	;RP0=1, select bank1
  5953  0923  1303               	bcf	3,6	;RP1=0, select bank1
  5954  0924  00BE               	movwf	(PWM2_Duty@duty+1)^(0+128)
  5955  0925  1283               	bcf	3,5	;RP0=0, select bank0
  5956  0926  1303               	bcf	3,6	;RP1=0, select bank0
  5957  0927  0826               	movf	?___fltol,w
  5958  0928  1683               	bsf	3,5	;RP0=1, select bank1
  5959  0929  1303               	bcf	3,6	;RP1=0, select bank1
  5960  092A  00BD               	movwf	PWM2_Duty@duty^(0+128)
  5961  092B                     l2792:
  5962                           
  5963                           ;PWM.c: 35:     CCP2X = duty & 0b00000010;;
  5964  092B  1283               	bcf	3,5	;RP0=0, select bank0
  5965  092C  1303               	bcf	3,6	;RP1=0, select bank0
  5966  092D  129D               	bcf	29,5	;volatile
  5967  092E                     l2794:
  5968                           
  5969                           ;PWM.c: 36:     CCP2Y = duty & 0b00000001;;
  5970  092E  1683               	bsf	3,5	;RP0=1, select bank1
  5971  092F  1303               	bcf	3,6	;RP1=0, select bank1
  5972  0930  183D               	btfsc	PWM2_Duty@duty^(0+128),0
  5973  0931  2933               	goto	u4061
  5974  0932  2937               	goto	u4060
  5975  0933                     u4061:
  5976  0933  1283               	bcf	3,5	;RP0=0, select bank0
  5977  0934  1303               	bcf	3,6	;RP1=0, select bank0
  5978  0935  161D               	bsf	29,4	;volatile
  5979  0936  293A               	goto	u4074
  5980  0937                     u4060:
  5981  0937  1283               	bcf	3,5	;RP0=0, select bank0
  5982  0938  1303               	bcf	3,6	;RP1=0, select bank0
  5983  0939  121D               	bcf	29,4	;volatile
  5984  093A                     u4074:
  5985  093A                     l2796:
  5986                           
  5987                           ;PWM.c: 37:     CCPR2L = (unsigned char)duty>>2;
  5988  093A  1683               	bsf	3,5	;RP0=1, select bank1
  5989  093B  1303               	bcf	3,6	;RP1=0, select bank1
  5990  093C  083D               	movf	PWM2_Duty@duty^(0+128),w
  5991  093D  00C1               	movwf	??_PWM2_Duty^(0+128)
  5992  093E  3002               	movlw	2
  5993  093F                     u4085:
  5994  093F  1003               	clrc
  5995  0940  0CC1               	rrf	??_PWM2_Duty^(0+128),f
  5996  0941  3EFF               	addlw	-1
  5997  0942  1D03               	skipz
  5998  0943  293F               	goto	u4085
  5999  0944  0841               	movf	??_PWM2_Duty^(0+128),w
  6000  0945  1283               	bcf	3,5	;RP0=0, select bank0
  6001  0946  1303               	bcf	3,6	;RP1=0, select bank0
  6002  0947  009B               	movwf	27	;volatile
  6003  0948                     l176:
  6004  0948  0008               	return
  6005  0949                     __end_of_PWM2_Duty:
  6006                           
  6007                           	psect	text22
  6008  15A5                     __ptext22:	
  6009 ;; *************** function ___xxtofl *****************
  6010 ;; Defined at:
  6011 ;;		line 10 in file "C:\Program Files\Microchip\xc8\v2.32\pic\sources\c90\common\xxtofl.c"
  6012 ;; Parameters:    Size  Location     Type
  6013 ;;  sign            1    wreg     unsigned char 
  6014 ;;  val             4   14[BANK0 ] long 
  6015 ;; Auto vars:     Size  Location     Type
  6016 ;;  sign            1   22[BANK0 ] unsigned char 
  6017 ;;  arg             4   24[BANK0 ] unsigned long 
  6018 ;;  exp             1   23[BANK0 ] unsigned char 
  6019 ;; Return value:  Size  Location     Type
  6020 ;;                  4   14[BANK0 ] unsigned char 
  6021 ;; Registers used:
  6022 ;;		wreg, status,2, status,0
  6023 ;; Tracked objects:
  6024 ;;		On entry : 0/0
  6025 ;;		On exit  : 0/0
  6026 ;;		Unchanged: 0/0
  6027 ;; Data sizes:     COMMON   BANK0   BANK1   BANK3   BANK2
  6028 ;;      Params:         0       4       0       0       0
  6029 ;;      Locals:         0       6       0       0       0
  6030 ;;      Temps:          0       4       0       0       0
  6031 ;;      Totals:         0      14       0       0       0
  6032 ;;Total ram usage:       14 bytes
  6033 ;; Hardware stack levels used: 1
  6034 ;; This function calls:
  6035 ;;		Nothing
  6036 ;; This function is called by:
  6037 ;;		_imprimirValoresLcd
  6038 ;;		_realizarCalculo
  6039 ;;		_PWM1_Duty
  6040 ;;		_PWM2_Duty
  6041 ;; This function uses a non-reentrant model
  6042 ;;
  6043                           
  6044                           
  6045                           ;psect for function ___xxtofl
  6046  15A5                     ___xxtofl:
  6047                           
  6048                           ;incstack = 0
  6049                           ; Regs used in ___xxtofl: [wreg+status,2+status,0]
  6050                           ;___xxtofl@sign stored from wreg
  6051  15A5  1283               	bcf	3,5	;RP0=0, select bank0
  6052  15A6  1303               	bcf	3,6	;RP1=0, select bank0
  6053  15A7  00B6               	movwf	___xxtofl@sign
  6054  15A8                     l2680:
  6055  15A8  0836               	movf	___xxtofl@sign,w
  6056  15A9  1903               	btfsc	3,2
  6057  15AA  2DAC               	goto	u3791
  6058  15AB  2DAD               	goto	u3790
  6059  15AC                     u3791:
  6060  15AC  2DC1               	goto	l2686
  6061  15AD                     u3790:
  6062  15AD                     l2682:
  6063  15AD  1FB1               	btfss	___xxtofl@val+3,7
  6064  15AE  2DB0               	goto	u3801
  6065  15AF  2DB1               	goto	u3800
  6066  15B0                     u3801:
  6067  15B0  2DC1               	goto	l2686
  6068  15B1                     u3800:
  6069  15B1                     l2684:
  6070  15B1  092E               	comf	___xxtofl@val,w
  6071  15B2  00B8               	movwf	___xxtofl@arg
  6072  15B3  092F               	comf	___xxtofl@val+1,w
  6073  15B4  00B9               	movwf	___xxtofl@arg+1
  6074  15B5  0930               	comf	___xxtofl@val+2,w
  6075  15B6  00BA               	movwf	___xxtofl@arg+2
  6076  15B7  0931               	comf	___xxtofl@val+3,w
  6077  15B8  00BB               	movwf	___xxtofl@arg+3
  6078  15B9  0AB8               	incf	___xxtofl@arg,f
  6079  15BA  1903               	skipnz
  6080  15BB  0AB9               	incf	___xxtofl@arg+1,f
  6081  15BC  1903               	skipnz
  6082  15BD  0ABA               	incf	___xxtofl@arg+2,f
  6083  15BE  1903               	skipnz
  6084  15BF  0ABB               	incf	___xxtofl@arg+3,f
  6085  15C0  2DC9               	goto	l779
  6086  15C1                     l2686:
  6087  15C1  0831               	movf	___xxtofl@val+3,w
  6088  15C2  00BB               	movwf	___xxtofl@arg+3
  6089  15C3  0830               	movf	___xxtofl@val+2,w
  6090  15C4  00BA               	movwf	___xxtofl@arg+2
  6091  15C5  082F               	movf	___xxtofl@val+1,w
  6092  15C6  00B9               	movwf	___xxtofl@arg+1
  6093  15C7  082E               	movf	___xxtofl@val,w
  6094  15C8  00B8               	movwf	___xxtofl@arg
  6095  15C9                     l779:
  6096  15C9  0831               	movf	___xxtofl@val+3,w
  6097  15CA  0430               	iorwf	___xxtofl@val+2,w
  6098  15CB  042F               	iorwf	___xxtofl@val+1,w
  6099  15CC  042E               	iorwf	___xxtofl@val,w
  6100  15CD  1D03               	skipz
  6101  15CE  2DD0               	goto	u3811
  6102  15CF  2DD1               	goto	u3810
  6103  15D0                     u3811:
  6104  15D0  2DDA               	goto	l2692
  6105  15D1                     u3810:
  6106  15D1                     l2688:
  6107  15D1  3000               	movlw	0
  6108  15D2  00B1               	movwf	?___xxtofl+3
  6109  15D3  3000               	movlw	0
  6110  15D4  00B0               	movwf	?___xxtofl+2
  6111  15D5  3000               	movlw	0
  6112  15D6  00AF               	movwf	?___xxtofl+1
  6113  15D7  3000               	movlw	0
  6114  15D8  00AE               	movwf	?___xxtofl
  6115  15D9  2E60               	goto	l781
  6116  15DA                     l2692:
  6117  15DA  3096               	movlw	150
  6118  15DB  00B2               	movwf	??___xxtofl
  6119  15DC  0832               	movf	??___xxtofl,w
  6120  15DD  00B7               	movwf	___xxtofl@exp
  6121  15DE  2DEC               	goto	l2696
  6122  15DF                     l2694:
  6123  15DF  3001               	movlw	1
  6124  15E0  00B2               	movwf	??___xxtofl
  6125  15E1  0832               	movf	??___xxtofl,w
  6126  15E2  07B7               	addwf	___xxtofl@exp,f
  6127  15E3  3001               	movlw	1
  6128  15E4                     u3825:
  6129  15E4  1003               	clrc
  6130  15E5  0CBB               	rrf	___xxtofl@arg+3,f
  6131  15E6  0CBA               	rrf	___xxtofl@arg+2,f
  6132  15E7  0CB9               	rrf	___xxtofl@arg+1,f
  6133  15E8  0CB8               	rrf	___xxtofl@arg,f
  6134  15E9  3EFF               	addlw	-1
  6135  15EA  1D03               	skipz
  6136  15EB  2DE4               	goto	u3825
  6137  15EC                     l2696:
  6138  15EC  30FE               	movlw	254
  6139  15ED  053B               	andwf	___xxtofl@arg+3,w
  6140  15EE  1D03               	btfss	3,2
  6141  15EF  2DF1               	goto	u3831
  6142  15F0  2DF2               	goto	u3830
  6143  15F1                     u3831:
  6144  15F1  2DDF               	goto	l2694
  6145  15F2                     u3830:
  6146  15F2  2E0E               	goto	l785
  6147  15F3                     l2698:
  6148  15F3  3001               	movlw	1
  6149  15F4  00B2               	movwf	??___xxtofl
  6150  15F5  0832               	movf	??___xxtofl,w
  6151  15F6  07B7               	addwf	___xxtofl@exp,f
  6152  15F7                     l2700:
  6153  15F7  3001               	movlw	1
  6154  15F8  07B8               	addwf	___xxtofl@arg,f
  6155  15F9  3000               	movlw	0
  6156  15FA  1803               	skipnc
  6157  15FB  3001               	movlw	1
  6158  15FC  07B9               	addwf	___xxtofl@arg+1,f
  6159  15FD  3000               	movlw	0
  6160  15FE  1803               	skipnc
  6161  15FF  3001               	movlw	1
  6162  1600  07BA               	addwf	___xxtofl@arg+2,f
  6163  1601  3000               	movlw	0
  6164  1602  1803               	skipnc
  6165  1603  3001               	movlw	1
  6166  1604  07BB               	addwf	___xxtofl@arg+3,f
  6167  1605                     l2702:
  6168  1605  3001               	movlw	1
  6169  1606                     u3845:
  6170  1606  1003               	clrc
  6171  1607  0CBB               	rrf	___xxtofl@arg+3,f
  6172  1608  0CBA               	rrf	___xxtofl@arg+2,f
  6173  1609  0CB9               	rrf	___xxtofl@arg+1,f
  6174  160A  0CB8               	rrf	___xxtofl@arg,f
  6175  160B  3EFF               	addlw	-1
  6176  160C  1D03               	skipz
  6177  160D  2E06               	goto	u3845
  6178  160E                     l785:
  6179  160E  30FF               	movlw	255
  6180  160F  053B               	andwf	___xxtofl@arg+3,w
  6181  1610  1D03               	btfss	3,2
  6182  1611  2E13               	goto	u3851
  6183  1612  2E14               	goto	u3850
  6184  1613                     u3851:
  6185  1613  2DF3               	goto	l2698
  6186  1614                     u3850:
  6187  1614  2E20               	goto	l2706
  6188  1615                     l2704:
  6189  1615  3001               	movlw	1
  6190  1616  02B7               	subwf	___xxtofl@exp,f
  6191  1617  3001               	movlw	1
  6192  1618  00B2               	movwf	??___xxtofl
  6193  1619                     u3865:
  6194  1619  1003               	clrc
  6195  161A  0DB8               	rlf	___xxtofl@arg,f
  6196  161B  0DB9               	rlf	___xxtofl@arg+1,f
  6197  161C  0DBA               	rlf	___xxtofl@arg+2,f
  6198  161D  0DBB               	rlf	___xxtofl@arg+3,f
  6199  161E  0BB2               	decfsz	??___xxtofl,f
  6200  161F  2E19               	goto	u3865
  6201  1620                     l2706:
  6202  1620  1BBA               	btfsc	___xxtofl@arg+2,7
  6203  1621  2E23               	goto	u3871
  6204  1622  2E24               	goto	u3870
  6205  1623                     u3871:
  6206  1623  2E2A               	goto	l792
  6207  1624                     u3870:
  6208  1624                     l2708:
  6209  1624  3002               	movlw	2
  6210  1625  0237               	subwf	___xxtofl@exp,w
  6211  1626  1803               	skipnc
  6212  1627  2E29               	goto	u3881
  6213  1628  2E2A               	goto	u3880
  6214  1629                     u3881:
  6215  1629  2E15               	goto	l2704
  6216  162A                     u3880:
  6217  162A                     l792:
  6218  162A  1837               	btfsc	___xxtofl@exp,0
  6219  162B  2E2D               	goto	u3891
  6220  162C  2E2E               	goto	u3890
  6221  162D                     u3891:
  6222  162D  2E36               	goto	l793
  6223  162E                     u3890:
  6224  162E                     l2710:
  6225  162E  30FF               	movlw	255
  6226  162F  05B8               	andwf	___xxtofl@arg,f
  6227  1630  30FF               	movlw	255
  6228  1631  05B9               	andwf	___xxtofl@arg+1,f
  6229  1632  307F               	movlw	127
  6230  1633  05BA               	andwf	___xxtofl@arg+2,f
  6231  1634  30FF               	movlw	255
  6232  1635  05BB               	andwf	___xxtofl@arg+3,f
  6233  1636                     l793:
  6234  1636  1003               	clrc
  6235  1637  0CB7               	rrf	___xxtofl@exp,f
  6236  1638                     l2712:
  6237  1638  0837               	movf	___xxtofl@exp,w
  6238  1639  00B2               	movwf	??___xxtofl
  6239  163A  01B3               	clrf	??___xxtofl+1
  6240  163B  01B4               	clrf	??___xxtofl+2
  6241  163C  01B5               	clrf	??___xxtofl+3
  6242  163D  3018               	movlw	24
  6243  163E                     u3905:
  6244  163E  1003               	clrc
  6245  163F  0DB2               	rlf	??___xxtofl,f
  6246  1640  0DB3               	rlf	??___xxtofl+1,f
  6247  1641  0DB4               	rlf	??___xxtofl+2,f
  6248  1642  0DB5               	rlf	??___xxtofl+3,f
  6249  1643                     u3900:
  6250  1643  3EFF               	addlw	-1
  6251  1644  1D03               	skipz
  6252  1645  2E3E               	goto	u3905
  6253  1646  0832               	movf	??___xxtofl,w
  6254  1647  04B8               	iorwf	___xxtofl@arg,f
  6255  1648  0833               	movf	??___xxtofl+1,w
  6256  1649  04B9               	iorwf	___xxtofl@arg+1,f
  6257  164A  0834               	movf	??___xxtofl+2,w
  6258  164B  04BA               	iorwf	___xxtofl@arg+2,f
  6259  164C  0835               	movf	??___xxtofl+3,w
  6260  164D  04BB               	iorwf	___xxtofl@arg+3,f
  6261  164E                     l2714:
  6262  164E  0836               	movf	___xxtofl@sign,w
  6263  164F  1903               	btfsc	3,2
  6264  1650  2E52               	goto	u3911
  6265  1651  2E53               	goto	u3910
  6266  1652                     u3911:
  6267  1652  2E58               	goto	l2720
  6268  1653                     u3910:
  6269  1653                     l2716:
  6270  1653  1FB1               	btfss	___xxtofl@val+3,7
  6271  1654  2E56               	goto	u3921
  6272  1655  2E57               	goto	u3920
  6273  1656                     u3921:
  6274  1656  2E58               	goto	l2720
  6275  1657                     u3920:
  6276  1657                     l2718:
  6277  1657  17BB               	bsf	___xxtofl@arg+3,7
  6278  1658                     l2720:
  6279  1658  083B               	movf	___xxtofl@arg+3,w
  6280  1659  00B1               	movwf	?___xxtofl+3
  6281  165A  083A               	movf	___xxtofl@arg+2,w
  6282  165B  00B0               	movwf	?___xxtofl+2
  6283  165C  0839               	movf	___xxtofl@arg+1,w
  6284  165D  00AF               	movwf	?___xxtofl+1
  6285  165E  0838               	movf	___xxtofl@arg,w
  6286  165F  00AE               	movwf	?___xxtofl
  6287  1660                     l781:
  6288  1660  0008               	return
  6289  1661                     __end_of___xxtofl:
  6290                           
  6291                           	psect	text23
  6292  1529                     __ptext23:	
  6293 ;; *************** function ___fltol *****************
  6294 ;; Defined at:
  6295 ;;		line 43 in file "C:\Program Files\Microchip\xc8\v2.32\pic\sources\c90\common\fltol.c"
  6296 ;; Parameters:    Size  Location     Type
  6297 ;;  f1              4    6[BANK0 ] unsigned char 
  6298 ;; Auto vars:     Size  Location     Type
  6299 ;;  exp1            1   11[BANK0 ] unsigned char 
  6300 ;;  sign1           1   10[BANK0 ] unsigned char 
  6301 ;; Return value:  Size  Location     Type
  6302 ;;                  4    6[BANK0 ] long 
  6303 ;; Registers used:
  6304 ;;		wreg, status,2, status,0
  6305 ;; Tracked objects:
  6306 ;;		On entry : 0/0
  6307 ;;		On exit  : 0/0
  6308 ;;		Unchanged: 0/0
  6309 ;; Data sizes:     COMMON   BANK0   BANK1   BANK3   BANK2
  6310 ;;      Params:         0       4       0       0       0
  6311 ;;      Locals:         0       2       0       0       0
  6312 ;;      Temps:          5       0       0       0       0
  6313 ;;      Totals:         5       6       0       0       0
  6314 ;;Total ram usage:       11 bytes
  6315 ;; Hardware stack levels used: 1
  6316 ;; This function calls:
  6317 ;;		Nothing
  6318 ;; This function is called by:
  6319 ;;		_imprimirValoresLcd
  6320 ;;		_realizarCalculo
  6321 ;;		_PWM1_Duty
  6322 ;;		_PWM2_Duty
  6323 ;; This function uses a non-reentrant model
  6324 ;;
  6325                           
  6326                           
  6327                           ;psect for function ___fltol
  6328  1529                     ___fltol:
  6329  1529                     l2168:	
  6330                           ;incstack = 0
  6331                           ; Regs used in ___fltol: [wreg+status,2+status,0]
  6332                           
  6333  1529  1003               	clrc
  6334  152A  1283               	bcf	3,5	;RP0=0, select bank0
  6335  152B  1303               	bcf	3,6	;RP1=0, select bank0
  6336  152C  0D28               	rlf	___fltol@f1+2,w
  6337  152D  0D29               	rlf	___fltol@f1+3,w
  6338  152E  00F9               	movwf	??___fltol
  6339  152F  0879               	movf	??___fltol,w
  6340  1530  00AB               	movwf	___fltol@exp1
  6341  1531  082B               	movf	___fltol@exp1,w
  6342  1532  1D03               	btfss	3,2
  6343  1533  2D35               	goto	u2571
  6344  1534  2D36               	goto	u2570
  6345  1535                     u2571:
  6346  1535  2D3F               	goto	l2174
  6347  1536                     u2570:
  6348  1536                     l2170:
  6349  1536  3000               	movlw	0
  6350  1537  00A9               	movwf	?___fltol+3
  6351  1538  3000               	movlw	0
  6352  1539  00A8               	movwf	?___fltol+2
  6353  153A  3000               	movlw	0
  6354  153B  00A7               	movwf	?___fltol+1
  6355  153C  3000               	movlw	0
  6356  153D  00A6               	movwf	?___fltol
  6357  153E  2DA4               	goto	l532
  6358  153F                     l2174:
  6359  153F  0826               	movf	___fltol@f1,w
  6360  1540  00F9               	movwf	??___fltol
  6361  1541  0827               	movf	___fltol@f1+1,w
  6362  1542  00FA               	movwf	??___fltol+1
  6363  1543  0828               	movf	___fltol@f1+2,w
  6364  1544  00FB               	movwf	??___fltol+2
  6365  1545  0829               	movf	___fltol@f1+3,w
  6366  1546  00FC               	movwf	??___fltol+3
  6367  1547  301F               	movlw	31
  6368  1548                     u2585:
  6369  1548  1003               	clrc
  6370  1549  0CFC               	rrf	??___fltol+3,f
  6371  154A  0CFB               	rrf	??___fltol+2,f
  6372  154B  0CFA               	rrf	??___fltol+1,f
  6373  154C  0CF9               	rrf	??___fltol,f
  6374  154D                     u2580:
  6375  154D  3EFF               	addlw	-1
  6376  154E  1D03               	skipz
  6377  154F  2D48               	goto	u2585
  6378  1550  0879               	movf	??___fltol,w
  6379  1551  00FD               	movwf	??___fltol+4
  6380  1552  087D               	movf	??___fltol+4,w
  6381  1553  00AA               	movwf	___fltol@sign1
  6382  1554                     l2176:
  6383  1554  17A8               	bsf	___fltol@f1+2,7
  6384  1555                     l2178:
  6385  1555  30FF               	movlw	255
  6386  1556  05A6               	andwf	___fltol@f1,f
  6387  1557  30FF               	movlw	255
  6388  1558  05A7               	andwf	___fltol@f1+1,f
  6389  1559  30FF               	movlw	255
  6390  155A  05A8               	andwf	___fltol@f1+2,f
  6391  155B  3000               	movlw	0
  6392  155C  05A9               	andwf	___fltol@f1+3,f
  6393  155D                     l2180:
  6394  155D  3096               	movlw	150
  6395  155E  02AB               	subwf	___fltol@exp1,f
  6396  155F                     l2182:
  6397  155F  1FAB               	btfss	___fltol@exp1,7
  6398  1560  2D62               	goto	u2591
  6399  1561  2D63               	goto	u2590
  6400  1562                     u2591:
  6401  1562  2D7D               	goto	l2192
  6402  1563                     u2590:
  6403  1563                     l2184:
  6404  1563  082B               	movf	___fltol@exp1,w
  6405  1564  3A80               	xorlw	128
  6406  1565  3E97               	addlw	151
  6407  1566  1803               	skipnc
  6408  1567  2D69               	goto	u2601
  6409  1568  2D6A               	goto	u2600
  6410  1569                     u2601:
  6411  1569  2D6B               	goto	l2190
  6412  156A                     u2600:
  6413  156A  2D36               	goto	l2170
  6414  156B                     l2190:
  6415  156B  3001               	movlw	1
  6416  156C                     u2615:
  6417  156C  1003               	clrc
  6418  156D  0CA9               	rrf	___fltol@f1+3,f
  6419  156E  0CA8               	rrf	___fltol@f1+2,f
  6420  156F  0CA7               	rrf	___fltol@f1+1,f
  6421  1570  0CA6               	rrf	___fltol@f1,f
  6422  1571  3EFF               	addlw	-1
  6423  1572  1D03               	skipz
  6424  1573  2D6C               	goto	u2615
  6425  1574  3001               	movlw	1
  6426  1575  00F9               	movwf	??___fltol
  6427  1576  0879               	movf	??___fltol,w
  6428  1577  07AB               	addwf	___fltol@exp1,f
  6429  1578  1D03               	btfss	3,2
  6430  1579  2D7B               	goto	u2621
  6431  157A  2D7C               	goto	u2620
  6432  157B                     u2621:
  6433  157B  2D6B               	goto	l2190
  6434  157C                     u2620:
  6435  157C  2D94               	goto	l2200
  6436  157D                     l2192:
  6437  157D  3020               	movlw	32
  6438  157E  022B               	subwf	___fltol@exp1,w
  6439  157F  1C03               	skipc
  6440  1580  2D82               	goto	u2631
  6441  1581  2D83               	goto	u2630
  6442  1582                     u2631:
  6443  1582  2D8F               	goto	l539
  6444  1583                     u2630:
  6445  1583  2D36               	goto	l2170
  6446  1584                     l2198:
  6447  1584  3001               	movlw	1
  6448  1585  00F9               	movwf	??___fltol
  6449  1586                     u2645:
  6450  1586  1003               	clrc
  6451  1587  0DA6               	rlf	___fltol@f1,f
  6452  1588  0DA7               	rlf	___fltol@f1+1,f
  6453  1589  0DA8               	rlf	___fltol@f1+2,f
  6454  158A  0DA9               	rlf	___fltol@f1+3,f
  6455  158B  0BF9               	decfsz	??___fltol,f
  6456  158C  2D86               	goto	u2645
  6457  158D  3001               	movlw	1
  6458  158E  02AB               	subwf	___fltol@exp1,f
  6459  158F                     l539:
  6460  158F  082B               	movf	___fltol@exp1,w
  6461  1590  1D03               	btfss	3,2
  6462  1591  2D93               	goto	u2651
  6463  1592  2D94               	goto	u2650
  6464  1593                     u2651:
  6465  1593  2D84               	goto	l2198
  6466  1594                     u2650:
  6467  1594                     l2200:
  6468  1594  082A               	movf	___fltol@sign1,w
  6469  1595  1903               	btfsc	3,2
  6470  1596  2D98               	goto	u2661
  6471  1597  2D99               	goto	u2660
  6472  1598                     u2661:
  6473  1598  2DA4               	goto	l542
  6474  1599                     u2660:
  6475  1599                     l2202:
  6476  1599  09A6               	comf	___fltol@f1,f
  6477  159A  09A7               	comf	___fltol@f1+1,f
  6478  159B  09A8               	comf	___fltol@f1+2,f
  6479  159C  09A9               	comf	___fltol@f1+3,f
  6480  159D  0AA6               	incf	___fltol@f1,f
  6481  159E  1903               	skipnz
  6482  159F  0AA7               	incf	___fltol@f1+1,f
  6483  15A0  1903               	skipnz
  6484  15A1  0AA8               	incf	___fltol@f1+2,f
  6485  15A2  1903               	skipnz
  6486  15A3  0AA9               	incf	___fltol@f1+3,f
  6487  15A4                     l542:
  6488  15A4                     l532:
  6489  15A4  0008               	return
  6490  15A5                     __end_of___fltol:
  6491                           
  6492                           	psect	text24
  6493  00A3                     __ptext24:	
  6494 ;; *************** function ___flmul *****************
  6495 ;; Defined at:
  6496 ;;		line 8 in file "C:\Program Files\Microchip\xc8\v2.32\pic\sources\c90\common\sprcmul.c"
  6497 ;; Parameters:    Size  Location     Type
  6498 ;;  b               4   28[BANK0 ] long 
  6499 ;;  a               4   32[BANK0 ] long 
  6500 ;; Auto vars:     Size  Location     Type
  6501 ;;  prod            4   48[BANK0 ] struct .
  6502 ;;  grs             4   42[BANK0 ] unsigned long 
  6503 ;;  temp            2   52[BANK0 ] struct .
  6504 ;;  bexp            1   47[BANK0 ] unsigned char 
  6505 ;;  aexp            1   46[BANK0 ] unsigned char 
  6506 ;;  sign            1   41[BANK0 ] unsigned char 
  6507 ;; Return value:  Size  Location     Type
  6508 ;;                  4   28[BANK0 ] unsigned char 
  6509 ;; Registers used:
  6510 ;;		wreg, status,2, status,0, btemp+1, pclath, cstack
  6511 ;; Tracked objects:
  6512 ;;		On entry : 0/0
  6513 ;;		On exit  : 0/0
  6514 ;;		Unchanged: 0/0
  6515 ;; Data sizes:     COMMON   BANK0   BANK1   BANK3   BANK2
  6516 ;;      Params:         0       8       0       0       0
  6517 ;;      Locals:         0      13       0       0       0
  6518 ;;      Temps:          0       5       0       0       0
  6519 ;;      Totals:         0      26       0       0       0
  6520 ;;Total ram usage:       26 bytes
  6521 ;; Hardware stack levels used: 1
  6522 ;; Hardware stack levels required when called: 1
  6523 ;; This function calls:
  6524 ;;		__Umul8_16
  6525 ;; This function is called by:
  6526 ;;		_realizarCalculo
  6527 ;;		_PWM1_Duty
  6528 ;;		_PWM2_Duty
  6529 ;; This function uses a non-reentrant model
  6530 ;;
  6531                           
  6532                           
  6533                           ;psect for function ___flmul
  6534  00A3                     ___flmul:
  6535  00A3                     l2540:	
  6536                           ;incstack = 0
  6537                           ; Regs used in ___flmul: [wreg+status,2+status,0+btemp+1+pclath+cstack]
  6538                           
  6539  00A3  1283               	bcf	3,5	;RP0=0, select bank0
  6540  00A4  1303               	bcf	3,6	;RP1=0, select bank0
  6541  00A5  083F               	movf	___flmul@b+3,w
  6542  00A6  3980               	andlw	128
  6543  00A7  00C4               	movwf	??___flmul
  6544  00A8  0844               	movf	??___flmul,w
  6545  00A9  00C9               	movwf	___flmul@sign
  6546  00AA                     l2542:
  6547  00AA  083F               	movf	___flmul@b+3,w
  6548  00AB  00C4               	movwf	??___flmul
  6549  00AC  0744               	addwf	??___flmul,w
  6550  00AD  00C5               	movwf	??___flmul+1
  6551  00AE  0845               	movf	??___flmul+1,w
  6552  00AF  00CF               	movwf	___flmul@bexp
  6553  00B0                     l2544:
  6554  00B0  1FBE               	btfss	___flmul@b+2,7
  6555  00B1  28B3               	goto	u3421
  6556  00B2  28B4               	goto	u3420
  6557  00B3                     u3421:
  6558  00B3  28B5               	goto	l2548
  6559  00B4                     u3420:
  6560  00B4                     l2546:
  6561  00B4  144F               	bsf	___flmul@bexp,0
  6562  00B5                     l2548:
  6563  00B5  084F               	movf	___flmul@bexp,w
  6564  00B6  1903               	btfsc	3,2
  6565  00B7  28B9               	goto	u3431
  6566  00B8  28BA               	goto	u3430
  6567  00B9                     u3431:
  6568  00B9  28C9               	goto	l2556
  6569  00BA                     u3430:
  6570  00BA                     l2550:
  6571  00BA  0A4F               	incf	___flmul@bexp,w
  6572  00BB  1D03               	btfss	3,2
  6573  00BC  28BE               	goto	u3441
  6574  00BD  28BF               	goto	u3440
  6575  00BE                     u3441:
  6576  00BE  28C7               	goto	l2554
  6577  00BF                     u3440:
  6578  00BF                     l2552:
  6579  00BF  3000               	movlw	0
  6580  00C0  00BF               	movwf	___flmul@b+3
  6581  00C1  3000               	movlw	0
  6582  00C2  00BE               	movwf	___flmul@b+2
  6583  00C3  3000               	movlw	0
  6584  00C4  00BD               	movwf	___flmul@b+1
  6585  00C5  3000               	movlw	0
  6586  00C6  00BC               	movwf	___flmul@b
  6587  00C7                     l2554:
  6588  00C7  17BE               	bsf	___flmul@b+2,7
  6589  00C8  28D1               	goto	l2558
  6590  00C9                     l2556:
  6591  00C9  3000               	movlw	0
  6592  00CA  00BF               	movwf	___flmul@b+3
  6593  00CB  3000               	movlw	0
  6594  00CC  00BE               	movwf	___flmul@b+2
  6595  00CD  3000               	movlw	0
  6596  00CE  00BD               	movwf	___flmul@b+1
  6597  00CF  3000               	movlw	0
  6598  00D0  00BC               	movwf	___flmul@b
  6599  00D1                     l2558:
  6600  00D1  0843               	movf	___flmul@a+3,w
  6601  00D2  3980               	andlw	128
  6602  00D3  00C4               	movwf	??___flmul
  6603  00D4  0844               	movf	??___flmul,w
  6604  00D5  06C9               	xorwf	___flmul@sign,f
  6605  00D6                     l2560:
  6606  00D6  0843               	movf	___flmul@a+3,w
  6607  00D7  00C4               	movwf	??___flmul
  6608  00D8  0744               	addwf	??___flmul,w
  6609  00D9  00C5               	movwf	??___flmul+1
  6610  00DA  0845               	movf	??___flmul+1,w
  6611  00DB  00CE               	movwf	___flmul@aexp
  6612  00DC                     l2562:
  6613  00DC  1FC2               	btfss	___flmul@a+2,7
  6614  00DD  28DF               	goto	u3451
  6615  00DE  28E0               	goto	u3450
  6616  00DF                     u3451:
  6617  00DF  28E1               	goto	l2566
  6618  00E0                     u3450:
  6619  00E0                     l2564:
  6620  00E0  144E               	bsf	___flmul@aexp,0
  6621  00E1                     l2566:
  6622  00E1  084E               	movf	___flmul@aexp,w
  6623  00E2  1903               	btfsc	3,2
  6624  00E3  28E5               	goto	u3461
  6625  00E4  28E6               	goto	u3460
  6626  00E5                     u3461:
  6627  00E5  28F5               	goto	l2574
  6628  00E6                     u3460:
  6629  00E6                     l2568:
  6630  00E6  0A4E               	incf	___flmul@aexp,w
  6631  00E7  1D03               	btfss	3,2
  6632  00E8  28EA               	goto	u3471
  6633  00E9  28EB               	goto	u3470
  6634  00EA                     u3471:
  6635  00EA  28F3               	goto	l2572
  6636  00EB                     u3470:
  6637  00EB                     l2570:
  6638  00EB  3000               	movlw	0
  6639  00EC  00C3               	movwf	___flmul@a+3
  6640  00ED  3000               	movlw	0
  6641  00EE  00C2               	movwf	___flmul@a+2
  6642  00EF  3000               	movlw	0
  6643  00F0  00C1               	movwf	___flmul@a+1
  6644  00F1  3000               	movlw	0
  6645  00F2  00C0               	movwf	___flmul@a
  6646  00F3                     l2572:
  6647  00F3  17C2               	bsf	___flmul@a+2,7
  6648  00F4  28FD               	goto	l2576
  6649  00F5                     l2574:
  6650  00F5  3000               	movlw	0
  6651  00F6  00C3               	movwf	___flmul@a+3
  6652  00F7  3000               	movlw	0
  6653  00F8  00C2               	movwf	___flmul@a+2
  6654  00F9  3000               	movlw	0
  6655  00FA  00C1               	movwf	___flmul@a+1
  6656  00FB  3000               	movlw	0
  6657  00FC  00C0               	movwf	___flmul@a
  6658  00FD                     l2576:
  6659  00FD  084E               	movf	___flmul@aexp,w
  6660  00FE  1903               	btfsc	3,2
  6661  00FF  2901               	goto	u3481
  6662  0100  2902               	goto	u3480
  6663  0101                     u3481:
  6664  0101  2907               	goto	l2580
  6665  0102                     u3480:
  6666  0102                     l2578:
  6667  0102  084F               	movf	___flmul@bexp,w
  6668  0103  1D03               	btfss	3,2
  6669  0104  2906               	goto	u3491
  6670  0105  2907               	goto	u3490
  6671  0106                     u3491:
  6672  0106  2910               	goto	l2584
  6673  0107                     u3490:
  6674  0107                     l2580:
  6675  0107  3000               	movlw	0
  6676  0108  00BF               	movwf	?___flmul+3
  6677  0109  3000               	movlw	0
  6678  010A  00BE               	movwf	?___flmul+2
  6679  010B  3000               	movlw	0
  6680  010C  00BD               	movwf	?___flmul+1
  6681  010D  3000               	movlw	0
  6682  010E  00BC               	movwf	?___flmul
  6683  010F  2C03               	goto	l735
  6684  0110                     l2584:
  6685  0110  083C               	movf	___flmul@b,w
  6686  0111  00C4               	movwf	??___flmul
  6687  0112  0844               	movf	??___flmul,w
  6688  0113  00F0               	movwf	__Umul8_16@multiplicand
  6689  0114  0842               	movf	___flmul@a+2,w
  6690  0115  160A  118A  225C  120A  118A  	fcall	__Umul8_16
  6691  011A  0871               	movf	?__Umul8_16+1,w
  6692  011B  1283               	bcf	3,5	;RP0=0, select bank0
  6693  011C  1303               	bcf	3,6	;RP1=0, select bank0
  6694  011D  00D5               	movwf	___flmul@temp+1
  6695  011E  0870               	movf	?__Umul8_16,w
  6696  011F  00D4               	movwf	___flmul@temp
  6697  0120                     l2586:
  6698  0120  0854               	movf	___flmul@temp,w
  6699  0121  00C4               	movwf	??___flmul
  6700  0122  01C5               	clrf	??___flmul+1
  6701  0123  01C6               	clrf	??___flmul+2
  6702  0124  01C7               	clrf	??___flmul+3
  6703  0125  0847               	movf	??___flmul+3,w
  6704  0126  00CD               	movwf	___flmul@grs+3
  6705  0127  0846               	movf	??___flmul+2,w
  6706  0128  00CC               	movwf	___flmul@grs+2
  6707  0129  0845               	movf	??___flmul+1,w
  6708  012A  00CB               	movwf	___flmul@grs+1
  6709  012B  0844               	movf	??___flmul,w
  6710  012C  00CA               	movwf	___flmul@grs
  6711  012D                     l2588:
  6712  012D  0855               	movf	___flmul@temp+1,w
  6713  012E  00C4               	movwf	??___flmul
  6714  012F  01C5               	clrf	??___flmul+1
  6715  0130  01C6               	clrf	??___flmul+2
  6716  0131  01C7               	clrf	??___flmul+3
  6717  0132  0847               	movf	??___flmul+3,w
  6718  0133  00D3               	movwf	___flmul@prod+3
  6719  0134  0846               	movf	??___flmul+2,w
  6720  0135  00D2               	movwf	___flmul@prod+2
  6721  0136  0845               	movf	??___flmul+1,w
  6722  0137  00D1               	movwf	___flmul@prod+1
  6723  0138  0844               	movf	??___flmul,w
  6724  0139  00D0               	movwf	___flmul@prod
  6725  013A  083D               	movf	___flmul@b+1,w
  6726  013B  00C4               	movwf	??___flmul
  6727  013C  0844               	movf	??___flmul,w
  6728  013D  00F0               	movwf	__Umul8_16@multiplicand
  6729  013E  0841               	movf	___flmul@a+1,w
  6730  013F  160A  118A  225C  120A  118A  	fcall	__Umul8_16
  6731  0144  0871               	movf	?__Umul8_16+1,w
  6732  0145  1283               	bcf	3,5	;RP0=0, select bank0
  6733  0146  1303               	bcf	3,6	;RP1=0, select bank0
  6734  0147  00D5               	movwf	___flmul@temp+1
  6735  0148  0870               	movf	?__Umul8_16,w
  6736  0149  00D4               	movwf	___flmul@temp
  6737  014A                     l2590:
  6738  014A  0854               	movf	___flmul@temp,w
  6739  014B  00C4               	movwf	??___flmul
  6740  014C  01C5               	clrf	??___flmul+1
  6741  014D  01C6               	clrf	??___flmul+2
  6742  014E  01C7               	clrf	??___flmul+3
  6743  014F  0844               	movf	??___flmul,w
  6744  0150  07CA               	addwf	___flmul@grs,f
  6745  0151  0845               	movf	??___flmul+1,w
  6746  0152  1103               	clrz
  6747  0153  1803               	skipnc
  6748  0154  3E01               	addlw	1
  6749  0155  1903               	skipnz
  6750  0156  2958               	goto	u3501
  6751  0157  07CB               	addwf	___flmul@grs+1,f
  6752  0158                     u3501:
  6753  0158  0846               	movf	??___flmul+2,w
  6754  0159  1103               	clrz
  6755  015A  1803               	skipnc
  6756  015B  3E01               	addlw	1
  6757  015C  1903               	skipnz
  6758  015D  295F               	goto	u3502
  6759  015E  07CC               	addwf	___flmul@grs+2,f
  6760  015F                     u3502:
  6761  015F  0847               	movf	??___flmul+3,w
  6762  0160  1103               	clrz
  6763  0161  1803               	skipnc
  6764  0162  3E01               	addlw	1
  6765  0163  1903               	skipnz
  6766  0164  2966               	goto	u3503
  6767  0165  07CD               	addwf	___flmul@grs+3,f
  6768  0166                     u3503:
  6769  0166                     l2592:
  6770  0166  0855               	movf	___flmul@temp+1,w
  6771  0167  00C4               	movwf	??___flmul
  6772  0168  01C5               	clrf	??___flmul+1
  6773  0169  01C6               	clrf	??___flmul+2
  6774  016A  01C7               	clrf	??___flmul+3
  6775  016B  0844               	movf	??___flmul,w
  6776  016C  07D0               	addwf	___flmul@prod,f
  6777  016D  0845               	movf	??___flmul+1,w
  6778  016E  1103               	clrz
  6779  016F  1803               	skipnc
  6780  0170  3E01               	addlw	1
  6781  0171  1903               	skipnz
  6782  0172  2974               	goto	u3511
  6783  0173  07D1               	addwf	___flmul@prod+1,f
  6784  0174                     u3511:
  6785  0174  0846               	movf	??___flmul+2,w
  6786  0175  1103               	clrz
  6787  0176  1803               	skipnc
  6788  0177  3E01               	addlw	1
  6789  0178  1903               	skipnz
  6790  0179  297B               	goto	u3512
  6791  017A  07D2               	addwf	___flmul@prod+2,f
  6792  017B                     u3512:
  6793  017B  0847               	movf	??___flmul+3,w
  6794  017C  1103               	clrz
  6795  017D  1803               	skipnc
  6796  017E  3E01               	addlw	1
  6797  017F  1903               	skipnz
  6798  0180  2982               	goto	u3513
  6799  0181  07D3               	addwf	___flmul@prod+3,f
  6800  0182                     u3513:
  6801  0182  083E               	movf	___flmul@b+2,w
  6802  0183  00C4               	movwf	??___flmul
  6803  0184  0844               	movf	??___flmul,w
  6804  0185  00F0               	movwf	__Umul8_16@multiplicand
  6805  0186  0840               	movf	___flmul@a,w
  6806  0187  160A  118A  225C  120A  118A  	fcall	__Umul8_16
  6807  018C  0871               	movf	?__Umul8_16+1,w
  6808  018D  1283               	bcf	3,5	;RP0=0, select bank0
  6809  018E  1303               	bcf	3,6	;RP1=0, select bank0
  6810  018F  00D5               	movwf	___flmul@temp+1
  6811  0190  0870               	movf	?__Umul8_16,w
  6812  0191  00D4               	movwf	___flmul@temp
  6813  0192                     l2594:
  6814  0192  0854               	movf	___flmul@temp,w
  6815  0193  00C4               	movwf	??___flmul
  6816  0194  01C5               	clrf	??___flmul+1
  6817  0195  01C6               	clrf	??___flmul+2
  6818  0196  01C7               	clrf	??___flmul+3
  6819  0197  0844               	movf	??___flmul,w
  6820  0198  07CA               	addwf	___flmul@grs,f
  6821  0199  0845               	movf	??___flmul+1,w
  6822  019A  1103               	clrz
  6823  019B  1803               	skipnc
  6824  019C  3E01               	addlw	1
  6825  019D  1903               	skipnz
  6826  019E  29A0               	goto	u3521
  6827  019F  07CB               	addwf	___flmul@grs+1,f
  6828  01A0                     u3521:
  6829  01A0  0846               	movf	??___flmul+2,w
  6830  01A1  1103               	clrz
  6831  01A2  1803               	skipnc
  6832  01A3  3E01               	addlw	1
  6833  01A4  1903               	skipnz
  6834  01A5  29A7               	goto	u3522
  6835  01A6  07CC               	addwf	___flmul@grs+2,f
  6836  01A7                     u3522:
  6837  01A7  0847               	movf	??___flmul+3,w
  6838  01A8  1103               	clrz
  6839  01A9  1803               	skipnc
  6840  01AA  3E01               	addlw	1
  6841  01AB  1903               	skipnz
  6842  01AC  29AE               	goto	u3523
  6843  01AD  07CD               	addwf	___flmul@grs+3,f
  6844  01AE                     u3523:
  6845  01AE                     l2596:
  6846  01AE  0855               	movf	___flmul@temp+1,w
  6847  01AF  00C4               	movwf	??___flmul
  6848  01B0  01C5               	clrf	??___flmul+1
  6849  01B1  01C6               	clrf	??___flmul+2
  6850  01B2  01C7               	clrf	??___flmul+3
  6851  01B3  0844               	movf	??___flmul,w
  6852  01B4  07D0               	addwf	___flmul@prod,f
  6853  01B5  0845               	movf	??___flmul+1,w
  6854  01B6  1103               	clrz
  6855  01B7  1803               	skipnc
  6856  01B8  3E01               	addlw	1
  6857  01B9  1903               	skipnz
  6858  01BA  29BC               	goto	u3531
  6859  01BB  07D1               	addwf	___flmul@prod+1,f
  6860  01BC                     u3531:
  6861  01BC  0846               	movf	??___flmul+2,w
  6862  01BD  1103               	clrz
  6863  01BE  1803               	skipnc
  6864  01BF  3E01               	addlw	1
  6865  01C0  1903               	skipnz
  6866  01C1  29C3               	goto	u3532
  6867  01C2  07D2               	addwf	___flmul@prod+2,f
  6868  01C3                     u3532:
  6869  01C3  0847               	movf	??___flmul+3,w
  6870  01C4  1103               	clrz
  6871  01C5  1803               	skipnc
  6872  01C6  3E01               	addlw	1
  6873  01C7  1903               	skipnz
  6874  01C8  29CA               	goto	u3533
  6875  01C9  07D3               	addwf	___flmul@prod+3,f
  6876  01CA                     u3533:
  6877  01CA                     l2598:
  6878  01CA  3008               	movlw	8
  6879  01CB  00C4               	movwf	??___flmul
  6880  01CC                     u3545:
  6881  01CC  1003               	clrc
  6882  01CD  0DCA               	rlf	___flmul@grs,f
  6883  01CE  0DCB               	rlf	___flmul@grs+1,f
  6884  01CF  0DCC               	rlf	___flmul@grs+2,f
  6885  01D0  0DCD               	rlf	___flmul@grs+3,f
  6886  01D1  0BC4               	decfsz	??___flmul,f
  6887  01D2  29CC               	goto	u3545
  6888  01D3                     l2600:
  6889  01D3  083D               	movf	___flmul@b+1,w
  6890  01D4  00C4               	movwf	??___flmul
  6891  01D5  0844               	movf	??___flmul,w
  6892  01D6  00F0               	movwf	__Umul8_16@multiplicand
  6893  01D7  0840               	movf	___flmul@a,w
  6894  01D8  160A  118A  225C  120A  118A  	fcall	__Umul8_16
  6895  01DD  0871               	movf	?__Umul8_16+1,w
  6896  01DE  1283               	bcf	3,5	;RP0=0, select bank0
  6897  01DF  1303               	bcf	3,6	;RP1=0, select bank0
  6898  01E0  00D5               	movwf	___flmul@temp+1
  6899  01E1  0870               	movf	?__Umul8_16,w
  6900  01E2  00D4               	movwf	___flmul@temp
  6901  01E3                     l2602:
  6902  01E3  0854               	movf	___flmul@temp,w
  6903  01E4  00C4               	movwf	??___flmul
  6904  01E5  0855               	movf	___flmul@temp+1,w
  6905  01E6  00C5               	movwf	??___flmul+1
  6906  01E7  01C6               	clrf	??___flmul+2
  6907  01E8  01C7               	clrf	??___flmul+3
  6908  01E9  0844               	movf	??___flmul,w
  6909  01EA  07CA               	addwf	___flmul@grs,f
  6910  01EB  0845               	movf	??___flmul+1,w
  6911  01EC  1103               	clrz
  6912  01ED  1803               	skipnc
  6913  01EE  3E01               	addlw	1
  6914  01EF  1903               	skipnz
  6915  01F0  29F2               	goto	u3551
  6916  01F1  07CB               	addwf	___flmul@grs+1,f
  6917  01F2                     u3551:
  6918  01F2  0846               	movf	??___flmul+2,w
  6919  01F3  1103               	clrz
  6920  01F4  1803               	skipnc
  6921  01F5  3E01               	addlw	1
  6922  01F6  1903               	skipnz
  6923  01F7  29F9               	goto	u3552
  6924  01F8  07CC               	addwf	___flmul@grs+2,f
  6925  01F9                     u3552:
  6926  01F9  0847               	movf	??___flmul+3,w
  6927  01FA  1103               	clrz
  6928  01FB  1803               	skipnc
  6929  01FC  3E01               	addlw	1
  6930  01FD  1903               	skipnz
  6931  01FE  2A00               	goto	u3553
  6932  01FF  07CD               	addwf	___flmul@grs+3,f
  6933  0200                     u3553:
  6934  0200                     l2604:
  6935  0200  083C               	movf	___flmul@b,w
  6936  0201  00C4               	movwf	??___flmul
  6937  0202  0844               	movf	??___flmul,w
  6938  0203  00F0               	movwf	__Umul8_16@multiplicand
  6939  0204  0841               	movf	___flmul@a+1,w
  6940  0205  160A  118A  225C  120A  118A  	fcall	__Umul8_16
  6941  020A  0871               	movf	?__Umul8_16+1,w
  6942  020B  1283               	bcf	3,5	;RP0=0, select bank0
  6943  020C  1303               	bcf	3,6	;RP1=0, select bank0
  6944  020D  00D5               	movwf	___flmul@temp+1
  6945  020E  0870               	movf	?__Umul8_16,w
  6946  020F  00D4               	movwf	___flmul@temp
  6947  0210                     l2606:
  6948  0210  0854               	movf	___flmul@temp,w
  6949  0211  00C4               	movwf	??___flmul
  6950  0212  0855               	movf	___flmul@temp+1,w
  6951  0213  00C5               	movwf	??___flmul+1
  6952  0214  01C6               	clrf	??___flmul+2
  6953  0215  01C7               	clrf	??___flmul+3
  6954  0216  0844               	movf	??___flmul,w
  6955  0217  07CA               	addwf	___flmul@grs,f
  6956  0218  0845               	movf	??___flmul+1,w
  6957  0219  1103               	clrz
  6958  021A  1803               	skipnc
  6959  021B  3E01               	addlw	1
  6960  021C  1903               	skipnz
  6961  021D  2A1F               	goto	u3561
  6962  021E  07CB               	addwf	___flmul@grs+1,f
  6963  021F                     u3561:
  6964  021F  0846               	movf	??___flmul+2,w
  6965  0220  1103               	clrz
  6966  0221  1803               	skipnc
  6967  0222  3E01               	addlw	1
  6968  0223  1903               	skipnz
  6969  0224  2A26               	goto	u3562
  6970  0225  07CC               	addwf	___flmul@grs+2,f
  6971  0226                     u3562:
  6972  0226  0847               	movf	??___flmul+3,w
  6973  0227  1103               	clrz
  6974  0228  1803               	skipnc
  6975  0229  3E01               	addlw	1
  6976  022A  1903               	skipnz
  6977  022B  2A2D               	goto	u3563
  6978  022C  07CD               	addwf	___flmul@grs+3,f
  6979  022D                     u3563:
  6980  022D                     l2608:
  6981  022D  3008               	movlw	8
  6982  022E  00C4               	movwf	??___flmul
  6983  022F                     u3575:
  6984  022F  1003               	clrc
  6985  0230  0DCA               	rlf	___flmul@grs,f
  6986  0231  0DCB               	rlf	___flmul@grs+1,f
  6987  0232  0DCC               	rlf	___flmul@grs+2,f
  6988  0233  0DCD               	rlf	___flmul@grs+3,f
  6989  0234  0BC4               	decfsz	??___flmul,f
  6990  0235  2A2F               	goto	u3575
  6991  0236  083C               	movf	___flmul@b,w
  6992  0237  00C4               	movwf	??___flmul
  6993  0238  0844               	movf	??___flmul,w
  6994  0239  00F0               	movwf	__Umul8_16@multiplicand
  6995  023A  0840               	movf	___flmul@a,w
  6996  023B  160A  118A  225C  120A  118A  	fcall	__Umul8_16
  6997  0240  0871               	movf	?__Umul8_16+1,w
  6998  0241  1283               	bcf	3,5	;RP0=0, select bank0
  6999  0242  1303               	bcf	3,6	;RP1=0, select bank0
  7000  0243  00D5               	movwf	___flmul@temp+1
  7001  0244  0870               	movf	?__Umul8_16,w
  7002  0245  00D4               	movwf	___flmul@temp
  7003  0246                     l2610:
  7004  0246  0854               	movf	___flmul@temp,w
  7005  0247  00C4               	movwf	??___flmul
  7006  0248  0855               	movf	___flmul@temp+1,w
  7007  0249  00C5               	movwf	??___flmul+1
  7008  024A  01C6               	clrf	??___flmul+2
  7009  024B  01C7               	clrf	??___flmul+3
  7010  024C  0844               	movf	??___flmul,w
  7011  024D  07CA               	addwf	___flmul@grs,f
  7012  024E  0845               	movf	??___flmul+1,w
  7013  024F  1103               	clrz
  7014  0250  1803               	skipnc
  7015  0251  3E01               	addlw	1
  7016  0252  1903               	skipnz
  7017  0253  2A55               	goto	u3581
  7018  0254  07CB               	addwf	___flmul@grs+1,f
  7019  0255                     u3581:
  7020  0255  0846               	movf	??___flmul+2,w
  7021  0256  1103               	clrz
  7022  0257  1803               	skipnc
  7023  0258  3E01               	addlw	1
  7024  0259  1903               	skipnz
  7025  025A  2A5C               	goto	u3582
  7026  025B  07CC               	addwf	___flmul@grs+2,f
  7027  025C                     u3582:
  7028  025C  0847               	movf	??___flmul+3,w
  7029  025D  1103               	clrz
  7030  025E  1803               	skipnc
  7031  025F  3E01               	addlw	1
  7032  0260  1903               	skipnz
  7033  0261  2A63               	goto	u3583
  7034  0262  07CD               	addwf	___flmul@grs+3,f
  7035  0263                     u3583:
  7036  0263                     l2612:
  7037  0263  083D               	movf	___flmul@b+1,w
  7038  0264  00C4               	movwf	??___flmul
  7039  0265  0844               	movf	??___flmul,w
  7040  0266  00F0               	movwf	__Umul8_16@multiplicand
  7041  0267  0842               	movf	___flmul@a+2,w
  7042  0268  160A  118A  225C  120A  118A  	fcall	__Umul8_16
  7043  026D  0871               	movf	?__Umul8_16+1,w
  7044  026E  1283               	bcf	3,5	;RP0=0, select bank0
  7045  026F  1303               	bcf	3,6	;RP1=0, select bank0
  7046  0270  00D5               	movwf	___flmul@temp+1
  7047  0271  0870               	movf	?__Umul8_16,w
  7048  0272  00D4               	movwf	___flmul@temp
  7049  0273  0854               	movf	___flmul@temp,w
  7050  0274  00C4               	movwf	??___flmul
  7051  0275  0855               	movf	___flmul@temp+1,w
  7052  0276  00C5               	movwf	??___flmul+1
  7053  0277  01C6               	clrf	??___flmul+2
  7054  0278  01C7               	clrf	??___flmul+3
  7055  0279  0844               	movf	??___flmul,w
  7056  027A  07D0               	addwf	___flmul@prod,f
  7057  027B  0845               	movf	??___flmul+1,w
  7058  027C  1103               	clrz
  7059  027D  1803               	skipnc
  7060  027E  3E01               	addlw	1
  7061  027F  1903               	skipnz
  7062  0280  2A82               	goto	u3591
  7063  0281  07D1               	addwf	___flmul@prod+1,f
  7064  0282                     u3591:
  7065  0282  0846               	movf	??___flmul+2,w
  7066  0283  1103               	clrz
  7067  0284  1803               	skipnc
  7068  0285  3E01               	addlw	1
  7069  0286  1903               	skipnz
  7070  0287  2A89               	goto	u3592
  7071  0288  07D2               	addwf	___flmul@prod+2,f
  7072  0289                     u3592:
  7073  0289  0847               	movf	??___flmul+3,w
  7074  028A  1103               	clrz
  7075  028B  1803               	skipnc
  7076  028C  3E01               	addlw	1
  7077  028D  1903               	skipnz
  7078  028E  2A90               	goto	u3593
  7079  028F  07D3               	addwf	___flmul@prod+3,f
  7080  0290                     u3593:
  7081  0290                     l2614:
  7082  0290  083E               	movf	___flmul@b+2,w
  7083  0291  00C4               	movwf	??___flmul
  7084  0292  0844               	movf	??___flmul,w
  7085  0293  00F0               	movwf	__Umul8_16@multiplicand
  7086  0294  0841               	movf	___flmul@a+1,w
  7087  0295  160A  118A  225C  120A  118A  	fcall	__Umul8_16
  7088  029A  0871               	movf	?__Umul8_16+1,w
  7089  029B  1283               	bcf	3,5	;RP0=0, select bank0
  7090  029C  1303               	bcf	3,6	;RP1=0, select bank0
  7091  029D  00D5               	movwf	___flmul@temp+1
  7092  029E  0870               	movf	?__Umul8_16,w
  7093  029F  00D4               	movwf	___flmul@temp
  7094  02A0                     l2616:
  7095  02A0  0854               	movf	___flmul@temp,w
  7096  02A1  00C4               	movwf	??___flmul
  7097  02A2  0855               	movf	___flmul@temp+1,w
  7098  02A3  00C5               	movwf	??___flmul+1
  7099  02A4  01C6               	clrf	??___flmul+2
  7100  02A5  01C7               	clrf	??___flmul+3
  7101  02A6  0844               	movf	??___flmul,w
  7102  02A7  07D0               	addwf	___flmul@prod,f
  7103  02A8  0845               	movf	??___flmul+1,w
  7104  02A9  1103               	clrz
  7105  02AA  1803               	skipnc
  7106  02AB  3E01               	addlw	1
  7107  02AC  1903               	skipnz
  7108  02AD  2AAF               	goto	u3601
  7109  02AE  07D1               	addwf	___flmul@prod+1,f
  7110  02AF                     u3601:
  7111  02AF  0846               	movf	??___flmul+2,w
  7112  02B0  1103               	clrz
  7113  02B1  1803               	skipnc
  7114  02B2  3E01               	addlw	1
  7115  02B3  1903               	skipnz
  7116  02B4  2AB6               	goto	u3602
  7117  02B5  07D2               	addwf	___flmul@prod+2,f
  7118  02B6                     u3602:
  7119  02B6  0847               	movf	??___flmul+3,w
  7120  02B7  1103               	clrz
  7121  02B8  1803               	skipnc
  7122  02B9  3E01               	addlw	1
  7123  02BA  1903               	skipnz
  7124  02BB  2ABD               	goto	u3603
  7125  02BC  07D3               	addwf	___flmul@prod+3,f
  7126  02BD                     u3603:
  7127  02BD  083E               	movf	___flmul@b+2,w
  7128  02BE  00C4               	movwf	??___flmul
  7129  02BF  0844               	movf	??___flmul,w
  7130  02C0  00F0               	movwf	__Umul8_16@multiplicand
  7131  02C1  0842               	movf	___flmul@a+2,w
  7132  02C2  160A  118A  225C  120A  118A  	fcall	__Umul8_16
  7133  02C7  0871               	movf	?__Umul8_16+1,w
  7134  02C8  1283               	bcf	3,5	;RP0=0, select bank0
  7135  02C9  1303               	bcf	3,6	;RP1=0, select bank0
  7136  02CA  00D5               	movwf	___flmul@temp+1
  7137  02CB  0870               	movf	?__Umul8_16,w
  7138  02CC  00D4               	movwf	___flmul@temp
  7139  02CD                     l2618:
  7140  02CD  0854               	movf	___flmul@temp,w
  7141  02CE  00C4               	movwf	??___flmul
  7142  02CF  0855               	movf	___flmul@temp+1,w
  7143  02D0  00C5               	movwf	??___flmul+1
  7144  02D1  01C6               	clrf	??___flmul+2
  7145  02D2  01C7               	clrf	??___flmul+3
  7146  02D3  3008               	movlw	8
  7147  02D4                     u3615:
  7148  02D4  1003               	clrc
  7149  02D5  0DC4               	rlf	??___flmul,f
  7150  02D6  0DC5               	rlf	??___flmul+1,f
  7151  02D7  0DC6               	rlf	??___flmul+2,f
  7152  02D8  0DC7               	rlf	??___flmul+3,f
  7153  02D9                     u3610:
  7154  02D9  3EFF               	addlw	-1
  7155  02DA  1D03               	skipz
  7156  02DB  2AD4               	goto	u3615
  7157  02DC  0844               	movf	??___flmul,w
  7158  02DD  07D0               	addwf	___flmul@prod,f
  7159  02DE  0845               	movf	??___flmul+1,w
  7160  02DF  1103               	clrz
  7161  02E0  1803               	skipnc
  7162  02E1  3E01               	addlw	1
  7163  02E2  1903               	skipnz
  7164  02E3  2AE5               	goto	u3621
  7165  02E4  07D1               	addwf	___flmul@prod+1,f
  7166  02E5                     u3621:
  7167  02E5  0846               	movf	??___flmul+2,w
  7168  02E6  1103               	clrz
  7169  02E7  1803               	skipnc
  7170  02E8  3E01               	addlw	1
  7171  02E9  1903               	skipnz
  7172  02EA  2AEC               	goto	u3622
  7173  02EB  07D2               	addwf	___flmul@prod+2,f
  7174  02EC                     u3622:
  7175  02EC  0847               	movf	??___flmul+3,w
  7176  02ED  1103               	clrz
  7177  02EE  1803               	skipnc
  7178  02EF  3E01               	addlw	1
  7179  02F0  1903               	skipnz
  7180  02F1  2AF3               	goto	u3623
  7181  02F2  07D3               	addwf	___flmul@prod+3,f
  7182  02F3                     u3623:
  7183  02F3                     l2620:
  7184  02F3  084A               	movf	___flmul@grs,w
  7185  02F4  00C4               	movwf	??___flmul
  7186  02F5  084B               	movf	___flmul@grs+1,w
  7187  02F6  00C5               	movwf	??___flmul+1
  7188  02F7  084C               	movf	___flmul@grs+2,w
  7189  02F8  00C6               	movwf	??___flmul+2
  7190  02F9  084D               	movf	___flmul@grs+3,w
  7191  02FA  00C7               	movwf	??___flmul+3
  7192  02FB  3018               	movlw	24
  7193  02FC                     u3635:
  7194  02FC  1003               	clrc
  7195  02FD  0CC7               	rrf	??___flmul+3,f
  7196  02FE  0CC6               	rrf	??___flmul+2,f
  7197  02FF  0CC5               	rrf	??___flmul+1,f
  7198  0300  0CC4               	rrf	??___flmul,f
  7199  0301                     u3630:
  7200  0301  3EFF               	addlw	-1
  7201  0302  1D03               	skipz
  7202  0303  2AFC               	goto	u3635
  7203  0304  0844               	movf	??___flmul,w
  7204  0305  07D0               	addwf	___flmul@prod,f
  7205  0306  0845               	movf	??___flmul+1,w
  7206  0307  1103               	clrz
  7207  0308  1803               	skipnc
  7208  0309  3E01               	addlw	1
  7209  030A  1903               	skipnz
  7210  030B  2B0D               	goto	u3641
  7211  030C  07D1               	addwf	___flmul@prod+1,f
  7212  030D                     u3641:
  7213  030D  0846               	movf	??___flmul+2,w
  7214  030E  1103               	clrz
  7215  030F  1803               	skipnc
  7216  0310  3E01               	addlw	1
  7217  0311  1903               	skipnz
  7218  0312  2B14               	goto	u3642
  7219  0313  07D2               	addwf	___flmul@prod+2,f
  7220  0314                     u3642:
  7221  0314  0847               	movf	??___flmul+3,w
  7222  0315  1103               	clrz
  7223  0316  1803               	skipnc
  7224  0317  3E01               	addlw	1
  7225  0318  1903               	skipnz
  7226  0319  2B1B               	goto	u3643
  7227  031A  07D3               	addwf	___flmul@prod+3,f
  7228  031B                     u3643:
  7229  031B                     l2622:
  7230  031B  3008               	movlw	8
  7231  031C  00C4               	movwf	??___flmul
  7232  031D                     u3655:
  7233  031D  1003               	clrc
  7234  031E  0DCA               	rlf	___flmul@grs,f
  7235  031F  0DCB               	rlf	___flmul@grs+1,f
  7236  0320  0DCC               	rlf	___flmul@grs+2,f
  7237  0321  0DCD               	rlf	___flmul@grs+3,f
  7238  0322  0BC4               	decfsz	??___flmul,f
  7239  0323  2B1D               	goto	u3655
  7240  0324                     l2624:
  7241  0324  084F               	movf	___flmul@bexp,w
  7242  0325  074E               	addwf	___flmul@aexp,w
  7243  0326  00C4               	movwf	??___flmul
  7244  0327  01C5               	clrf	??___flmul+1
  7245  0328  0DC5               	rlf	??___flmul+1,f
  7246  0329  0844               	movf	??___flmul,w
  7247  032A  3E82               	addlw	130
  7248  032B  00D4               	movwf	___flmul@temp
  7249  032C  0845               	movf	??___flmul+1,w
  7250  032D  1803               	skipnc
  7251  032E  3E01               	addlw	1
  7252  032F  3EFF               	addlw	255
  7253  0330  00D5               	movwf	___flmul@temp+1
  7254  0331  2B4F               	goto	l2636
  7255  0332                     l2626:
  7256  0332  3001               	movlw	1
  7257  0333  00C4               	movwf	??___flmul
  7258  0334                     u3665:
  7259  0334  1003               	clrc
  7260  0335  0DD0               	rlf	___flmul@prod,f
  7261  0336  0DD1               	rlf	___flmul@prod+1,f
  7262  0337  0DD2               	rlf	___flmul@prod+2,f
  7263  0338  0DD3               	rlf	___flmul@prod+3,f
  7264  0339  0BC4               	decfsz	??___flmul,f
  7265  033A  2B34               	goto	u3665
  7266  033B                     l2628:
  7267  033B  1FCD               	btfss	___flmul@grs+3,7
  7268  033C  2B3E               	goto	u3671
  7269  033D  2B3F               	goto	u3670
  7270  033E                     u3671:
  7271  033E  2B40               	goto	l2632
  7272  033F                     u3670:
  7273  033F                     l2630:
  7274  033F  1450               	bsf	___flmul@prod,0
  7275  0340                     l2632:
  7276  0340  3001               	movlw	1
  7277  0341  00C4               	movwf	??___flmul
  7278  0342                     u3685:
  7279  0342  1003               	clrc
  7280  0343  0DCA               	rlf	___flmul@grs,f
  7281  0344  0DCB               	rlf	___flmul@grs+1,f
  7282  0345  0DCC               	rlf	___flmul@grs+2,f
  7283  0346  0DCD               	rlf	___flmul@grs+3,f
  7284  0347  0BC4               	decfsz	??___flmul,f
  7285  0348  2B42               	goto	u3685
  7286  0349                     l2634:
  7287  0349  30FF               	movlw	255
  7288  034A  07D4               	addwf	___flmul@temp,f
  7289  034B  1803               	skipnc
  7290  034C  0AD5               	incf	___flmul@temp+1,f
  7291  034D  30FF               	movlw	255
  7292  034E  07D5               	addwf	___flmul@temp+1,f
  7293  034F                     l2636:
  7294  034F  1FD2               	btfss	___flmul@prod+2,7
  7295  0350  2B52               	goto	u3691
  7296  0351  2B53               	goto	u3690
  7297  0352                     u3691:
  7298  0352  2B32               	goto	l2626
  7299  0353                     u3690:
  7300  0353                     l2638:
  7301  0353  01CE               	clrf	___flmul@aexp
  7302  0354                     l2640:
  7303  0354  1FCD               	btfss	___flmul@grs+3,7
  7304  0355  2B57               	goto	u3701
  7305  0356  2B58               	goto	u3700
  7306  0357                     u3701:
  7307  0357  2B74               	goto	l2648
  7308  0358                     u3700:
  7309  0358                     l2642:
  7310  0358  30FF               	movlw	255
  7311  0359  054A               	andwf	___flmul@grs,w
  7312  035A  00C4               	movwf	??___flmul
  7313  035B  30FF               	movlw	255
  7314  035C  054B               	andwf	___flmul@grs+1,w
  7315  035D  00C5               	movwf	??___flmul+1
  7316  035E  30FF               	movlw	255
  7317  035F  054C               	andwf	___flmul@grs+2,w
  7318  0360  00C6               	movwf	??___flmul+2
  7319  0361  307F               	movlw	127
  7320  0362  054D               	andwf	___flmul@grs+3,w
  7321  0363  00C7               	movwf	??___flmul+3
  7322  0364  0847               	movf	??___flmul+3,w
  7323  0365  0446               	iorwf	??___flmul+2,w
  7324  0366  0445               	iorwf	??___flmul+1,w
  7325  0367  0444               	iorwf	??___flmul,w
  7326  0368  1903               	skipnz
  7327  0369  2B6B               	goto	u3711
  7328  036A  2B6C               	goto	u3710
  7329  036B                     u3711:
  7330  036B  2B6F               	goto	l741
  7331  036C                     u3710:
  7332  036C                     l2644:
  7333  036C  01CE               	clrf	___flmul@aexp
  7334  036D  0ACE               	incf	___flmul@aexp,f
  7335  036E  2B74               	goto	l2648
  7336  036F                     l741:
  7337  036F  1C50               	btfss	___flmul@prod,0
  7338  0370  2B72               	goto	u3721
  7339  0371  2B73               	goto	u3720
  7340  0372                     u3721:
  7341  0372  2B74               	goto	l2648
  7342  0373                     u3720:
  7343  0373  2B6C               	goto	l2644
  7344  0374                     l2648:
  7345  0374  084E               	movf	___flmul@aexp,w
  7346  0375  1903               	btfsc	3,2
  7347  0376  2B78               	goto	u3731
  7348  0377  2B79               	goto	u3730
  7349  0378                     u3731:
  7350  0378  2BAA               	goto	l2658
  7351  0379                     u3730:
  7352  0379                     l2650:
  7353  0379  3001               	movlw	1
  7354  037A  07D0               	addwf	___flmul@prod,f
  7355  037B  3000               	movlw	0
  7356  037C  1803               	skipnc
  7357  037D  3001               	movlw	1
  7358  037E  07D1               	addwf	___flmul@prod+1,f
  7359  037F  3000               	movlw	0
  7360  0380  1803               	skipnc
  7361  0381  3001               	movlw	1
  7362  0382  07D2               	addwf	___flmul@prod+2,f
  7363  0383  3000               	movlw	0
  7364  0384  1803               	skipnc
  7365  0385  3001               	movlw	1
  7366  0386  07D3               	addwf	___flmul@prod+3,f
  7367  0387                     l2652:
  7368  0387  1C53               	btfss	___flmul@prod+3,0
  7369  0388  2B8A               	goto	u3741
  7370  0389  2B8B               	goto	u3740
  7371  038A                     u3741:
  7372  038A  2BAA               	goto	l2658
  7373  038B                     u3740:
  7374  038B                     l2654:
  7375  038B  0850               	movf	___flmul@prod,w
  7376  038C  00C4               	movwf	??___flmul
  7377  038D  0851               	movf	___flmul@prod+1,w
  7378  038E  00C5               	movwf	??___flmul+1
  7379  038F  0852               	movf	___flmul@prod+2,w
  7380  0390  00C6               	movwf	??___flmul+2
  7381  0391  0853               	movf	___flmul@prod+3,w
  7382  0392  00C7               	movwf	??___flmul+3
  7383  0393  3001               	movlw	1
  7384  0394  00C8               	movwf	??___flmul+4
  7385  0395                     u3755:
  7386  0395  0D47               	rlf	??___flmul+3,w
  7387  0396  0CC7               	rrf	??___flmul+3,f
  7388  0397  0CC6               	rrf	??___flmul+2,f
  7389  0398  0CC5               	rrf	??___flmul+1,f
  7390  0399  0CC4               	rrf	??___flmul,f
  7391  039A                     u3750:
  7392  039A  0BC8               	decfsz	??___flmul+4,f
  7393  039B  2B95               	goto	u3755
  7394  039C  0847               	movf	??___flmul+3,w
  7395  039D  00D3               	movwf	___flmul@prod+3
  7396  039E  0846               	movf	??___flmul+2,w
  7397  039F  00D2               	movwf	___flmul@prod+2
  7398  03A0  0845               	movf	??___flmul+1,w
  7399  03A1  00D1               	movwf	___flmul@prod+1
  7400  03A2  0844               	movf	??___flmul,w
  7401  03A3  00D0               	movwf	___flmul@prod
  7402  03A4                     l2656:
  7403  03A4  3001               	movlw	1
  7404  03A5  07D4               	addwf	___flmul@temp,f
  7405  03A6  1803               	skipnc
  7406  03A7  0AD5               	incf	___flmul@temp+1,f
  7407  03A8  3000               	movlw	0
  7408  03A9  07D5               	addwf	___flmul@temp+1,f
  7409  03AA                     l2658:
  7410  03AA  0855               	movf	___flmul@temp+1,w
  7411  03AB  3A80               	xorlw	128
  7412  03AC  00FF               	movwf	btemp+1
  7413  03AD  3080               	movlw	128
  7414  03AE  027F               	subwf	btemp+1,w
  7415  03AF  1D03               	skipz
  7416  03B0  2BB3               	goto	u3765
  7417  03B1  30FF               	movlw	255
  7418  03B2  0254               	subwf	___flmul@temp,w
  7419  03B3                     u3765:
  7420  03B3  1C03               	skipc
  7421  03B4  2BB6               	goto	u3761
  7422  03B5  2BB7               	goto	u3760
  7423  03B6                     u3761:
  7424  03B6  2BC2               	goto	l2662
  7425  03B7                     u3760:
  7426  03B7                     l2660:
  7427  03B7  307F               	movlw	127
  7428  03B8  1283               	bcf	3,5	;RP0=0, select bank0
  7429  03B9  1303               	bcf	3,6	;RP1=0, select bank0
  7430  03BA  00D3               	movwf	___flmul@prod+3
  7431  03BB  3080               	movlw	128
  7432  03BC  00D2               	movwf	___flmul@prod+2
  7433  03BD  3000               	movlw	0
  7434  03BE  00D1               	movwf	___flmul@prod+1
  7435  03BF  3000               	movlw	0
  7436  03C0  00D0               	movwf	___flmul@prod
  7437  03C1  2BF7               	goto	l747
  7438  03C2                     l2662:
  7439  03C2  1283               	bcf	3,5	;RP0=0, select bank0
  7440  03C3  1303               	bcf	3,6	;RP1=0, select bank0
  7441  03C4  0855               	movf	___flmul@temp+1,w
  7442  03C5  3A80               	xorlw	128
  7443  03C6  00FF               	movwf	btemp+1
  7444  03C7  3080               	movlw	128
  7445  03C8  027F               	subwf	btemp+1,w
  7446  03C9  1D03               	skipz
  7447  03CA  2BCD               	goto	u3775
  7448  03CB  3001               	movlw	1
  7449  03CC  0254               	subwf	___flmul@temp,w
  7450  03CD                     u3775:
  7451  03CD  1803               	skipnc
  7452  03CE  2BD0               	goto	u3771
  7453  03CF  2BD1               	goto	u3770
  7454  03D0                     u3771:
  7455  03D0  2BDD               	goto	l2668
  7456  03D1                     u3770:
  7457  03D1                     l2664:
  7458  03D1  3000               	movlw	0
  7459  03D2  1283               	bcf	3,5	;RP0=0, select bank0
  7460  03D3  1303               	bcf	3,6	;RP1=0, select bank0
  7461  03D4  00D3               	movwf	___flmul@prod+3
  7462  03D5  3000               	movlw	0
  7463  03D6  00D2               	movwf	___flmul@prod+2
  7464  03D7  3000               	movlw	0
  7465  03D8  00D1               	movwf	___flmul@prod+1
  7466  03D9  3000               	movlw	0
  7467  03DA  00D0               	movwf	___flmul@prod
  7468  03DB                     l2666:
  7469  03DB  01C9               	clrf	___flmul@sign
  7470  03DC  2BF7               	goto	l747
  7471  03DD                     l2668:
  7472  03DD  1283               	bcf	3,5	;RP0=0, select bank0
  7473  03DE  1303               	bcf	3,6	;RP1=0, select bank0
  7474  03DF  0854               	movf	___flmul@temp,w
  7475  03E0  00C4               	movwf	??___flmul
  7476  03E1  0844               	movf	??___flmul,w
  7477  03E2  00CF               	movwf	___flmul@bexp
  7478  03E3  30FF               	movlw	255
  7479  03E4  05D0               	andwf	___flmul@prod,f
  7480  03E5  30FF               	movlw	255
  7481  03E6  05D1               	andwf	___flmul@prod+1,f
  7482  03E7  307F               	movlw	127
  7483  03E8  05D2               	andwf	___flmul@prod+2,f
  7484  03E9  3000               	movlw	0
  7485  03EA  05D3               	andwf	___flmul@prod+3,f
  7486  03EB                     l2670:
  7487  03EB  1C4F               	btfss	___flmul@bexp,0
  7488  03EC  2BEE               	goto	u3781
  7489  03ED  2BEF               	goto	u3780
  7490  03EE                     u3781:
  7491  03EE  2BF0               	goto	l2674
  7492  03EF                     u3780:
  7493  03EF                     l2672:
  7494  03EF  17D2               	bsf	___flmul@prod+2,7
  7495  03F0                     l2674:
  7496  03F0  084F               	movf	___flmul@bexp,w
  7497  03F1  00C4               	movwf	??___flmul
  7498  03F2  1003               	clrc
  7499  03F3  0C44               	rrf	??___flmul,w
  7500  03F4  00C5               	movwf	??___flmul+1
  7501  03F5  0845               	movf	??___flmul+1,w
  7502  03F6  00D3               	movwf	___flmul@prod+3
  7503  03F7                     l747:
  7504  03F7  0849               	movf	___flmul@sign,w
  7505  03F8  00C4               	movwf	??___flmul
  7506  03F9  0844               	movf	??___flmul,w
  7507  03FA  04D3               	iorwf	___flmul@prod+3,f
  7508  03FB                     l2676:
  7509  03FB  0853               	movf	___flmul@prod+3,w
  7510  03FC  00BF               	movwf	?___flmul+3
  7511  03FD  0852               	movf	___flmul@prod+2,w
  7512  03FE  00BE               	movwf	?___flmul+2
  7513  03FF  0851               	movf	___flmul@prod+1,w
  7514  0400  00BD               	movwf	?___flmul+1
  7515  0401  0850               	movf	___flmul@prod,w
  7516  0402  00BC               	movwf	?___flmul
  7517  0403                     l735:
  7518  0403  0008               	return
  7519  0404                     __end_of___flmul:
  7520                           
  7521                           	psect	text25
  7522  125C                     __ptext25:	
  7523 ;; *************** function __Umul8_16 *****************
  7524 ;; Defined at:
  7525 ;;		line 4 in file "C:\Program Files\Microchip\xc8\v2.32\pic\sources\c90\common\Umul8_16.c"
  7526 ;; Parameters:    Size  Location     Type
  7527 ;;  multiplier      1    wreg     unsigned char 
  7528 ;;  multiplicand    1    0[COMMON] unsigned char 
  7529 ;; Auto vars:     Size  Location     Type
  7530 ;;  multiplier      1    8[COMMON] unsigned char 
  7531 ;;  word_mpld       2    6[COMMON] unsigned int 
  7532 ;;  product         2    4[COMMON] unsigned int 
  7533 ;; Return value:  Size  Location     Type
  7534 ;;                  2    0[COMMON] unsigned int 
  7535 ;; Registers used:
  7536 ;;		wreg, status,2, status,0
  7537 ;; Tracked objects:
  7538 ;;		On entry : 0/0
  7539 ;;		On exit  : 0/0
  7540 ;;		Unchanged: 0/0
  7541 ;; Data sizes:     COMMON   BANK0   BANK1   BANK3   BANK2
  7542 ;;      Params:         2       0       0       0       0
  7543 ;;      Locals:         5       0       0       0       0
  7544 ;;      Temps:          2       0       0       0       0
  7545 ;;      Totals:         9       0       0       0       0
  7546 ;;Total ram usage:        9 bytes
  7547 ;; Hardware stack levels used: 1
  7548 ;; This function calls:
  7549 ;;		Nothing
  7550 ;; This function is called by:
  7551 ;;		___flmul
  7552 ;; This function uses a non-reentrant model
  7553 ;;
  7554                           
  7555                           
  7556                           ;psect for function __Umul8_16
  7557  125C                     __Umul8_16:
  7558                           
  7559                           ;incstack = 0
  7560                           ; Regs used in __Umul8_16: [wreg+status,2+status,0]
  7561                           ;__Umul8_16@multiplier stored from wreg
  7562  125C  00F8               	movwf	__Umul8_16@multiplier
  7563  125D                     l2122:
  7564  125D  01F4               	clrf	__Umul8_16@product
  7565  125E  01F5               	clrf	__Umul8_16@product+1
  7566  125F                     l2124:
  7567  125F  0870               	movf	__Umul8_16@multiplicand,w
  7568  1260  00F2               	movwf	??__Umul8_16
  7569  1261  01F3               	clrf	??__Umul8_16+1
  7570  1262  0872               	movf	??__Umul8_16,w
  7571  1263  00F6               	movwf	__Umul8_16@word_mpld
  7572  1264  0873               	movf	??__Umul8_16+1,w
  7573  1265  00F7               	movwf	__Umul8_16@word_mpld+1
  7574  1266                     l2126:
  7575  1266  1C78               	btfss	__Umul8_16@multiplier,0
  7576  1267  2A69               	goto	u2491
  7577  1268  2A6A               	goto	u2490
  7578  1269                     u2491:
  7579  1269  2A70               	goto	l754
  7580  126A                     u2490:
  7581  126A                     l2128:
  7582  126A  0876               	movf	__Umul8_16@word_mpld,w
  7583  126B  07F4               	addwf	__Umul8_16@product,f
  7584  126C  1803               	skipnc
  7585  126D  0AF5               	incf	__Umul8_16@product+1,f
  7586  126E  0877               	movf	__Umul8_16@word_mpld+1,w
  7587  126F  07F5               	addwf	__Umul8_16@product+1,f
  7588  1270                     l754:
  7589  1270  3001               	movlw	1
  7590  1271                     u2505:
  7591  1271  1003               	clrc
  7592  1272  0DF6               	rlf	__Umul8_16@word_mpld,f
  7593  1273  0DF7               	rlf	__Umul8_16@word_mpld+1,f
  7594  1274  3EFF               	addlw	-1
  7595  1275  1D03               	skipz
  7596  1276  2A71               	goto	u2505
  7597  1277  1003               	clrc
  7598  1278  0CF8               	rrf	__Umul8_16@multiplier,f
  7599  1279                     l2130:
  7600  1279  0878               	movf	__Umul8_16@multiplier,w
  7601  127A  1D03               	btfss	3,2
  7602  127B  2A7D               	goto	u2511
  7603  127C  2A7E               	goto	u2510
  7604  127D                     u2511:
  7605  127D  2A66               	goto	l2126
  7606  127E                     u2510:
  7607  127E                     l2132:
  7608  127E  0875               	movf	__Umul8_16@product+1,w
  7609  127F  00F1               	movwf	?__Umul8_16+1
  7610  1280  0874               	movf	__Umul8_16@product,w
  7611  1281  00F0               	movwf	?__Umul8_16
  7612  1282                     l756:
  7613  1282  0008               	return
  7614  1283                     __end_of__Umul8_16:
  7615                           
  7616                           	psect	text26
  7617  0B15                     __ptext26:	
  7618 ;; *************** function ___fldiv *****************
  7619 ;; Defined at:
  7620 ;;		line 8 in file "C:\Program Files\Microchip\xc8\v2.32\pic\sources\c90\common\sprcdiv.c"
  7621 ;; Parameters:    Size  Location     Type
  7622 ;;  a               4    8[BANK1 ] unsigned int 
  7623 ;;  b               4   12[BANK1 ] unsigned int 
  7624 ;; Auto vars:     Size  Location     Type
  7625 ;;  grs             4   23[BANK1 ] unsigned long 
  7626 ;;  rem             4   16[BANK1 ] unsigned long 
  7627 ;;  new_exp         2   21[BANK1 ] int 
  7628 ;;  aexp            1   28[BANK1 ] unsigned char 
  7629 ;;  bexp            1   27[BANK1 ] unsigned char 
  7630 ;;  sign            1   20[BANK1 ] unsigned char 
  7631 ;; Return value:  Size  Location     Type
  7632 ;;                  4    8[BANK1 ] unsigned char 
  7633 ;; Registers used:
  7634 ;;		wreg, status,2, status,0, btemp+1
  7635 ;; Tracked objects:
  7636 ;;		On entry : 0/0
  7637 ;;		On exit  : 0/0
  7638 ;;		Unchanged: 0/0
  7639 ;; Data sizes:     COMMON   BANK0   BANK1   BANK3   BANK2
  7640 ;;      Params:         0       0       8       0       0
  7641 ;;      Locals:         0       0      13       0       0
  7642 ;;      Temps:          0       5       0       0       0
  7643 ;;      Totals:         0       5      21       0       0
  7644 ;;Total ram usage:       26 bytes
  7645 ;; Hardware stack levels used: 1
  7646 ;; This function calls:
  7647 ;;		Nothing
  7648 ;; This function is called by:
  7649 ;;		_realizarCalculo
  7650 ;;		_PWM1_Duty
  7651 ;;		_PWM2_Duty
  7652 ;; This function uses a non-reentrant model
  7653 ;;
  7654                           
  7655                           
  7656                           ;psect for function ___fldiv
  7657  0B15                     ___fldiv:
  7658  0B15                     l2398:	
  7659                           ;incstack = 0
  7660                           ; Regs used in ___fldiv: [wreg+status,2+status,0+btemp+1]
  7661                           
  7662  0B15  1683               	bsf	3,5	;RP0=1, select bank1
  7663  0B16  1303               	bcf	3,6	;RP1=0, select bank1
  7664  0B17  082F               	movf	(___fldiv@b^(0+128)+3),w
  7665  0B18  3980               	andlw	128
  7666  0B19  1283               	bcf	3,5	;RP0=0, select bank0
  7667  0B1A  1303               	bcf	3,6	;RP1=0, select bank0
  7668  0B1B  00EA               	movwf	??___fldiv
  7669  0B1C  086A               	movf	??___fldiv,w
  7670  0B1D  1683               	bsf	3,5	;RP0=1, select bank1
  7671  0B1E  1303               	bcf	3,6	;RP1=0, select bank1
  7672  0B1F  00B4               	movwf	___fldiv@sign^(0+128)
  7673  0B20                     l2400:
  7674  0B20  082F               	movf	(___fldiv@b^(0+128)+3),w
  7675  0B21  1283               	bcf	3,5	;RP0=0, select bank0
  7676  0B22  1303               	bcf	3,6	;RP1=0, select bank0
  7677  0B23  00EA               	movwf	??___fldiv
  7678  0B24  076A               	addwf	??___fldiv,w
  7679  0B25  00EB               	movwf	??___fldiv+1
  7680  0B26  086B               	movf	??___fldiv+1,w
  7681  0B27  1683               	bsf	3,5	;RP0=1, select bank1
  7682  0B28  1303               	bcf	3,6	;RP1=0, select bank1
  7683  0B29  00BB               	movwf	___fldiv@bexp^(0+128)
  7684  0B2A                     l2402:
  7685  0B2A  1FAE               	btfss	(___fldiv@b^(0+128)+2),7
  7686  0B2B  2B2D               	goto	u3131
  7687  0B2C  2B2E               	goto	u3130
  7688  0B2D                     u3131:
  7689  0B2D  2B2F               	goto	l2406
  7690  0B2E                     u3130:
  7691  0B2E                     l2404:
  7692  0B2E  143B               	bsf	___fldiv@bexp^(0+128),0
  7693  0B2F                     l2406:
  7694  0B2F  083B               	movf	___fldiv@bexp^(0+128),w
  7695  0B30  1903               	btfsc	3,2
  7696  0B31  2B33               	goto	u3141
  7697  0B32  2B34               	goto	u3140
  7698  0B33                     u3141:
  7699  0B33  2B44               	goto	l2416
  7700  0B34                     u3140:
  7701  0B34                     l2408:
  7702  0B34  0A3B               	incf	___fldiv@bexp^(0+128),w
  7703  0B35  1D03               	btfss	3,2
  7704  0B36  2B38               	goto	u3151
  7705  0B37  2B39               	goto	u3150
  7706  0B38                     u3151:
  7707  0B38  2B41               	goto	l2412
  7708  0B39                     u3150:
  7709  0B39                     l2410:
  7710  0B39  3000               	movlw	0
  7711  0B3A  00AF               	movwf	(___fldiv@b+3)^(0+128)
  7712  0B3B  3000               	movlw	0
  7713  0B3C  00AE               	movwf	(___fldiv@b+2)^(0+128)
  7714  0B3D  3000               	movlw	0
  7715  0B3E  00AD               	movwf	(___fldiv@b+1)^(0+128)
  7716  0B3F  3000               	movlw	0
  7717  0B40  00AC               	movwf	___fldiv@b^(0+128)
  7718  0B41                     l2412:
  7719  0B41  17AE               	bsf	(___fldiv@b^(0+128)+2),7
  7720  0B42                     l2414:
  7721  0B42  01AF               	clrf	(___fldiv@b^(0+128)+3)
  7722  0B43  2B4C               	goto	l2418
  7723  0B44                     l2416:
  7724  0B44  3000               	movlw	0
  7725  0B45  00AF               	movwf	(___fldiv@b+3)^(0+128)
  7726  0B46  3000               	movlw	0
  7727  0B47  00AE               	movwf	(___fldiv@b+2)^(0+128)
  7728  0B48  3000               	movlw	0
  7729  0B49  00AD               	movwf	(___fldiv@b+1)^(0+128)
  7730  0B4A  3000               	movlw	0
  7731  0B4B  00AC               	movwf	___fldiv@b^(0+128)
  7732  0B4C                     l2418:
  7733  0B4C  082B               	movf	(___fldiv@a^(0+128)+3),w
  7734  0B4D  3980               	andlw	128
  7735  0B4E  1283               	bcf	3,5	;RP0=0, select bank0
  7736  0B4F  1303               	bcf	3,6	;RP1=0, select bank0
  7737  0B50  00EA               	movwf	??___fldiv
  7738  0B51  086A               	movf	??___fldiv,w
  7739  0B52  1683               	bsf	3,5	;RP0=1, select bank1
  7740  0B53  1303               	bcf	3,6	;RP1=0, select bank1
  7741  0B54  06B4               	xorwf	___fldiv@sign^(0+128),f
  7742  0B55                     l2420:
  7743  0B55  082B               	movf	(___fldiv@a^(0+128)+3),w
  7744  0B56  1283               	bcf	3,5	;RP0=0, select bank0
  7745  0B57  1303               	bcf	3,6	;RP1=0, select bank0
  7746  0B58  00EA               	movwf	??___fldiv
  7747  0B59  076A               	addwf	??___fldiv,w
  7748  0B5A  00EB               	movwf	??___fldiv+1
  7749  0B5B  086B               	movf	??___fldiv+1,w
  7750  0B5C  1683               	bsf	3,5	;RP0=1, select bank1
  7751  0B5D  1303               	bcf	3,6	;RP1=0, select bank1
  7752  0B5E  00BC               	movwf	___fldiv@aexp^(0+128)
  7753  0B5F                     l2422:
  7754  0B5F  1FAA               	btfss	(___fldiv@a^(0+128)+2),7
  7755  0B60  2B62               	goto	u3161
  7756  0B61  2B63               	goto	u3160
  7757  0B62                     u3161:
  7758  0B62  2B64               	goto	l2426
  7759  0B63                     u3160:
  7760  0B63                     l2424:
  7761  0B63  143C               	bsf	___fldiv@aexp^(0+128),0
  7762  0B64                     l2426:
  7763  0B64  083C               	movf	___fldiv@aexp^(0+128),w
  7764  0B65  1903               	btfsc	3,2
  7765  0B66  2B68               	goto	u3171
  7766  0B67  2B69               	goto	u3170
  7767  0B68                     u3171:
  7768  0B68  2B79               	goto	l2436
  7769  0B69                     u3170:
  7770  0B69                     l2428:
  7771  0B69  0A3C               	incf	___fldiv@aexp^(0+128),w
  7772  0B6A  1D03               	btfss	3,2
  7773  0B6B  2B6D               	goto	u3181
  7774  0B6C  2B6E               	goto	u3180
  7775  0B6D                     u3181:
  7776  0B6D  2B76               	goto	l2432
  7777  0B6E                     u3180:
  7778  0B6E                     l2430:
  7779  0B6E  3000               	movlw	0
  7780  0B6F  00AB               	movwf	(___fldiv@a+3)^(0+128)
  7781  0B70  3000               	movlw	0
  7782  0B71  00AA               	movwf	(___fldiv@a+2)^(0+128)
  7783  0B72  3000               	movlw	0
  7784  0B73  00A9               	movwf	(___fldiv@a+1)^(0+128)
  7785  0B74  3000               	movlw	0
  7786  0B75  00A8               	movwf	___fldiv@a^(0+128)
  7787  0B76                     l2432:
  7788  0B76  17AA               	bsf	(___fldiv@a^(0+128)+2),7
  7789  0B77                     l2434:
  7790  0B77  01AB               	clrf	(___fldiv@a^(0+128)+3)
  7791  0B78  2B81               	goto	l695
  7792  0B79                     l2436:
  7793  0B79  3000               	movlw	0
  7794  0B7A  00AB               	movwf	(___fldiv@a+3)^(0+128)
  7795  0B7B  3000               	movlw	0
  7796  0B7C  00AA               	movwf	(___fldiv@a+2)^(0+128)
  7797  0B7D  3000               	movlw	0
  7798  0B7E  00A9               	movwf	(___fldiv@a+1)^(0+128)
  7799  0B7F  3000               	movlw	0
  7800  0B80  00A8               	movwf	___fldiv@a^(0+128)
  7801  0B81                     l695:
  7802  0B81  082B               	movf	(___fldiv@a+3)^(0+128),w
  7803  0B82  042A               	iorwf	(___fldiv@a+2)^(0+128),w
  7804  0B83  0429               	iorwf	(___fldiv@a+1)^(0+128),w
  7805  0B84  0428               	iorwf	___fldiv@a^(0+128),w
  7806  0B85  1D03               	skipz
  7807  0B86  2B88               	goto	u3191
  7808  0B87  2B89               	goto	u3190
  7809  0B88                     u3191:
  7810  0B88  2BA6               	goto	l2446
  7811  0B89                     u3190:
  7812  0B89                     l2438:
  7813  0B89  3000               	movlw	0
  7814  0B8A  00AF               	movwf	(___fldiv@b+3)^(0+128)
  7815  0B8B  3000               	movlw	0
  7816  0B8C  00AE               	movwf	(___fldiv@b+2)^(0+128)
  7817  0B8D  3000               	movlw	0
  7818  0B8E  00AD               	movwf	(___fldiv@b+1)^(0+128)
  7819  0B8F  3000               	movlw	0
  7820  0B90  00AC               	movwf	___fldiv@b^(0+128)
  7821  0B91  3080               	movlw	128
  7822  0B92  04AE               	iorwf	(___fldiv@b^(0+128)+2),f
  7823  0B93  307F               	movlw	127
  7824  0B94  04AF               	iorwf	((___fldiv@b+1)^(0+128)+2),f
  7825  0B95                     l2440:
  7826  0B95  0834               	movf	___fldiv@sign^(0+128),w
  7827  0B96  1283               	bcf	3,5	;RP0=0, select bank0
  7828  0B97  1303               	bcf	3,6	;RP1=0, select bank0
  7829  0B98  00EA               	movwf	??___fldiv
  7830  0B99  086A               	movf	??___fldiv,w
  7831  0B9A  1683               	bsf	3,5	;RP0=1, select bank1
  7832  0B9B  1303               	bcf	3,6	;RP1=0, select bank1
  7833  0B9C  04AF               	iorwf	(___fldiv@b^(0+128)+3),f
  7834  0B9D                     l2442:
  7835  0B9D  082F               	movf	(___fldiv@b+3)^(0+128),w
  7836  0B9E  00AB               	movwf	(?___fldiv+3)^(0+128)
  7837  0B9F  082E               	movf	(___fldiv@b+2)^(0+128),w
  7838  0BA0  00AA               	movwf	(?___fldiv+2)^(0+128)
  7839  0BA1  082D               	movf	(___fldiv@b+1)^(0+128),w
  7840  0BA2  00A9               	movwf	(?___fldiv+1)^(0+128)
  7841  0BA3  082C               	movf	___fldiv@b^(0+128),w
  7842  0BA4  00A8               	movwf	?___fldiv^(0+128)
  7843  0BA5  2D77               	goto	l697
  7844  0BA6                     l2446:
  7845  0BA6  083B               	movf	___fldiv@bexp^(0+128),w
  7846  0BA7  1D03               	btfss	3,2
  7847  0BA8  2BAA               	goto	u3201
  7848  0BA9  2BAB               	goto	u3200
  7849  0BAA                     u3201:
  7850  0BAA  2BB4               	goto	l2452
  7851  0BAB                     u3200:
  7852  0BAB                     l2448:
  7853  0BAB  3000               	movlw	0
  7854  0BAC  00AB               	movwf	(?___fldiv+3)^(0+128)
  7855  0BAD  3000               	movlw	0
  7856  0BAE  00AA               	movwf	(?___fldiv+2)^(0+128)
  7857  0BAF  3000               	movlw	0
  7858  0BB0  00A9               	movwf	(?___fldiv+1)^(0+128)
  7859  0BB1  3000               	movlw	0
  7860  0BB2  00A8               	movwf	?___fldiv^(0+128)
  7861  0BB3  2D77               	goto	l697
  7862  0BB4                     l2452:
  7863  0BB4  083B               	movf	___fldiv@bexp^(0+128),w
  7864  0BB5  1283               	bcf	3,5	;RP0=0, select bank0
  7865  0BB6  1303               	bcf	3,6	;RP1=0, select bank0
  7866  0BB7  00EA               	movwf	??___fldiv
  7867  0BB8  01EB               	clrf	??___fldiv+1
  7868  0BB9  086B               	movf	??___fldiv+1,w
  7869  0BBA  00ED               	movwf	??___fldiv+3
  7870  0BBB  1683               	bsf	3,5	;RP0=1, select bank1
  7871  0BBC  1303               	bcf	3,6	;RP1=0, select bank1
  7872  0BBD  083C               	movf	___fldiv@aexp^(0+128),w
  7873  0BBE  1283               	bcf	3,5	;RP0=0, select bank0
  7874  0BBF  1303               	bcf	3,6	;RP1=0, select bank0
  7875  0BC0  026A               	subwf	??___fldiv,w
  7876  0BC1  00EC               	movwf	??___fldiv+2
  7877  0BC2  1C03               	skipc
  7878  0BC3  03ED               	decf	??___fldiv+3,f
  7879  0BC4  086C               	movf	??___fldiv+2,w
  7880  0BC5  3E7F               	addlw	127
  7881  0BC6  1683               	bsf	3,5	;RP0=1, select bank1
  7882  0BC7  1303               	bcf	3,6	;RP1=0, select bank1
  7883  0BC8  00B5               	movwf	___fldiv@new_exp^(0+128)
  7884  0BC9  1283               	bcf	3,5	;RP0=0, select bank0
  7885  0BCA  1303               	bcf	3,6	;RP1=0, select bank0
  7886  0BCB  086D               	movf	??___fldiv+3,w
  7887  0BCC  1803               	skipnc
  7888  0BCD  3E01               	addlw	1
  7889  0BCE  3E00               	addlw	0
  7890  0BCF  1683               	bsf	3,5	;RP0=1, select bank1
  7891  0BD0  1303               	bcf	3,6	;RP1=0, select bank1
  7892  0BD1  00B6               	movwf	(___fldiv@new_exp+1)^(0+128)
  7893  0BD2                     l2454:
  7894  0BD2  082F               	movf	(___fldiv@b+3)^(0+128),w
  7895  0BD3  00B3               	movwf	(___fldiv@rem+3)^(0+128)
  7896  0BD4  082E               	movf	(___fldiv@b+2)^(0+128),w
  7897  0BD5  00B2               	movwf	(___fldiv@rem+2)^(0+128)
  7898  0BD6  082D               	movf	(___fldiv@b+1)^(0+128),w
  7899  0BD7  00B1               	movwf	(___fldiv@rem+1)^(0+128)
  7900  0BD8  082C               	movf	___fldiv@b^(0+128),w
  7901  0BD9  00B0               	movwf	___fldiv@rem^(0+128)
  7902  0BDA                     l2456:
  7903  0BDA  3000               	movlw	0
  7904  0BDB  00AF               	movwf	(___fldiv@b+3)^(0+128)
  7905  0BDC  3000               	movlw	0
  7906  0BDD  00AE               	movwf	(___fldiv@b+2)^(0+128)
  7907  0BDE  3000               	movlw	0
  7908  0BDF  00AD               	movwf	(___fldiv@b+1)^(0+128)
  7909  0BE0  3000               	movlw	0
  7910  0BE1  00AC               	movwf	___fldiv@b^(0+128)
  7911  0BE2                     l2458:
  7912  0BE2  3000               	movlw	0
  7913  0BE3  00BA               	movwf	(___fldiv@grs+3)^(0+128)
  7914  0BE4  3000               	movlw	0
  7915  0BE5  00B9               	movwf	(___fldiv@grs+2)^(0+128)
  7916  0BE6  3000               	movlw	0
  7917  0BE7  00B8               	movwf	(___fldiv@grs+1)^(0+128)
  7918  0BE8  3000               	movlw	0
  7919  0BE9  00B7               	movwf	___fldiv@grs^(0+128)
  7920  0BEA                     l2460:
  7921  0BEA  01BC               	clrf	___fldiv@aexp^(0+128)
  7922  0BEB  2C4E               	goto	l2480
  7923  0BEC                     l2462:
  7924  0BEC  083C               	movf	___fldiv@aexp^(0+128),w
  7925  0BED  1903               	btfsc	3,2
  7926  0BEE  2BF0               	goto	u3211
  7927  0BEF  2BF1               	goto	u3210
  7928  0BF0                     u3211:
  7929  0BF0  2C23               	goto	l2472
  7930  0BF1                     u3210:
  7931  0BF1                     l2464:
  7932  0BF1  3001               	movlw	1
  7933  0BF2  1283               	bcf	3,5	;RP0=0, select bank0
  7934  0BF3  1303               	bcf	3,6	;RP1=0, select bank0
  7935  0BF4  00EA               	movwf	??___fldiv
  7936  0BF5                     u3225:
  7937  0BF5  1003               	clrc
  7938  0BF6  1683               	bsf	3,5	;RP0=1, select bank1
  7939  0BF7  1303               	bcf	3,6	;RP1=0, select bank1
  7940  0BF8  0DB0               	rlf	___fldiv@rem^(0+128),f
  7941  0BF9  0DB1               	rlf	(___fldiv@rem+1)^(0+128),f
  7942  0BFA  0DB2               	rlf	(___fldiv@rem+2)^(0+128),f
  7943  0BFB  0DB3               	rlf	(___fldiv@rem+3)^(0+128),f
  7944  0BFC  1283               	bcf	3,5	;RP0=0, select bank0
  7945  0BFD  1303               	bcf	3,6	;RP1=0, select bank0
  7946  0BFE  0BEA               	decfsz	??___fldiv,f
  7947  0BFF  2BF5               	goto	u3225
  7948  0C00  3001               	movlw	1
  7949  0C01  00EA               	movwf	??___fldiv
  7950  0C02                     u3235:
  7951  0C02  1003               	clrc
  7952  0C03  1683               	bsf	3,5	;RP0=1, select bank1
  7953  0C04  1303               	bcf	3,6	;RP1=0, select bank1
  7954  0C05  0DAC               	rlf	___fldiv@b^(0+128),f
  7955  0C06  0DAD               	rlf	(___fldiv@b+1)^(0+128),f
  7956  0C07  0DAE               	rlf	(___fldiv@b+2)^(0+128),f
  7957  0C08  0DAF               	rlf	(___fldiv@b+3)^(0+128),f
  7958  0C09  1283               	bcf	3,5	;RP0=0, select bank0
  7959  0C0A  1303               	bcf	3,6	;RP1=0, select bank0
  7960  0C0B  0BEA               	decfsz	??___fldiv,f
  7961  0C0C  2C02               	goto	u3235
  7962  0C0D                     l2466:
  7963  0C0D  1683               	bsf	3,5	;RP0=1, select bank1
  7964  0C0E  1303               	bcf	3,6	;RP1=0, select bank1
  7965  0C0F  1FBA               	btfss	(___fldiv@grs+3)^(0+128),7
  7966  0C10  2C12               	goto	u3241
  7967  0C11  2C13               	goto	u3240
  7968  0C12                     u3241:
  7969  0C12  2C14               	goto	l2470
  7970  0C13                     u3240:
  7971  0C13                     l2468:
  7972  0C13  142C               	bsf	___fldiv@b^(0+128),0
  7973  0C14                     l2470:
  7974  0C14  3001               	movlw	1
  7975  0C15  1283               	bcf	3,5	;RP0=0, select bank0
  7976  0C16  1303               	bcf	3,6	;RP1=0, select bank0
  7977  0C17  00EA               	movwf	??___fldiv
  7978  0C18                     u3255:
  7979  0C18  1003               	clrc
  7980  0C19  1683               	bsf	3,5	;RP0=1, select bank1
  7981  0C1A  1303               	bcf	3,6	;RP1=0, select bank1
  7982  0C1B  0DB7               	rlf	___fldiv@grs^(0+128),f
  7983  0C1C  0DB8               	rlf	(___fldiv@grs+1)^(0+128),f
  7984  0C1D  0DB9               	rlf	(___fldiv@grs+2)^(0+128),f
  7985  0C1E  0DBA               	rlf	(___fldiv@grs+3)^(0+128),f
  7986  0C1F  1283               	bcf	3,5	;RP0=0, select bank0
  7987  0C20  1303               	bcf	3,6	;RP1=0, select bank0
  7988  0C21  0BEA               	decfsz	??___fldiv,f
  7989  0C22  2C18               	goto	u3255
  7990  0C23                     l2472:
  7991  0C23  1683               	bsf	3,5	;RP0=1, select bank1
  7992  0C24  1303               	bcf	3,6	;RP1=0, select bank1
  7993  0C25  082B               	movf	(___fldiv@a+3)^(0+128),w
  7994  0C26  0233               	subwf	(___fldiv@rem+3)^(0+128),w
  7995  0C27  1D03               	skipz
  7996  0C28  2C33               	goto	u3265
  7997  0C29  082A               	movf	(___fldiv@a+2)^(0+128),w
  7998  0C2A  0232               	subwf	(___fldiv@rem+2)^(0+128),w
  7999  0C2B  1D03               	skipz
  8000  0C2C  2C33               	goto	u3265
  8001  0C2D  0829               	movf	(___fldiv@a+1)^(0+128),w
  8002  0C2E  0231               	subwf	(___fldiv@rem+1)^(0+128),w
  8003  0C2F  1D03               	skipz
  8004  0C30  2C33               	goto	u3265
  8005  0C31  0828               	movf	___fldiv@a^(0+128),w
  8006  0C32  0230               	subwf	___fldiv@rem^(0+128),w
  8007  0C33                     u3265:
  8008  0C33  1C03               	skipc
  8009  0C34  2C36               	goto	u3261
  8010  0C35  2C37               	goto	u3260
  8011  0C36                     u3261:
  8012  0C36  2C46               	goto	l2478
  8013  0C37                     u3260:
  8014  0C37                     l2474:
  8015  0C37  173A               	bsf	(___fldiv@grs^(0+128)+3),6
  8016  0C38                     l2476:
  8017  0C38  0828               	movf	___fldiv@a^(0+128),w
  8018  0C39  02B0               	subwf	___fldiv@rem^(0+128),f
  8019  0C3A  0829               	movf	(___fldiv@a+1)^(0+128),w
  8020  0C3B  1C03               	skipc
  8021  0C3C  0F29               	incfsz	(___fldiv@a+1)^(0+128),w
  8022  0C3D  02B1               	subwf	(___fldiv@rem+1)^(0+128),f
  8023  0C3E  082A               	movf	(___fldiv@a+2)^(0+128),w
  8024  0C3F  1C03               	skipc
  8025  0C40  0F2A               	incfsz	(___fldiv@a+2)^(0+128),w
  8026  0C41  02B2               	subwf	(___fldiv@rem+2)^(0+128),f
  8027  0C42  082B               	movf	(___fldiv@a+3)^(0+128),w
  8028  0C43  1C03               	skipc
  8029  0C44  0F2B               	incfsz	(___fldiv@a+3)^(0+128),w
  8030  0C45  02B3               	subwf	(___fldiv@rem+3)^(0+128),f
  8031  0C46                     l2478:
  8032  0C46  3001               	movlw	1
  8033  0C47  1283               	bcf	3,5	;RP0=0, select bank0
  8034  0C48  1303               	bcf	3,6	;RP1=0, select bank0
  8035  0C49  00EA               	movwf	??___fldiv
  8036  0C4A  086A               	movf	??___fldiv,w
  8037  0C4B  1683               	bsf	3,5	;RP0=1, select bank1
  8038  0C4C  1303               	bcf	3,6	;RP1=0, select bank1
  8039  0C4D  07BC               	addwf	___fldiv@aexp^(0+128),f
  8040  0C4E                     l2480:
  8041  0C4E  301A               	movlw	26
  8042  0C4F  023C               	subwf	___fldiv@aexp^(0+128),w
  8043  0C50  1C03               	skipc
  8044  0C51  2C53               	goto	u3271
  8045  0C52  2C54               	goto	u3270
  8046  0C53                     u3271:
  8047  0C53  2BEC               	goto	l2462
  8048  0C54                     u3270:
  8049  0C54                     l2482:
  8050  0C54  0833               	movf	(___fldiv@rem+3)^(0+128),w
  8051  0C55  0432               	iorwf	(___fldiv@rem+2)^(0+128),w
  8052  0C56  0431               	iorwf	(___fldiv@rem+1)^(0+128),w
  8053  0C57  0430               	iorwf	___fldiv@rem^(0+128),w
  8054  0C58  1903               	skipnz
  8055  0C59  2C5B               	goto	u3281
  8056  0C5A  2C5C               	goto	u3280
  8057  0C5B                     u3281:
  8058  0C5B  2C8B               	goto	l2496
  8059  0C5C                     u3280:
  8060  0C5C                     l2484:
  8061  0C5C  1437               	bsf	___fldiv@grs^(0+128),0
  8062  0C5D  2C8B               	goto	l2496
  8063  0C5E                     l2486:
  8064  0C5E  3001               	movlw	1
  8065  0C5F  1283               	bcf	3,5	;RP0=0, select bank0
  8066  0C60  1303               	bcf	3,6	;RP1=0, select bank0
  8067  0C61  00EA               	movwf	??___fldiv
  8068  0C62                     u3295:
  8069  0C62  1003               	clrc
  8070  0C63  1683               	bsf	3,5	;RP0=1, select bank1
  8071  0C64  1303               	bcf	3,6	;RP1=0, select bank1
  8072  0C65  0DAC               	rlf	___fldiv@b^(0+128),f
  8073  0C66  0DAD               	rlf	(___fldiv@b+1)^(0+128),f
  8074  0C67  0DAE               	rlf	(___fldiv@b+2)^(0+128),f
  8075  0C68  0DAF               	rlf	(___fldiv@b+3)^(0+128),f
  8076  0C69  1283               	bcf	3,5	;RP0=0, select bank0
  8077  0C6A  1303               	bcf	3,6	;RP1=0, select bank0
  8078  0C6B  0BEA               	decfsz	??___fldiv,f
  8079  0C6C  2C62               	goto	u3295
  8080  0C6D                     l2488:
  8081  0C6D  1683               	bsf	3,5	;RP0=1, select bank1
  8082  0C6E  1303               	bcf	3,6	;RP1=0, select bank1
  8083  0C6F  1FBA               	btfss	(___fldiv@grs+3)^(0+128),7
  8084  0C70  2C72               	goto	u3301
  8085  0C71  2C73               	goto	u3300
  8086  0C72                     u3301:
  8087  0C72  2C74               	goto	l2492
  8088  0C73                     u3300:
  8089  0C73                     l2490:
  8090  0C73  142C               	bsf	___fldiv@b^(0+128),0
  8091  0C74                     l2492:
  8092  0C74  3001               	movlw	1
  8093  0C75  1283               	bcf	3,5	;RP0=0, select bank0
  8094  0C76  1303               	bcf	3,6	;RP1=0, select bank0
  8095  0C77  00EA               	movwf	??___fldiv
  8096  0C78                     u3315:
  8097  0C78  1003               	clrc
  8098  0C79  1683               	bsf	3,5	;RP0=1, select bank1
  8099  0C7A  1303               	bcf	3,6	;RP1=0, select bank1
  8100  0C7B  0DB7               	rlf	___fldiv@grs^(0+128),f
  8101  0C7C  0DB8               	rlf	(___fldiv@grs+1)^(0+128),f
  8102  0C7D  0DB9               	rlf	(___fldiv@grs+2)^(0+128),f
  8103  0C7E  0DBA               	rlf	(___fldiv@grs+3)^(0+128),f
  8104  0C7F  1283               	bcf	3,5	;RP0=0, select bank0
  8105  0C80  1303               	bcf	3,6	;RP1=0, select bank0
  8106  0C81  0BEA               	decfsz	??___fldiv,f
  8107  0C82  2C78               	goto	u3315
  8108  0C83                     l2494:
  8109  0C83  30FF               	movlw	255
  8110  0C84  1683               	bsf	3,5	;RP0=1, select bank1
  8111  0C85  1303               	bcf	3,6	;RP1=0, select bank1
  8112  0C86  07B5               	addwf	___fldiv@new_exp^(0+128),f
  8113  0C87  1803               	skipnc
  8114  0C88  0AB6               	incf	(___fldiv@new_exp+1)^(0+128),f
  8115  0C89  30FF               	movlw	255
  8116  0C8A  07B6               	addwf	(___fldiv@new_exp+1)^(0+128),f
  8117  0C8B                     l2496:
  8118  0C8B  1FAE               	btfss	(___fldiv@b+2)^(0+128),7
  8119  0C8C  2C8E               	goto	u3321
  8120  0C8D  2C8F               	goto	u3320
  8121  0C8E                     u3321:
  8122  0C8E  2C5E               	goto	l2486
  8123  0C8F                     u3320:
  8124  0C8F                     l2498:
  8125  0C8F  01BC               	clrf	___fldiv@aexp^(0+128)
  8126  0C90                     l2500:
  8127  0C90  1FBA               	btfss	(___fldiv@grs+3)^(0+128),7
  8128  0C91  2C93               	goto	u3331
  8129  0C92  2C94               	goto	u3330
  8130  0C93                     u3331:
  8131  0C93  2CC2               	goto	l2508
  8132  0C94                     u3330:
  8133  0C94                     l2502:
  8134  0C94  30FF               	movlw	255
  8135  0C95  0537               	andwf	___fldiv@grs^(0+128),w
  8136  0C96  1283               	bcf	3,5	;RP0=0, select bank0
  8137  0C97  1303               	bcf	3,6	;RP1=0, select bank0
  8138  0C98  00EA               	movwf	??___fldiv
  8139  0C99  30FF               	movlw	255
  8140  0C9A  1683               	bsf	3,5	;RP0=1, select bank1
  8141  0C9B  1303               	bcf	3,6	;RP1=0, select bank1
  8142  0C9C  0538               	andwf	(___fldiv@grs+1)^(0+128),w
  8143  0C9D  1283               	bcf	3,5	;RP0=0, select bank0
  8144  0C9E  1303               	bcf	3,6	;RP1=0, select bank0
  8145  0C9F  00EB               	movwf	??___fldiv+1
  8146  0CA0  30FF               	movlw	255
  8147  0CA1  1683               	bsf	3,5	;RP0=1, select bank1
  8148  0CA2  1303               	bcf	3,6	;RP1=0, select bank1
  8149  0CA3  0539               	andwf	(___fldiv@grs+2)^(0+128),w
  8150  0CA4  1283               	bcf	3,5	;RP0=0, select bank0
  8151  0CA5  1303               	bcf	3,6	;RP1=0, select bank0
  8152  0CA6  00EC               	movwf	??___fldiv+2
  8153  0CA7  307F               	movlw	127
  8154  0CA8  1683               	bsf	3,5	;RP0=1, select bank1
  8155  0CA9  1303               	bcf	3,6	;RP1=0, select bank1
  8156  0CAA  053A               	andwf	(___fldiv@grs+3)^(0+128),w
  8157  0CAB  1283               	bcf	3,5	;RP0=0, select bank0
  8158  0CAC  1303               	bcf	3,6	;RP1=0, select bank0
  8159  0CAD  00ED               	movwf	??___fldiv+3
  8160  0CAE  086D               	movf	??___fldiv+3,w
  8161  0CAF  046C               	iorwf	??___fldiv+2,w
  8162  0CB0  046B               	iorwf	??___fldiv+1,w
  8163  0CB1  046A               	iorwf	??___fldiv,w
  8164  0CB2  1903               	skipnz
  8165  0CB3  2CB5               	goto	u3341
  8166  0CB4  2CB6               	goto	u3340
  8167  0CB5                     u3341:
  8168  0CB5  2CBB               	goto	l711
  8169  0CB6                     u3340:
  8170  0CB6                     l2504:
  8171  0CB6  1683               	bsf	3,5	;RP0=1, select bank1
  8172  0CB7  1303               	bcf	3,6	;RP1=0, select bank1
  8173  0CB8  01BC               	clrf	___fldiv@aexp^(0+128)
  8174  0CB9  0ABC               	incf	___fldiv@aexp^(0+128),f
  8175  0CBA  2CC2               	goto	l2508
  8176  0CBB                     l711:
  8177  0CBB  1683               	bsf	3,5	;RP0=1, select bank1
  8178  0CBC  1303               	bcf	3,6	;RP1=0, select bank1
  8179  0CBD  1C2C               	btfss	___fldiv@b^(0+128),0
  8180  0CBE  2CC0               	goto	u3351
  8181  0CBF  2CC1               	goto	u3350
  8182  0CC0                     u3351:
  8183  0CC0  2CC2               	goto	l2508
  8184  0CC1                     u3350:
  8185  0CC1  2CB6               	goto	l2504
  8186  0CC2                     l2508:
  8187  0CC2  083C               	movf	___fldiv@aexp^(0+128),w
  8188  0CC3  1903               	btfsc	3,2
  8189  0CC4  2CC6               	goto	u3361
  8190  0CC5  2CC7               	goto	u3360
  8191  0CC6                     u3361:
  8192  0CC6  2D14               	goto	l2518
  8193  0CC7                     u3360:
  8194  0CC7                     l2510:
  8195  0CC7  3001               	movlw	1
  8196  0CC8  07AC               	addwf	___fldiv@b^(0+128),f
  8197  0CC9  3000               	movlw	0
  8198  0CCA  1803               	skipnc
  8199  0CCB  3001               	movlw	1
  8200  0CCC  07AD               	addwf	(___fldiv@b+1)^(0+128),f
  8201  0CCD  3000               	movlw	0
  8202  0CCE  1803               	skipnc
  8203  0CCF  3001               	movlw	1
  8204  0CD0  07AE               	addwf	(___fldiv@b+2)^(0+128),f
  8205  0CD1  3000               	movlw	0
  8206  0CD2  1803               	skipnc
  8207  0CD3  3001               	movlw	1
  8208  0CD4  07AF               	addwf	(___fldiv@b+3)^(0+128),f
  8209  0CD5                     l2512:
  8210  0CD5  1C2F               	btfss	(___fldiv@b+3)^(0+128),0
  8211  0CD6  2CD8               	goto	u3371
  8212  0CD7  2CD9               	goto	u3370
  8213  0CD8                     u3371:
  8214  0CD8  2D14               	goto	l2518
  8215  0CD9                     u3370:
  8216  0CD9                     l2514:
  8217  0CD9  082C               	movf	___fldiv@b^(0+128),w
  8218  0CDA  1283               	bcf	3,5	;RP0=0, select bank0
  8219  0CDB  1303               	bcf	3,6	;RP1=0, select bank0
  8220  0CDC  00EA               	movwf	??___fldiv
  8221  0CDD  1683               	bsf	3,5	;RP0=1, select bank1
  8222  0CDE  1303               	bcf	3,6	;RP1=0, select bank1
  8223  0CDF  082D               	movf	(___fldiv@b+1)^(0+128),w
  8224  0CE0  1283               	bcf	3,5	;RP0=0, select bank0
  8225  0CE1  1303               	bcf	3,6	;RP1=0, select bank0
  8226  0CE2  00EB               	movwf	??___fldiv+1
  8227  0CE3  1683               	bsf	3,5	;RP0=1, select bank1
  8228  0CE4  1303               	bcf	3,6	;RP1=0, select bank1
  8229  0CE5  082E               	movf	(___fldiv@b+2)^(0+128),w
  8230  0CE6  1283               	bcf	3,5	;RP0=0, select bank0
  8231  0CE7  1303               	bcf	3,6	;RP1=0, select bank0
  8232  0CE8  00EC               	movwf	??___fldiv+2
  8233  0CE9  1683               	bsf	3,5	;RP0=1, select bank1
  8234  0CEA  1303               	bcf	3,6	;RP1=0, select bank1
  8235  0CEB  082F               	movf	(___fldiv@b+3)^(0+128),w
  8236  0CEC  1283               	bcf	3,5	;RP0=0, select bank0
  8237  0CED  1303               	bcf	3,6	;RP1=0, select bank0
  8238  0CEE  00ED               	movwf	??___fldiv+3
  8239  0CEF  3001               	movlw	1
  8240  0CF0  00EE               	movwf	??___fldiv+4
  8241  0CF1                     u3385:
  8242  0CF1  0D6D               	rlf	??___fldiv+3,w
  8243  0CF2  0CED               	rrf	??___fldiv+3,f
  8244  0CF3  0CEC               	rrf	??___fldiv+2,f
  8245  0CF4  0CEB               	rrf	??___fldiv+1,f
  8246  0CF5  0CEA               	rrf	??___fldiv,f
  8247  0CF6                     u3380:
  8248  0CF6  0BEE               	decfsz	??___fldiv+4,f
  8249  0CF7  2CF1               	goto	u3385
  8250  0CF8  086D               	movf	??___fldiv+3,w
  8251  0CF9  1683               	bsf	3,5	;RP0=1, select bank1
  8252  0CFA  1303               	bcf	3,6	;RP1=0, select bank1
  8253  0CFB  00AF               	movwf	(___fldiv@b+3)^(0+128)
  8254  0CFC  1283               	bcf	3,5	;RP0=0, select bank0
  8255  0CFD  1303               	bcf	3,6	;RP1=0, select bank0
  8256  0CFE  086C               	movf	??___fldiv+2,w
  8257  0CFF  1683               	bsf	3,5	;RP0=1, select bank1
  8258  0D00  1303               	bcf	3,6	;RP1=0, select bank1
  8259  0D01  00AE               	movwf	(___fldiv@b+2)^(0+128)
  8260  0D02  1283               	bcf	3,5	;RP0=0, select bank0
  8261  0D03  1303               	bcf	3,6	;RP1=0, select bank0
  8262  0D04  086B               	movf	??___fldiv+1,w
  8263  0D05  1683               	bsf	3,5	;RP0=1, select bank1
  8264  0D06  1303               	bcf	3,6	;RP1=0, select bank1
  8265  0D07  00AD               	movwf	(___fldiv@b+1)^(0+128)
  8266  0D08  1283               	bcf	3,5	;RP0=0, select bank0
  8267  0D09  1303               	bcf	3,6	;RP1=0, select bank0
  8268  0D0A  086A               	movf	??___fldiv,w
  8269  0D0B  1683               	bsf	3,5	;RP0=1, select bank1
  8270  0D0C  1303               	bcf	3,6	;RP1=0, select bank1
  8271  0D0D  00AC               	movwf	___fldiv@b^(0+128)
  8272  0D0E                     l2516:
  8273  0D0E  3001               	movlw	1
  8274  0D0F  07B5               	addwf	___fldiv@new_exp^(0+128),f
  8275  0D10  1803               	skipnc
  8276  0D11  0AB6               	incf	(___fldiv@new_exp+1)^(0+128),f
  8277  0D12  3000               	movlw	0
  8278  0D13  07B6               	addwf	(___fldiv@new_exp+1)^(0+128),f
  8279  0D14                     l2518:
  8280  0D14  0836               	movf	(___fldiv@new_exp+1)^(0+128),w
  8281  0D15  3A80               	xorlw	128
  8282  0D16  00FF               	movwf	btemp+1
  8283  0D17  3080               	movlw	128
  8284  0D18  027F               	subwf	btemp+1,w
  8285  0D19  1D03               	skipz
  8286  0D1A  2D1D               	goto	u3395
  8287  0D1B  30FF               	movlw	255
  8288  0D1C  0235               	subwf	___fldiv@new_exp^(0+128),w
  8289  0D1D                     u3395:
  8290  0D1D  1C03               	skipc
  8291  0D1E  2D20               	goto	u3391
  8292  0D1F  2D21               	goto	u3390
  8293  0D20                     u3391:
  8294  0D20  2D2F               	goto	l2522
  8295  0D21                     u3390:
  8296  0D21                     l2520:
  8297  0D21  30FF               	movlw	255
  8298  0D22  1683               	bsf	3,5	;RP0=1, select bank1
  8299  0D23  1303               	bcf	3,6	;RP1=0, select bank1
  8300  0D24  00B5               	movwf	___fldiv@new_exp^(0+128)
  8301  0D25  3000               	movlw	0
  8302  0D26  00B6               	movwf	(___fldiv@new_exp^(0+128)+1)
  8303  0D27  3000               	movlw	0
  8304  0D28  00AF               	movwf	(___fldiv@b+3)^(0+128)
  8305  0D29  3000               	movlw	0
  8306  0D2A  00AE               	movwf	(___fldiv@b+2)^(0+128)
  8307  0D2B  3000               	movlw	0
  8308  0D2C  00AD               	movwf	(___fldiv@b+1)^(0+128)
  8309  0D2D  3000               	movlw	0
  8310  0D2E  00AC               	movwf	___fldiv@b^(0+128)
  8311  0D2F                     l2522:
  8312  0D2F  1683               	bsf	3,5	;RP0=1, select bank1
  8313  0D30  1303               	bcf	3,6	;RP1=0, select bank1
  8314  0D31  0836               	movf	(___fldiv@new_exp+1)^(0+128),w
  8315  0D32  3A80               	xorlw	128
  8316  0D33  00FF               	movwf	btemp+1
  8317  0D34  3080               	movlw	128
  8318  0D35  027F               	subwf	btemp+1,w
  8319  0D36  1D03               	skipz
  8320  0D37  2D3A               	goto	u3405
  8321  0D38  3001               	movlw	1
  8322  0D39  0235               	subwf	___fldiv@new_exp^(0+128),w
  8323  0D3A                     u3405:
  8324  0D3A  1803               	skipnc
  8325  0D3B  2D3D               	goto	u3401
  8326  0D3C  2D3E               	goto	u3400
  8327  0D3D                     u3401:
  8328  0D3D  2D4B               	goto	l717
  8329  0D3E                     u3400:
  8330  0D3E                     l2524:
  8331  0D3E  1683               	bsf	3,5	;RP0=1, select bank1
  8332  0D3F  1303               	bcf	3,6	;RP1=0, select bank1
  8333  0D40  01B5               	clrf	___fldiv@new_exp^(0+128)
  8334  0D41  01B6               	clrf	(___fldiv@new_exp+1)^(0+128)
  8335  0D42                     l2526:
  8336  0D42  3000               	movlw	0
  8337  0D43  00AF               	movwf	(___fldiv@b+3)^(0+128)
  8338  0D44  3000               	movlw	0
  8339  0D45  00AE               	movwf	(___fldiv@b+2)^(0+128)
  8340  0D46  3000               	movlw	0
  8341  0D47  00AD               	movwf	(___fldiv@b+1)^(0+128)
  8342  0D48  3000               	movlw	0
  8343  0D49  00AC               	movwf	___fldiv@b^(0+128)
  8344  0D4A                     l2528:
  8345  0D4A  01B4               	clrf	___fldiv@sign^(0+128)
  8346  0D4B                     l717:
  8347  0D4B  1683               	bsf	3,5	;RP0=1, select bank1
  8348  0D4C  1303               	bcf	3,6	;RP1=0, select bank1
  8349  0D4D  0835               	movf	___fldiv@new_exp^(0+128),w
  8350  0D4E  1283               	bcf	3,5	;RP0=0, select bank0
  8351  0D4F  1303               	bcf	3,6	;RP1=0, select bank0
  8352  0D50  00EA               	movwf	??___fldiv
  8353  0D51  086A               	movf	??___fldiv,w
  8354  0D52  1683               	bsf	3,5	;RP0=1, select bank1
  8355  0D53  1303               	bcf	3,6	;RP1=0, select bank1
  8356  0D54  00BB               	movwf	___fldiv@bexp^(0+128)
  8357  0D55                     l2530:
  8358  0D55  1C3B               	btfss	___fldiv@bexp^(0+128),0
  8359  0D56  2D58               	goto	u3411
  8360  0D57  2D59               	goto	u3410
  8361  0D58                     u3411:
  8362  0D58  2D5B               	goto	l2534
  8363  0D59                     u3410:
  8364  0D59                     l2532:
  8365  0D59  17AE               	bsf	(___fldiv@b^(0+128)+2),7
  8366  0D5A  2D63               	goto	l719
  8367  0D5B                     l2534:
  8368  0D5B  307F               	movlw	127
  8369  0D5C  1283               	bcf	3,5	;RP0=0, select bank0
  8370  0D5D  1303               	bcf	3,6	;RP1=0, select bank0
  8371  0D5E  00EA               	movwf	??___fldiv
  8372  0D5F  086A               	movf	??___fldiv,w
  8373  0D60  1683               	bsf	3,5	;RP0=1, select bank1
  8374  0D61  1303               	bcf	3,6	;RP1=0, select bank1
  8375  0D62  05AE               	andwf	(___fldiv@b^(0+128)+2),f
  8376  0D63                     l719:
  8377  0D63  083B               	movf	___fldiv@bexp^(0+128),w
  8378  0D64  1283               	bcf	3,5	;RP0=0, select bank0
  8379  0D65  1303               	bcf	3,6	;RP1=0, select bank0
  8380  0D66  00EA               	movwf	??___fldiv
  8381  0D67  1003               	clrc
  8382  0D68  0C6A               	rrf	??___fldiv,w
  8383  0D69  00EB               	movwf	??___fldiv+1
  8384  0D6A  086B               	movf	??___fldiv+1,w
  8385  0D6B  1683               	bsf	3,5	;RP0=1, select bank1
  8386  0D6C  1303               	bcf	3,6	;RP1=0, select bank1
  8387  0D6D  00AF               	movwf	(___fldiv@b^(0+128)+3)
  8388  0D6E  0834               	movf	___fldiv@sign^(0+128),w
  8389  0D6F  1283               	bcf	3,5	;RP0=0, select bank0
  8390  0D70  1303               	bcf	3,6	;RP1=0, select bank0
  8391  0D71  00EA               	movwf	??___fldiv
  8392  0D72  086A               	movf	??___fldiv,w
  8393  0D73  1683               	bsf	3,5	;RP0=1, select bank1
  8394  0D74  1303               	bcf	3,6	;RP1=0, select bank1
  8395  0D75  04AF               	iorwf	(___fldiv@b^(0+128)+3),f
  8396  0D76  2B9D               	goto	l2442
  8397  0D77                     l697:
  8398  0D77  0008               	return
  8399  0D78                     __end_of___fldiv:
  8400                           
  8401                           	psect	text27
  8402  137D                     __ptext27:	
  8403 ;; *************** function _PWM_Init *****************
  8404 ;; Defined at:
  8405 ;;		line 12 in file "PWM.c"
  8406 ;; Parameters:    Size  Location     Type
  8407 ;;  freq            4    6[BANK0 ] long 
  8408 ;; Auto vars:     Size  Location     Type
  8409 ;;		None
  8410 ;; Return value:  Size  Location     Type
  8411 ;;                  1    wreg      void 
  8412 ;; Registers used:
  8413 ;;		wreg, status,2, status,0, pclath, cstack
  8414 ;; Tracked objects:
  8415 ;;		On entry : 0/0
  8416 ;;		On exit  : 0/0
  8417 ;;		Unchanged: 0/0
  8418 ;; Data sizes:     COMMON   BANK0   BANK1   BANK3   BANK2
  8419 ;;      Params:         0       4       0       0       0
  8420 ;;      Locals:         0       0       0       0       0
  8421 ;;      Temps:          4       0       0       0       0
  8422 ;;      Totals:         4       4       0       0       0
  8423 ;;Total ram usage:        8 bytes
  8424 ;; Hardware stack levels used: 1
  8425 ;; Hardware stack levels required when called: 1
  8426 ;; This function calls:
  8427 ;;		___aldiv
  8428 ;; This function is called by:
  8429 ;;		_PWM1_Duty
  8430 ;;		_PWM2_Duty
  8431 ;; This function uses a non-reentrant model
  8432 ;;
  8433                           
  8434                           
  8435                           ;psect for function _PWM_Init
  8436  137D                     _PWM_Init:
  8437  137D                     l2154:	
  8438                           ;incstack = 0
  8439                           ; Regs used in _PWM_Init: [wreg+status,2+status,0+pclath+cstack]
  8440                           
  8441                           
  8442                           ;PWM.c: 12: void PWM_Init(long freq);PWM.c: 13: {;PWM.c: 14:   PR2 = (4000000/(freq*4*4)
      +                          ) - 1;
  8443  137D  1283               	bcf	3,5	;RP0=0, select bank0
  8444  137E  1303               	bcf	3,6	;RP1=0, select bank0
  8445  137F  0826               	movf	PWM_Init@freq,w
  8446  1380  00F9               	movwf	??_PWM_Init
  8447  1381  0827               	movf	PWM_Init@freq+1,w
  8448  1382  00FA               	movwf	??_PWM_Init+1
  8449  1383  0828               	movf	PWM_Init@freq+2,w
  8450  1384  00FB               	movwf	??_PWM_Init+2
  8451  1385  0829               	movf	PWM_Init@freq+3,w
  8452  1386  00FC               	movwf	??_PWM_Init+3
  8453  1387  3002               	movlw	2
  8454  1388                     u2525:
  8455  1388  1003               	clrc
  8456  1389  0DF9               	rlf	??_PWM_Init,f
  8457  138A  0DFA               	rlf	??_PWM_Init+1,f
  8458  138B  0DFB               	rlf	??_PWM_Init+2,f
  8459  138C  0DFC               	rlf	??_PWM_Init+3,f
  8460  138D                     u2520:
  8461  138D  3EFF               	addlw	-1
  8462  138E  1D03               	skipz
  8463  138F  2B88               	goto	u2525
  8464  1390  3002               	movlw	2
  8465  1391                     u2535:
  8466  1391  1003               	clrc
  8467  1392  0DF9               	rlf	??_PWM_Init,f
  8468  1393  0DFA               	rlf	??_PWM_Init+1,f
  8469  1394  0DFB               	rlf	??_PWM_Init+2,f
  8470  1395  0DFC               	rlf	??_PWM_Init+3,f
  8471  1396                     u2530:
  8472  1396  3EFF               	addlw	-1
  8473  1397  1D03               	skipz
  8474  1398  2B91               	goto	u2535
  8475  1399  087C               	movf	??_PWM_Init+3,w
  8476  139A  00F3               	movwf	___aldiv@divisor+3
  8477  139B  087B               	movf	??_PWM_Init+2,w
  8478  139C  00F2               	movwf	___aldiv@divisor+2
  8479  139D  087A               	movf	??_PWM_Init+1,w
  8480  139E  00F1               	movwf	___aldiv@divisor+1
  8481  139F  0879               	movf	??_PWM_Init,w
  8482  13A0  00F0               	movwf	___aldiv@divisor
  8483  13A1  3000               	movlw	0
  8484  13A2  00F7               	movwf	___aldiv@dividend+3
  8485  13A3  303D               	movlw	61
  8486  13A4  00F6               	movwf	___aldiv@dividend+2
  8487  13A5  3009               	movlw	9
  8488  13A6  00F5               	movwf	___aldiv@dividend+1
  8489  13A7  3000               	movlw	0
  8490  13A8  00F4               	movwf	___aldiv@dividend
  8491  13A9  120A  118A  2006  160A  118A  	fcall	___aldiv
  8492  13AE  0870               	movf	?___aldiv,w
  8493  13AF  3EFF               	addlw	255
  8494  13B0  1683               	bsf	3,5	;RP0=1, select bank1
  8495  13B1  1303               	bcf	3,6	;RP1=0, select bank1
  8496  13B2  0092               	movwf	18	;volatile
  8497  13B3                     l168:
  8498  13B3  0008               	return
  8499  13B4                     __end_of_PWM_Init:
  8500                           
  8501                           	psect	text28
  8502  0006                     __ptext28:	
  8503 ;; *************** function ___aldiv *****************
  8504 ;; Defined at:
  8505 ;;		line 5 in file "C:\Program Files\Microchip\xc8\v2.32\pic\sources\c90\common\aldiv.c"
  8506 ;; Parameters:    Size  Location     Type
  8507 ;;  divisor         4    0[COMMON] long 
  8508 ;;  dividend        4    4[COMMON] long 
  8509 ;; Auto vars:     Size  Location     Type
  8510 ;;  quotient        4    2[BANK0 ] long 
  8511 ;;  sign            1    1[BANK0 ] unsigned char 
  8512 ;;  counter         1    0[BANK0 ] unsigned char 
  8513 ;; Return value:  Size  Location     Type
  8514 ;;                  4    0[COMMON] long 
  8515 ;; Registers used:
  8516 ;;		wreg, status,2, status,0
  8517 ;; Tracked objects:
  8518 ;;		On entry : 0/0
  8519 ;;		On exit  : 0/0
  8520 ;;		Unchanged: 0/0
  8521 ;; Data sizes:     COMMON   BANK0   BANK1   BANK3   BANK2
  8522 ;;      Params:         8       0       0       0       0
  8523 ;;      Locals:         0       6       0       0       0
  8524 ;;      Temps:          1       0       0       0       0
  8525 ;;      Totals:         9       6       0       0       0
  8526 ;;Total ram usage:       15 bytes
  8527 ;; Hardware stack levels used: 1
  8528 ;; This function calls:
  8529 ;;		Nothing
  8530 ;; This function is called by:
  8531 ;;		_PWM_Init
  8532 ;;		_PWM1_Duty
  8533 ;;		_PWM2_Duty
  8534 ;; This function uses a non-reentrant model
  8535 ;;
  8536                           
  8537                           
  8538                           ;psect for function ___aldiv
  8539  0006                     ___aldiv:
  8540  0006                     l2082:	
  8541                           ;incstack = 0
  8542                           ; Regs used in ___aldiv: [wreg+status,2+status,0]
  8543                           
  8544  0006  1283               	bcf	3,5	;RP0=0, select bank0
  8545  0007  1303               	bcf	3,6	;RP1=0, select bank0
  8546  0008  01A1               	clrf	___aldiv@sign
  8547  0009                     l2084:
  8548  0009  1FF3               	btfss	___aldiv@divisor+3,7
  8549  000A  280C               	goto	u2391
  8550  000B  280D               	goto	u2390
  8551  000C                     u2391:
  8552  000C  281A               	goto	l411
  8553  000D                     u2390:
  8554  000D                     l2086:
  8555  000D  09F0               	comf	___aldiv@divisor,f
  8556  000E  09F1               	comf	___aldiv@divisor+1,f
  8557  000F  09F2               	comf	___aldiv@divisor+2,f
  8558  0010  09F3               	comf	___aldiv@divisor+3,f
  8559  0011  0AF0               	incf	___aldiv@divisor,f
  8560  0012  1903               	skipnz
  8561  0013  0AF1               	incf	___aldiv@divisor+1,f
  8562  0014  1903               	skipnz
  8563  0015  0AF2               	incf	___aldiv@divisor+2,f
  8564  0016  1903               	skipnz
  8565  0017  0AF3               	incf	___aldiv@divisor+3,f
  8566  0018  01A1               	clrf	___aldiv@sign
  8567  0019  0AA1               	incf	___aldiv@sign,f
  8568  001A                     l411:
  8569  001A  1FF7               	btfss	___aldiv@dividend+3,7
  8570  001B  281D               	goto	u2401
  8571  001C  281E               	goto	u2400
  8572  001D                     u2401:
  8573  001D  282D               	goto	l2092
  8574  001E                     u2400:
  8575  001E                     l2088:
  8576  001E  09F4               	comf	___aldiv@dividend,f
  8577  001F  09F5               	comf	___aldiv@dividend+1,f
  8578  0020  09F6               	comf	___aldiv@dividend+2,f
  8579  0021  09F7               	comf	___aldiv@dividend+3,f
  8580  0022  0AF4               	incf	___aldiv@dividend,f
  8581  0023  1903               	skipnz
  8582  0024  0AF5               	incf	___aldiv@dividend+1,f
  8583  0025  1903               	skipnz
  8584  0026  0AF6               	incf	___aldiv@dividend+2,f
  8585  0027  1903               	skipnz
  8586  0028  0AF7               	incf	___aldiv@dividend+3,f
  8587  0029                     l2090:
  8588  0029  3001               	movlw	1
  8589  002A  00F8               	movwf	??___aldiv
  8590  002B  0878               	movf	??___aldiv,w
  8591  002C  06A1               	xorwf	___aldiv@sign,f
  8592  002D                     l2092:
  8593  002D  3000               	movlw	0
  8594  002E  00A5               	movwf	___aldiv@quotient+3
  8595  002F  3000               	movlw	0
  8596  0030  00A4               	movwf	___aldiv@quotient+2
  8597  0031  3000               	movlw	0
  8598  0032  00A3               	movwf	___aldiv@quotient+1
  8599  0033  3000               	movlw	0
  8600  0034  00A2               	movwf	___aldiv@quotient
  8601  0035                     l2094:
  8602  0035  0873               	movf	___aldiv@divisor+3,w
  8603  0036  0472               	iorwf	___aldiv@divisor+2,w
  8604  0037  0471               	iorwf	___aldiv@divisor+1,w
  8605  0038  0470               	iorwf	___aldiv@divisor,w
  8606  0039  1903               	skipnz
  8607  003A  283C               	goto	u2411
  8608  003B  283D               	goto	u2410
  8609  003C                     u2411:
  8610  003C  288A               	goto	l2114
  8611  003D                     u2410:
  8612  003D                     l2096:
  8613  003D  01A0               	clrf	___aldiv@counter
  8614  003E  0AA0               	incf	___aldiv@counter,f
  8615  003F  284D               	goto	l2100
  8616  0040                     l2098:
  8617  0040  3001               	movlw	1
  8618  0041  00F8               	movwf	??___aldiv
  8619  0042                     u2425:
  8620  0042  1003               	clrc
  8621  0043  0DF0               	rlf	___aldiv@divisor,f
  8622  0044  0DF1               	rlf	___aldiv@divisor+1,f
  8623  0045  0DF2               	rlf	___aldiv@divisor+2,f
  8624  0046  0DF3               	rlf	___aldiv@divisor+3,f
  8625  0047  0BF8               	decfsz	??___aldiv,f
  8626  0048  2842               	goto	u2425
  8627  0049  3001               	movlw	1
  8628  004A  00F8               	movwf	??___aldiv
  8629  004B  0878               	movf	??___aldiv,w
  8630  004C  07A0               	addwf	___aldiv@counter,f
  8631  004D                     l2100:
  8632  004D  1FF3               	btfss	___aldiv@divisor+3,7
  8633  004E  2850               	goto	u2431
  8634  004F  2851               	goto	u2430
  8635  0050                     u2431:
  8636  0050  2840               	goto	l2098
  8637  0051                     u2430:
  8638  0051                     l2102:
  8639  0051  3001               	movlw	1
  8640  0052  00F8               	movwf	??___aldiv
  8641  0053                     u2445:
  8642  0053  1003               	clrc
  8643  0054  0DA2               	rlf	___aldiv@quotient,f
  8644  0055  0DA3               	rlf	___aldiv@quotient+1,f
  8645  0056  0DA4               	rlf	___aldiv@quotient+2,f
  8646  0057  0DA5               	rlf	___aldiv@quotient+3,f
  8647  0058  0BF8               	decfsz	??___aldiv,f
  8648  0059  2853               	goto	u2445
  8649  005A                     l2104:
  8650  005A  0873               	movf	___aldiv@divisor+3,w
  8651  005B  0277               	subwf	___aldiv@dividend+3,w
  8652  005C  1D03               	skipz
  8653  005D  2868               	goto	u2455
  8654  005E  0872               	movf	___aldiv@divisor+2,w
  8655  005F  0276               	subwf	___aldiv@dividend+2,w
  8656  0060  1D03               	skipz
  8657  0061  2868               	goto	u2455
  8658  0062  0871               	movf	___aldiv@divisor+1,w
  8659  0063  0275               	subwf	___aldiv@dividend+1,w
  8660  0064  1D03               	skipz
  8661  0065  2868               	goto	u2455
  8662  0066  0870               	movf	___aldiv@divisor,w
  8663  0067  0274               	subwf	___aldiv@dividend,w
  8664  0068                     u2455:
  8665  0068  1C03               	skipc
  8666  0069  286B               	goto	u2451
  8667  006A  286C               	goto	u2450
  8668  006B                     u2451:
  8669  006B  287B               	goto	l2110
  8670  006C                     u2450:
  8671  006C                     l2106:
  8672  006C  0870               	movf	___aldiv@divisor,w
  8673  006D  02F4               	subwf	___aldiv@dividend,f
  8674  006E  0871               	movf	___aldiv@divisor+1,w
  8675  006F  1C03               	skipc
  8676  0070  0F71               	incfsz	___aldiv@divisor+1,w
  8677  0071  02F5               	subwf	___aldiv@dividend+1,f
  8678  0072  0872               	movf	___aldiv@divisor+2,w
  8679  0073  1C03               	skipc
  8680  0074  0F72               	incfsz	___aldiv@divisor+2,w
  8681  0075  02F6               	subwf	___aldiv@dividend+2,f
  8682  0076  0873               	movf	___aldiv@divisor+3,w
  8683  0077  1C03               	skipc
  8684  0078  0F73               	incfsz	___aldiv@divisor+3,w
  8685  0079  02F7               	subwf	___aldiv@dividend+3,f
  8686  007A                     l2108:
  8687  007A  1422               	bsf	___aldiv@quotient,0
  8688  007B                     l2110:
  8689  007B  3001               	movlw	1
  8690  007C                     u2465:
  8691  007C  1003               	clrc
  8692  007D  0CF3               	rrf	___aldiv@divisor+3,f
  8693  007E  0CF2               	rrf	___aldiv@divisor+2,f
  8694  007F  0CF1               	rrf	___aldiv@divisor+1,f
  8695  0080  0CF0               	rrf	___aldiv@divisor,f
  8696  0081  3EFF               	addlw	-1
  8697  0082  1D03               	skipz
  8698  0083  287C               	goto	u2465
  8699  0084                     l2112:
  8700  0084  3001               	movlw	1
  8701  0085  02A0               	subwf	___aldiv@counter,f
  8702  0086  1D03               	btfss	3,2
  8703  0087  2889               	goto	u2471
  8704  0088  288A               	goto	u2470
  8705  0089                     u2471:
  8706  0089  2851               	goto	l2102
  8707  008A                     u2470:
  8708  008A                     l2114:
  8709  008A  0821               	movf	___aldiv@sign,w
  8710  008B  1903               	btfsc	3,2
  8711  008C  288E               	goto	u2481
  8712  008D  288F               	goto	u2480
  8713  008E                     u2481:
  8714  008E  289A               	goto	l2118
  8715  008F                     u2480:
  8716  008F                     l2116:
  8717  008F  09A2               	comf	___aldiv@quotient,f
  8718  0090  09A3               	comf	___aldiv@quotient+1,f
  8719  0091  09A4               	comf	___aldiv@quotient+2,f
  8720  0092  09A5               	comf	___aldiv@quotient+3,f
  8721  0093  0AA2               	incf	___aldiv@quotient,f
  8722  0094  1903               	skipnz
  8723  0095  0AA3               	incf	___aldiv@quotient+1,f
  8724  0096  1903               	skipnz
  8725  0097  0AA4               	incf	___aldiv@quotient+2,f
  8726  0098  1903               	skipnz
  8727  0099  0AA5               	incf	___aldiv@quotient+3,f
  8728  009A                     l2118:
  8729  009A  0825               	movf	___aldiv@quotient+3,w
  8730  009B  00F3               	movwf	?___aldiv+3
  8731  009C  0824               	movf	___aldiv@quotient+2,w
  8732  009D  00F2               	movwf	?___aldiv+2
  8733  009E  0823               	movf	___aldiv@quotient+1,w
  8734  009F  00F1               	movwf	?___aldiv+1
  8735  00A0  0822               	movf	___aldiv@quotient,w
  8736  00A1  00F0               	movwf	?___aldiv
  8737  00A2                     l421:
  8738  00A2  0008               	return
  8739  00A3                     __end_of___aldiv:
  8740                           
  8741                           	psect	text29
  8742  12DE                     __ptext29:	
  8743 ;; *************** function _ADC_Read *****************
  8744 ;; Defined at:
  8745 ;;		line 17 in file "adc.c"
  8746 ;; Parameters:    Size  Location     Type
  8747 ;;  channel         1    wreg     unsigned char 
  8748 ;; Auto vars:     Size  Location     Type
  8749 ;;  channel         1    4[COMMON] unsigned char 
  8750 ;; Return value:  Size  Location     Type
  8751 ;;                  2    0[COMMON] unsigned int 
  8752 ;; Registers used:
  8753 ;;		wreg, status,2, status,0
  8754 ;; Tracked objects:
  8755 ;;		On entry : 0/0
  8756 ;;		On exit  : 0/0
  8757 ;;		Unchanged: 0/0
  8758 ;; Data sizes:     COMMON   BANK0   BANK1   BANK3   BANK2
  8759 ;;      Params:         2       0       0       0       0
  8760 ;;      Locals:         1       0       0       0       0
  8761 ;;      Temps:          2       0       0       0       0
  8762 ;;      Totals:         5       0       0       0       0
  8763 ;;Total ram usage:        5 bytes
  8764 ;; Hardware stack levels used: 1
  8765 ;; This function calls:
  8766 ;;		Nothing
  8767 ;; This function is called by:
  8768 ;;		_realizarCalculo
  8769 ;;		_controlarCooler
  8770 ;; This function uses a non-reentrant model
  8771 ;;
  8772                           
  8773                           
  8774                           ;psect for function _ADC_Read
  8775  12DE                     _ADC_Read:
  8776                           
  8777                           ;incstack = 0
  8778                           ; Regs used in _ADC_Read: [wreg+status,2+status,0]
  8779                           ;ADC_Read@channel stored from wreg
  8780  12DE  00F4               	movwf	ADC_Read@channel
  8781  12DF                     l2758:
  8782                           
  8783                           ;adc.c: 17: unsigned int ADC_Read(unsigned char channel);adc.c: 18: {;adc.c: 19:    if(c
      +                          hannel > 7)
  8784  12DF  3008               	movlw	8
  8785  12E0  0274               	subwf	ADC_Read@channel,w
  8786  12E1  1C03               	skipc
  8787  12E2  2AE4               	goto	u3981
  8788  12E3  2AE5               	goto	u3980
  8789  12E4                     u3981:
  8790  12E4  2AE8               	goto	l2764
  8791  12E5                     u3980:
  8792  12E5                     l2760:
  8793                           
  8794                           ;adc.c: 20:      return 0;
  8795  12E5  01F0               	clrf	?_ADC_Read
  8796  12E6  01F1               	clrf	?_ADC_Read+1
  8797  12E7  2B11               	goto	l207
  8798  12E8                     l2764:
  8799                           
  8800                           ;adc.c: 22:    ADCON0 &= 0xC5;
  8801  12E8  30C5               	movlw	197
  8802  12E9  00F2               	movwf	??_ADC_Read
  8803  12EA  0872               	movf	??_ADC_Read,w
  8804  12EB  1283               	bcf	3,5	;RP0=0, select bank0
  8805  12EC  1303               	bcf	3,6	;RP1=0, select bank0
  8806  12ED  059F               	andwf	31,f	;volatile
  8807                           
  8808                           ;adc.c: 23:    ADCON0 |= channel<<3;
  8809  12EE  0874               	movf	ADC_Read@channel,w	;volatile
  8810  12EF  00F2               	movwf	??_ADC_Read
  8811  12F0  3002               	movlw	2
  8812  12F1                     u3995:
  8813  12F1  1003               	clrc
  8814  12F2  0DF2               	rlf	??_ADC_Read,f
  8815  12F3  3EFF               	addlw	-1
  8816  12F4  1D03               	skipz
  8817  12F5  2AF1               	goto	u3995
  8818  12F6  1003               	clrc
  8819  12F7  0D72               	rlf	??_ADC_Read,w
  8820  12F8  00F3               	movwf	??_ADC_Read+1
  8821  12F9  0873               	movf	??_ADC_Read+1,w
  8822  12FA  049F               	iorwf	31,f	;volatile
  8823  12FB                     l2766:
  8824                           
  8825                           ;adc.c: 24:    _delay((unsigned long)((2)*(4000000/4000.0)));
  8826  12FB  3003               	movlw	3
  8827  12FC  00F3               	movwf	??_ADC_Read+1
  8828  12FD  3097               	movlw	151
  8829  12FE  00F2               	movwf	??_ADC_Read
  8830  12FF                     u4357:
  8831  12FF  0BF2               	decfsz	??_ADC_Read,f
  8832  1300  2AFF               	goto	u4357
  8833  1301  0BF3               	decfsz	??_ADC_Read+1,f
  8834  1302  2AFF               	goto	u4357
  8835  1303  2B04               	nop2
  8836  1304                     l2768:
  8837                           
  8838                           ;adc.c: 25:    GO_nDONE = 1;
  8839  1304  1283               	bcf	3,5	;RP0=0, select bank0
  8840  1305  1303               	bcf	3,6	;RP1=0, select bank0
  8841  1306  151F               	bsf	31,2	;volatile
  8842  1307                     l208:	
  8843                           ;adc.c: 26:    while(GO_nDONE);
  8844                           
  8845  1307  191F               	btfsc	31,2	;volatile
  8846  1308  2B0A               	goto	u4001
  8847  1309  2B0B               	goto	u4000
  8848  130A                     u4001:
  8849  130A  2B07               	goto	l208
  8850  130B                     u4000:
  8851  130B                     l2770:
  8852                           
  8853                           ;adc.c: 27:    return ((unsigned int)(ADRESH<<8)+ADRESL);
  8854  130B  081E               	movf	30,w	;volatile
  8855  130C  00F1               	movwf	?_ADC_Read+1
  8856  130D  1683               	bsf	3,5	;RP0=1, select bank1
  8857  130E  1303               	bcf	3,6	;RP1=0, select bank1
  8858  130F  081E               	movf	30,w	;volatile
  8859  1310  00F0               	movwf	?_ADC_Read
  8860  1311                     l207:
  8861  1311  0008               	return
  8862  1312                     __end_of_ADC_Read:
  8863                           
  8864                           	psect	text30
  8865  11F0                     __ptext30:	
  8866 ;; *************** function _PWM2_Start *****************
  8867 ;; Defined at:
  8868 ;;		line 59 in file "PWM.c"
  8869 ;; Parameters:    Size  Location     Type
  8870 ;;		None
  8871 ;; Auto vars:     Size  Location     Type
  8872 ;;		None
  8873 ;; Return value:  Size  Location     Type
  8874 ;;                  1    wreg      void 
  8875 ;; Registers used:
  8876 ;;		None
  8877 ;; Tracked objects:
  8878 ;;		On entry : 0/0
  8879 ;;		On exit  : 0/0
  8880 ;;		Unchanged: 0/0
  8881 ;; Data sizes:     COMMON   BANK0   BANK1   BANK3   BANK2
  8882 ;;      Params:         0       0       0       0       0
  8883 ;;      Locals:         0       0       0       0       0
  8884 ;;      Temps:          0       0       0       0       0
  8885 ;;      Totals:         0       0       0       0       0
  8886 ;;Total ram usage:        0 bytes
  8887 ;; Hardware stack levels used: 1
  8888 ;; This function calls:
  8889 ;;		Nothing
  8890 ;; This function is called by:
  8891 ;;		_main
  8892 ;; This function uses a non-reentrant model
  8893 ;;
  8894                           
  8895                           
  8896                           ;psect for function _PWM2_Start
  8897  11F0                     _PWM2_Start:
  8898  11F0                     l1836:	
  8899                           ;incstack = 0
  8900                           ; Regs used in _PWM2_Start: []
  8901                           
  8902                           
  8903                           ;PWM.c: 61:   CCP2M3 = 1;
  8904  11F0  1283               	bcf	3,5	;RP0=0, select bank0
  8905  11F1  1303               	bcf	3,6	;RP1=0, select bank0
  8906  11F2  159D               	bsf	29,3	;volatile
  8907                           
  8908                           ;PWM.c: 62:   CCP2M2 = 1;
  8909  11F3  151D               	bsf	29,2	;volatile
  8910                           
  8911                           ;PWM.c: 67:     T2CKPS0 = 1;
  8912  11F4  1412               	bsf	18,0	;volatile
  8913                           
  8914                           ;PWM.c: 68:     T2CKPS1 = 0;
  8915  11F5  1092               	bcf	18,1	;volatile
  8916                           
  8917                           ;PWM.c: 73:     TMR2ON = 1;
  8918  11F6  1512               	bsf	18,2	;volatile
  8919                           
  8920                           ;PWM.c: 74:     TRISC1 = 0;
  8921  11F7  1683               	bsf	3,5	;RP0=1, select bank1
  8922  11F8  1303               	bcf	3,6	;RP1=0, select bank1
  8923  11F9  1087               	bcf	7,1	;volatile
  8924  11FA                     l182:
  8925  11FA  0008               	return
  8926  11FB                     __end_of_PWM2_Start:
  8927                           
  8928                           	psect	text31
  8929  11E7                     __ptext31:	
  8930 ;; *************** function _PWM1_Start *****************
  8931 ;; Defined at:
  8932 ;;		line 41 in file "PWM.c"
  8933 ;; Parameters:    Size  Location     Type
  8934 ;;		None
  8935 ;; Auto vars:     Size  Location     Type
  8936 ;;		None
  8937 ;; Return value:  Size  Location     Type
  8938 ;;                  1    wreg      void 
  8939 ;; Registers used:
  8940 ;;		None
  8941 ;; Tracked objects:
  8942 ;;		On entry : 0/0
  8943 ;;		On exit  : 0/0
  8944 ;;		Unchanged: 0/0
  8945 ;; Data sizes:     COMMON   BANK0   BANK1   BANK3   BANK2
  8946 ;;      Params:         0       0       0       0       0
  8947 ;;      Locals:         0       0       0       0       0
  8948 ;;      Temps:          0       0       0       0       0
  8949 ;;      Totals:         0       0       0       0       0
  8950 ;;Total ram usage:        0 bytes
  8951 ;; Hardware stack levels used: 1
  8952 ;; This function calls:
  8953 ;;		Nothing
  8954 ;; This function is called by:
  8955 ;;		_main
  8956 ;; This function uses a non-reentrant model
  8957 ;;
  8958                           
  8959                           
  8960                           ;psect for function _PWM1_Start
  8961  11E7                     _PWM1_Start:
  8962  11E7                     l1834:	
  8963                           ;incstack = 0
  8964                           ; Regs used in _PWM1_Start: []
  8965                           
  8966                           
  8967                           ;PWM.c: 43:   CCP1M3 = 1;
  8968  11E7  1283               	bcf	3,5	;RP0=0, select bank0
  8969  11E8  1303               	bcf	3,6	;RP1=0, select bank0
  8970  11E9  1597               	bsf	23,3	;volatile
  8971                           
  8972                           ;PWM.c: 44:   CCP1M2 = 1;
  8973  11EA  1517               	bsf	23,2	;volatile
  8974                           
  8975                           ;PWM.c: 55:   TMR2ON = 1;
  8976  11EB  1512               	bsf	18,2	;volatile
  8977                           
  8978                           ;PWM.c: 56:   TRISC2 = 0;
  8979  11EC  1683               	bsf	3,5	;RP0=1, select bank1
  8980  11ED  1303               	bcf	3,6	;RP1=0, select bank1
  8981  11EE  1107               	bcf	7,2	;volatile
  8982  11EF                     l179:
  8983  11EF  0008               	return
  8984  11F0                     __end_of_PWM1_Start:
  8985                           
  8986                           	psect	text32
  8987  11DE                     __ptext32:	
  8988 ;; *************** function _ADC_Init *****************
  8989 ;; Defined at:
  8990 ;;		line 11 in file "adc.c"
  8991 ;; Parameters:    Size  Location     Type
  8992 ;;		None
  8993 ;; Auto vars:     Size  Location     Type
  8994 ;;		None
  8995 ;; Return value:  Size  Location     Type
  8996 ;;                  1    wreg      void 
  8997 ;; Registers used:
  8998 ;;		wreg
  8999 ;; Tracked objects:
  9000 ;;		On entry : 0/0
  9001 ;;		On exit  : 0/0
  9002 ;;		Unchanged: 0/0
  9003 ;; Data sizes:     COMMON   BANK0   BANK1   BANK3   BANK2
  9004 ;;      Params:         0       0       0       0       0
  9005 ;;      Locals:         0       0       0       0       0
  9006 ;;      Temps:          0       0       0       0       0
  9007 ;;      Totals:         0       0       0       0       0
  9008 ;;Total ram usage:        0 bytes
  9009 ;; Hardware stack levels used: 1
  9010 ;; This function calls:
  9011 ;;		Nothing
  9012 ;; This function is called by:
  9013 ;;		_main
  9014 ;; This function uses a non-reentrant model
  9015 ;;
  9016                           
  9017                           
  9018                           ;psect for function _ADC_Init
  9019  11DE                     _ADC_Init:
  9020  11DE                     l1832:	
  9021                           ;incstack = 0
  9022                           ; Regs used in _ADC_Init: [wreg]
  9023                           
  9024                           
  9025                           ;adc.c: 13:    ADCON1 = 0x80;
  9026  11DE  3080               	movlw	128
  9027  11DF  1683               	bsf	3,5	;RP0=1, select bank1
  9028  11E0  1303               	bcf	3,6	;RP1=0, select bank1
  9029  11E1  009F               	movwf	31	;volatile
  9030                           
  9031                           ;adc.c: 14:    ADCON0 = 0xC1;
  9032  11E2  30C1               	movlw	193
  9033  11E3  1283               	bcf	3,5	;RP0=0, select bank0
  9034  11E4  1303               	bcf	3,6	;RP1=0, select bank0
  9035  11E5  009F               	movwf	31	;volatile
  9036  11E6                     l203:
  9037  11E6  0008               	return
  9038  11E7                     __end_of_ADC_Init:
  9039  007E                     btemp	set	126	;btemp
  9040  007E                     wtemp0	set	126
  9041                           
  9042                           	psect	config
  9043                           
  9044                           ;Config register CONFIG @ 0x2007
  9045                           ;	Oscillator Selection bits
  9046                           ;	FOSC = HS, HS oscillator
  9047                           ;	Watchdog Timer Enable bit
  9048                           ;	WDTE = OFF, WDT disabled
  9049                           ;	Power-up Timer Enable bit
  9050                           ;	PWRTE = OFF, PWRT disabled
  9051                           ;	Brown-out Reset Enable bit
  9052                           ;	BOREN = OFF, BOR disabled
  9053                           ;	Low-Voltage (Single-Supply) In-Circuit Serial Programming Enable bit
  9054                           ;	LVP = OFF, RB3 is digital I/O, HV on MCLR must be used for programming
  9055                           ;	Data EEPROM Memory Code Protection bit
  9056                           ;	CPD = OFF, Data EEPROM code protection off
  9057                           ;	Flash Program Memory Write Enable bits
  9058                           ;	WRT = OFF, Write protection off; all program memory may be written to by EECON control
  9059                           ;	In-Circuit Debugger Mode bit
  9060                           ;	DEBUG = 0x1, unprogrammed default
  9061                           ;	Flash Program Memory Code Protection bit
  9062                           ;	CP = OFF, Code protection off
  9063  2007                     	org	8199
  9064  2007  3F3A               	dw	16186

Data Sizes:
    Strings     20
    Constant    10
    Data        16
    BSS         104
    Persistent  0
    Stack       0

Auto Spaces:
    Space          Size  Autos    Used
    COMMON           14     14      14
    BANK0            80     79      79
    BANK1            80     57      79
    BANK3            96      0      66
    BANK2            96      0      32

Pointer List with Targets:

    sprintf@f	PTR const unsigned char  size(1) Largest target is 3
		 -> STR_6(CODE[3]), STR_4(CODE[3]), STR_2(CODE[3]), STR_1(CODE[3]), 

    sprintf@sp	PTR unsigned char  size(1) Largest target is 32
		 -> kp_string(BANK2[32]), setPoint_string(BANK3[32]), 

    sprintf@ap	PTR void [1] size(1) Largest target is 2
		 -> ?_sprintf(BANK0[2]), 

    lcd_str@str	PTR const unsigned char  size(2) Largest target is 32
		 -> STR_8(CODE[6]), STR_7(CODE[6]), kp_string(BANK2[32]), STR_5(CODE[3]), 
		 -> STR_3(CODE[2]), setPoint_string(BANK3[32]), 


Critical Paths under _main in COMMON

    _realizarCalculo->___fltol
    ___wmul->_ADC_Read
    _PWM1_Duty->___fltol
    _lcd_init->_lcd_cmd
    _imprimirValoresLcd->___fltol
    _imprimirTemperatura->___lwdiv
    _sprintf->___lwdiv
    ___lwdiv->___lwmod
    _lcd_str->_lcd_dat
    _lcd_dat->_lcd_wr
    _lcd_cmd->_lcd_wr
    _controleMaximoMinimo->___fltol
    _PWM2_Duty->___fltol
    ___xxtofl->___fltol
    ___fltol->__Umul8_16
    ___fltol->___aldiv
    ___flmul->___fltol
    ___fldiv->___fltol
    _PWM_Init->___aldiv

Critical Paths under _main in BANK0

    _realizarCalculo->___fldiv
    ___flsub->___fladd
    ___fladd->___flmul
    _PWM1_Duty->___fldiv
    _iniciarLcd->_imprimirValoresLcd
    _imprimirValoresLcd->___fleq
    _imprimirTemperatura->_sprintf
    ___fleq->___xxtofl
    _controleMaximoMinimo->___fltol
    _PWM2_Duty->___fldiv
    ___xxtofl->_controleMaximoMinimo
    ___fltol->___aldiv
    ___flmul->___xxtofl
    ___fldiv->___fladd
    _PWM_Init->___aldiv

Critical Paths under _main in BANK1

    _main->_realizarCalculo
    _realizarCalculo->_PWM1_Duty
    _PWM1_Duty->___fldiv
    _controlarCooler->_PWM2_Duty
    _PWM2_Duty->___fldiv
    ___fldiv->___flsub

Critical Paths under _main in BANK3

    None.

Critical Paths under _main in BANK2

    None.

Call Graph Tables:

 ---------------------------------------------------------------------------------
 (Depth) Function   	        Calls       Base Space   Used Autos Params    Refs
 ---------------------------------------------------------------------------------
 (0) _main                                                 0     0      0   52114
                           _ADC_Init
                         _PWM1_Start
                         _PWM2_Start
                    _controlarCooler
                 _imprimirValoresLcd
                         _iniciarLcd
                    _realizarCalculo
 ---------------------------------------------------------------------------------
 (1) _realizarCalculo                                     22    22      0   22510
                                             35 BANK1     22    22      0
                           _ADC_Read
                          _PWM1_Duty
                            ___awdiv
                            ___fladd
                            ___fldiv
                            ___flmul
                            ___flsub
                            ___fltol
                             ___wmul
                           ___xxtofl
               _controleMaximoMinimo
 ---------------------------------------------------------------------------------
 (2) ___wmul                                               6     2      4     244
                                              5 COMMON     6     2      4
                           _ADC_Read (ARG)
 ---------------------------------------------------------------------------------
 (2) ___flsub                                              8     0      8    3549
                                              0 BANK1      8     0      8
                            ___awdiv (ARG)
                            ___fladd
                            ___flmul (ARG)
                           ___xxtofl (ARG)
 ---------------------------------------------------------------------------------
 (3) ___fladd                                             20    12      8    3048
                                             54 BANK0     20    12      8
                            ___flmul (ARG)
 ---------------------------------------------------------------------------------
 (2) ___awdiv                                              9     5      4     452
                                              0 COMMON     9     5      4
 ---------------------------------------------------------------------------------
 (2) _PWM1_Duty                                            6     2      4    8416
                                             29 BANK1      6     2      4
                           _PWM_Init
                            ___aldiv
                            ___fldiv
                            ___flmul
                            ___fltol
                           ___xxtofl
 ---------------------------------------------------------------------------------
 (1) _iniciarLcd                                           0     0      0   10854
                 _imprimirValoresLcd
                            _lcd_cmd
                           _lcd_init
                            _lcd_str
 ---------------------------------------------------------------------------------
 (2) _lcd_init                                             0     0      0      44
                            _lcd_cmd
 ---------------------------------------------------------------------------------
 (2) _imprimirValoresLcd                                   1     1      0   10024
                                             40 BANK0      1     1      0
                             ___fleq
                            ___fltol
                           ___xxtofl
                _imprimirTemperatura
                            _lcd_cmd
                            _lcd_str
                            _sprintf
 ---------------------------------------------------------------------------------
 (3) _imprimirTemperatura                                 11     9      2    5007
                                             15 BANK0     11     9      2
                            ___lwdiv
                            ___lwmod
                            _lcd_cmd
                            _lcd_str
                            _sprintf
 ---------------------------------------------------------------------------------
 (3) _sprintf                                             23    18      5    2450
                                              0 BANK0     15    10      5
                            ___lwdiv
                            ___lwmod
 ---------------------------------------------------------------------------------
 (4) ___lwmod                                              6     2      4     767
                                              0 COMMON     6     2      4
 ---------------------------------------------------------------------------------
 (4) ___lwdiv                                              8     4      4     770
                                              6 COMMON     8     4      4
                            ___lwmod (ARG)
 ---------------------------------------------------------------------------------
 (2) _lcd_str                                              4     2      2     742
                                              2 COMMON     4     2      2
                            _lcd_dat
 ---------------------------------------------------------------------------------
 (3) _lcd_dat                                              1     1      0      44
                                              1 COMMON     1     1      0
                             _lcd_wr
 ---------------------------------------------------------------------------------
 (3) _lcd_cmd                                              1     1      0      44
                                              1 COMMON     1     1      0
                             _lcd_wr
 ---------------------------------------------------------------------------------
 (4) _lcd_wr                                               1     1      0      22
                                              0 COMMON     1     1      0
 ---------------------------------------------------------------------------------
 (3) ___fleq                                              12     4      8     242
                                             28 BANK0     12     4      8
                           ___xxtofl (ARG)
 ---------------------------------------------------------------------------------
 (1) _controlarCooler                                      2     2      0    8726
                                             35 BANK1      2     2      0
                           _ADC_Read
                          _PWM2_Duty
               _controleMaximoMinimo
 ---------------------------------------------------------------------------------
 (2) _controleMaximoMinimo                                 2     0      2     220
                                             12 BANK0      2     0      2
                            ___fltol (ARG)
 ---------------------------------------------------------------------------------
 (2) _PWM2_Duty                                            6     2      4    8416
                                             29 BANK1      6     2      4
                           _PWM_Init
                            ___aldiv
                            ___fldiv
                            ___flmul
                            ___fltol
                           ___xxtofl
 ---------------------------------------------------------------------------------
 (2) ___xxtofl                                            14    10      4     930
                                             14 BANK0     14    10      4
                           _ADC_Read (ARG)
                            ___aldiv (ARG)
                            ___awdiv (ARG)
                            ___fltol (ARG)
                             ___wmul (ARG)
               _controleMaximoMinimo (ARG)
 ---------------------------------------------------------------------------------
 (2) ___fltol                                             11     7      4     609
                                              9 COMMON     5     5      0
                                              6 BANK0      6     2      4
                          __Umul8_16 (ARG)
                            ___aldiv (ARG)
 ---------------------------------------------------------------------------------
 (2) ___flmul                                             26    18      8    3177
                                             28 BANK0     26    18      8
                          __Umul8_16
                            ___aldiv (ARG)
                            ___fltol (ARG)
                           ___xxtofl (ARG)
 ---------------------------------------------------------------------------------
 (3) __Umul8_16                                            9     7      2     799
                                              0 COMMON     9     7      2
 ---------------------------------------------------------------------------------
 (2) ___fldiv                                             26    18      8    1729
                                             74 BANK0      5     5      0
                                              8 BANK1     21    13      8
                            ___fladd (ARG)
                            ___flmul (ARG)
                            ___flsub (ARG)
                            ___fltol (ARG)
                           ___xxtofl (ARG)
 ---------------------------------------------------------------------------------
 (3) _PWM_Init                                             8     4      4     930
                                              9 COMMON     4     4      0
                                              6 BANK0      4     0      4
                            ___aldiv
 ---------------------------------------------------------------------------------
 (3) ___aldiv                                             15     7      8     756
                                              0 COMMON     9     1      8
                                              0 BANK0      6     6      0
 ---------------------------------------------------------------------------------
 (2) _ADC_Read                                             5     3      2      44
                                              0 COMMON     5     3      2
 ---------------------------------------------------------------------------------
 (1) _PWM2_Start                                           0     0      0       0
 ---------------------------------------------------------------------------------
 (1) _PWM1_Start                                           0     0      0       0
 ---------------------------------------------------------------------------------
 (1) _ADC_Init                                             0     0      0       0
 ---------------------------------------------------------------------------------
 Estimated maximum stack depth 4
 ---------------------------------------------------------------------------------

 Call Graph Graphs:

 _main (ROOT)
   _ADC_Init
   _PWM1_Start
   _PWM2_Start
   _controlarCooler
     _ADC_Read
     _PWM2_Duty
       _PWM_Init
         ___aldiv
       ___aldiv
       ___fldiv
         ___fladd (ARG)
           ___flmul (ARG)
             __Umul8_16
             ___aldiv (ARG)
             ___fltol (ARG)
               __Umul8_16 (ARG)
               ___aldiv (ARG)
             ___xxtofl (ARG)
               _ADC_Read (ARG)
               ___aldiv (ARG)
               ___awdiv (ARG)
               ___fltol (ARG)
               ___wmul (ARG)
                 _ADC_Read (ARG)
               _controleMaximoMinimo (ARG)
                 ___fltol (ARG)
         ___flmul (ARG)
         ___flsub (ARG)
           ___awdiv (ARG)
           ___fladd (ARG)
           ___flmul (ARG)
           ___xxtofl (ARG)
         ___fltol (ARG)
         ___xxtofl (ARG)
       ___flmul
       ___fltol
       ___xxtofl
     _controleMaximoMinimo
   _imprimirValoresLcd
     ___fleq
       ___xxtofl (ARG)
     ___fltol
     ___xxtofl
     _imprimirTemperatura
       ___lwdiv
         ___lwmod (ARG)
       ___lwmod
       _lcd_cmd
         _lcd_wr
       _lcd_str
         _lcd_dat
           _lcd_wr
       _sprintf
         ___lwdiv
         ___lwmod
     _lcd_cmd
     _lcd_str
     _sprintf
   _iniciarLcd
     _imprimirValoresLcd
     _lcd_cmd
     _lcd_init
       _lcd_cmd
     _lcd_str
   _realizarCalculo
     _ADC_Read
     _PWM1_Duty
       _PWM_Init
       ___aldiv
       ___fldiv
       ___flmul
       ___fltol
       ___xxtofl
     ___awdiv
     ___fladd
     ___fldiv
     ___flmul
     ___flsub
     ___fltol
     ___wmul
     ___xxtofl
     _controleMaximoMinimo

 Address spaces:
Name               Size   Autos  Total    Cost      Usage
BANK3               60      0      42       9       68.8%
BITBANK3            60      0       0       8        0.0%
SFR3                 0      0       0       4        0.0%
BITSFR3              0      0       0       4        0.0%
BANK2               60      0      20      11       33.3%
BITBANK2            60      0       0      10        0.0%
SFR2                 0      0       0       5        0.0%
BITSFR2              0      0       0       5        0.0%
BANK1               50     39      4F       7       98.8%
BITBANK1            50      0       0       6        0.0%
SFR1                 0      0       0       2        0.0%
BITSFR1              0      0       0       2        0.0%
BANK0               50     4F      4F       5       98.8%
BITBANK0            50      0       0       4        0.0%
SFR0                 0      0       0       1        0.0%
BITSFR0              0      0       0       1        0.0%
COMMON               E      E       E       1      100.0%
BITCOMMON            E      0       0       0        0.0%
CODE                 0      0       0       0        0.0%
DATA                 0      0     10E      12        0.0%
ABS                  0      0     10E       3        0.0%
NULL                 0      0       0       0        0.0%
STACK                0      0       0       2        0.0%
EEDATA             100      0       0       0        0.0%


Microchip Technology PIC Macro Assembler V2.32 build 20210201212658 
Symbol Table                                                                                   Thu Jun 17 22:06:19 2021

   imprimirTemperatura@tempSet 002F                   ___fldiv@aexp 00BC                   ___fldiv@bexp 00BB  
                            pc 0002                   ___fldiv@sign 00B4                             l73 172C  
                 ___awdiv@sign 0076                             _kd 01CA                             _ki 01CE  
                           _kp 00E7                             fsr 0004            ___wmul@multiplicand 0077  
          __Umul8_16@word_mpld 0076                            l122 07C5                            l203 11E6  
                          l115 17F9                            l220 120A                            l116 17FF  
                          l109 1236                            l125 1346                            l207 1311  
                          l223 121A                            l119 142D                            l208 1307  
                          l232 12AD                            l217 11C5                            l226 137C  
                          l411 001A                            l172 0A2C                            l421 00A2  
                          l182 11FA                            l342 0B14                            l168 13B3  
                          l176 0948                            l346 1243                            l179 11EF  
                          l515 1490                            l532 15A4                            l516 14AC  
                          l348 125B                            l517 14C1                            l542 15A4  
                          l711 0CBB                            l618 1471                            l539 158F  
                          l643 0E82                            l628 13ED                            l660 0F4D  
                          l652 0FFF                            l717 0D4B                            l741 036F  
                          l645 0E59                            l670 0F93                            l719 0D63  
                          l735 0403                            l639 0DDB                            l664 0F71  
                          l681 0FF3                            l673 0FD1                            l754 1270  
                          l682 0FFF                            l747 03F7                            l499 1528  
                          l756 1282                            l781 1660                            l685 0864  
                          l695 0B81                            l792 162A                            l697 0D77  
                          l793 1636                            l785 160E                            l779 15C9  
                          _RB0 0030                            _RB1 0031                            _RB2 0032  
                          _RB3 0033                            _PR2 0092                            _PID 0190  
 __end_of_controleMaximoMinimo 1237                            fsr0 0004                            indf 0000  
     __size_of_controlarCooler 0035           ?_imprimirTemperatura 002F            _realizarCalculo$860 00CB  
          _realizarCalculo$861 00CF            _realizarCalculo$862 00D3            _realizarCalculo$863 00D7  
                 _proporcional 019C                   ___flmul@aexp 004E                   ___flmul@bexp 004F  
                 ___flmul@sign 0049                   ___flmul@temp 0054                   ___flmul@prod 0050  
                 ___fltol@exp1 002B                           l2010 1209                           l2002 11FC  
                         l2100 004D                           l2004 11FF                           l2020 0A47  
                         l2012 0A30                           l2110 007B                           l2102 0051  
                         l2006 1205                           l2030 0A71                           l2014 0A35  
                         l2112 0084                           l2104 005A                           l2200 1594  
                         l2008 1208                           l2032 0A75                           l2024 0A48  
                         l2016 0A3B                           l2106 006C                           l2114 008A  
                         l2130 1279                           l2122 125D                           l2202 1599  
                         l2050 0AAC                           l2042 0A80                           l2034 0A79  
                         l2026 0A65                           l2018 0A42                           l2210 0D89  
                         l2116 008F                           l2108 007A                           l2132 127E  
                         l2124 125F                           l2060 0AF1                           l2052 0AB3  
                         l2036 0A7E                           l2028 0A6D                           l2140 16DF  
                         l2300 0E7A                           l2220 0D9D                           l2212 0D8A  
                         l2204 0D78                           l2118 009A                           l2126 1266  
                         l2062 0AF5                           l2054 0AB7                           l2046 0A9C  
                         l3006 0A5A                           l2150 171A                           l2142 16E8  
                         l2310 0EAB                           l2302 0E86                           l2230 0DB3  
                         l2214 0D8F                           l2222 0D9F                           l2206 0D7F  
                         l2400 0B20                           l2128 126A                           l2160 14A4  
                         l2080 129A                           l2056 0ABC                           l2048 0AA6  
                         l2064 0AFE                           l2152 1723                           l2144 16F8  
                         l2136 1661                           l2320 0EC2                           l2312 0EAF  
                         l2304 0E8B                           l2240 0DC8                           l2232 0DB9  
                         l2224 0DA7                           l2216 0D94                           l2208 0D85  
                         l2090 0029                           l2082 0006                           l2154 137D  
                         l2410 0B39                           l2402 0B2A                           l2170 1536  
                         l2162 14BE                           l2074 1283                           l2058 0AEA  
                         l2066 0B10                           l2146 1701                           l2138 16CF  
                         l2330 0F25                           l2322 0EC3                           l2314 0EB3  
                         l2250 0DE5                           l2242 0DD0                           l2234 0DBD  
                         l2226 0DAC                           l2218 0D9C                           l2092 002D  
                         l2084 0009                           l2500 0C90                           l2420 0B55  
                         l2412 0B41                           l2404 0B2E                           l2180 155D  
                         l2164 14C0                           l2156 1472                           l2076 1285  
                         l2148 170A                           l2340 0F5A                           l2332 0F2B  
                         l2324 0ECC                           l2316 0EBC                           l2308 0E94  
                         l2260 0DF9                           l2252 0DE9                           l2244 0DD1  
                         l2236 0DBE                           l2228 0DB2                           l2094 0035  
                         l2086 000D                           l2510 0CC7                           l2502 0C94  
                         l2430 0B6E                           l2422 0B5F                           l2414 0B42  
                         l2406 0B2F                           l2190 156B                           l2182 155F  
                         l2174 153F                           l2158 1488                           l2078 1296  
                         l2350 0F75                           l2334 0F30                           l2318 0EBE  
                         l2326 0ED1                           l2270 0E0D                           l2262 0DFD  
                         l2254 0DED                           l2238 0DC3                           l2246 0DD3  
                         l2096 003D                           l2088 001E                           l2520 0D21  
                         l2512 0CD5                           l2504 0CB6                           l2440 0B95  
                         l2432 0B76                           l2424 0B63                           l2408 0B34  
                         l2416 0B44                           l2600 01D3                           l2184 1563  
                         l2192 157D                           l2176 1554                           l2168 1529  
                         l2352 0F78                           l2344 0F63                           l2328 0EE7  
                         l2336 0F3F                           l2360 0F85                           l2280 0E21  
                         l2272 0E11                           l2264 0E01                           l2256 0DF1  
                         l2248 0DE1                           l2098 0040                           l2530 0D55  
                         l2522 0D2F                           l2514 0CD9                           l2442 0B9D  
                         l2434 0B77                           l2426 0B64                           l2418 0B4C  
                         l2610 0246                           l2602 01E3                           l2178 1555  
                         l2370 0F98                           l2362 0F86                           l2354 0F7A  
                         l2346 0F6C                           l2338 0F55                           l2290 0E66  
                         l2274 0E15                           l2266 0E05                           l2258 0DF5  
                         l2282 0E25                           l2532 0D59                           l2524 0D3E  
                         l2516 0D0E                           l2508 0CC2                           l2460 0BEA  
                         l2452 0BB4                           l2428 0B69                           l2436 0B79  
                         l2620 02F3                           l2612 0263                           l2604 0200  
                         l2540 00A3                           l2700 15F7                           l2380 0FD6  
                         l2372 0F9D                           l2364 0F8A                           l2356 0F7F  
                         l2348 0F70                           l2292 0E68                           l2284 0E26  
                         l2276 0E19                           l2268 0E09                           l2534 0D5B  
                         l2526 0D42                           l2518 0D14                           l2470 0C14  
                         l2462 0BEC                           l2454 0BD2                           l2438 0B89  
                         l2446 0BA6                           l2630 033F                           l2622 031B  
                         l2614 0290                           l2606 0210                           l2550 00BA  
                         l2542 00AA                           l2198 1584                           l2710 162E  
                         l2702 1605                           l2390 0FED                           l2382 0FDB  
                         l2374 0FAB                           l2366 0F90                           l2358 0F81  
                         l2294 0E6C                           l2286 0E3D                           l2278 0E1D  
                         l1832 11DE                           l2528 0D4A                           l2464 0BF1  
                         l2472 0C23                           l2480 0C4E                           l2456 0BDA  
                         l2448 0BAB                           l2640 0354                           l2632 0340  
                         l2624 0324                           l2616 02A0                           l2608 022D  
                         l2560 00D6                           l2552 00BF                           l2544 00B0  
                         l2720 1658                           l2712 1638                           l2704 1615  
                         l2392 0FEF                           l2384 0FE3                           l2376 0FAF  
                         l2296 0E6D                           l2288 0E5D                           l2800 1239  
                         l1834 11E7                           l2490 0C73                           l2482 0C54  
                         l2474 0C37                           l2466 0C0D                           l2458 0BE2  
                         l2650 0379                           l2642 0358                           l2634 0349  
                         l2626 0332                           l2618 02CD                           l2570 00EB  
                         l2562 00DC                           l2554 00C7                           l2546 00B4  
                         l2714 164E                           l2706 1620                           l2730 1230  
                         l2394 0FFA                           l2386 0FE8                           l2378 0FCD  
                         l2298 0E76                           l2802 123D                           l1836 11F0  
                         l2492 0C74                           l2484 0C5C                           l2476 0C38  
                         l2468 0C13                           l2660 03B7                           l2652 0387  
                         l2644 036C                           l2628 033B                           l2636 034F  
                         l2580 0107                           l2572 00F3                           l2564 00E0  
                         l2556 00C9                           l2548 00B5                           l2716 1653  
                         l2708 1624                           l2732 1236                           l2724 121B  
                         l2740 173F                           l2820 14CE                           l2812 14C2  
                         l2396 0FFE                           l2388 0FE9                           l2804 124A  
                         l2900 0791                           l2494 0C83                           l2486 0C5E  
                         l2478 0C46                           l2398 0B15                           l2670 03EB  
                         l2662 03C2                           l2654 038B                           l2638 0353  
                         l2590 014A                           l2574 00F5                           l2566 00E1  
                         l2558 00D1                           l2718 1657                           l2726 1221  
                         l1942 11C1                           l1950 1218                           l2750 17A3  
                         l2742 174E                           l2830 14E3                           l2822 14D2  
                         l2814 14C3                           l2806 1251                           l2902 07B8  
                         l2760 12E5                           l2488 0C6D                           l2496 0C8B  
                         l2672 03EF                           l2664 03D1                           l2656 03A4  
                         l2648 0374                           l2592 0166                           l2584 0110  
                         l2576 00FD                           l2568 00E6                           l2680 15A8  
                         l2728 1223                           l2904 1312                           l1952 1219  
                         l1944 120C                           l1960 1439                           l2752 17C7  
                         l2744 1754                           l2736 172D                           l2840 1506  
                         l2832 14E6                           l2824 14D7                           l2816 14C7  
                         l2808 1257                           l2770 130B                           l2498 0C8F  
                         l2674 03F0                           l2666 03DB                           l2658 03AA  
                         l2594 0192                           l2586 0120                           l2578 0102  
                         l2682 15AD                           l2906 131E                           l1946 120F  
                         l1970 145F                           l1962 1440                           l1954 142E  
                         l2738 1735                           l2746 175B                           l2754 1347  
                         l2850 151F                           l2842 150C                           l2834 14ED  
                         l2826 14DB                           l2818 14CC                           l2764 12E8  
                         l2676 03FB                           l2668 03DD                           l2596 01AE  
                         l2588 012D                           l2692 15DA                           l2684 15B1  
                         l2908 1339                           l1948 1215                           l1972 1460  
                         l1964 1444                           l1956 1430                           l1980 13B4  
                         l2748 179D                           l2756 134C                           l2780 0A0F  
                         l2852 1524                           l2844 150D                           l2836 14F1  
                         l2828 14DD                           l2766 12FB                           l2758 12DF  
                         l2598 01CA                           l2694 15DF                           l2686 15C1  
                         l2790 0883                           l1974 1467                           l1966 1448  
                         l1958 1436                           l1990 13CC                           l1982 13BA  
                         l2870 1417                           l2862 13EE                           l2782 0A12  
                         l2774 0949                           l2846 1514                           l2838 14F5  
                         l2768 1304                           l2696 15EC                           l2688 15D1  
                         l2792 092B                           l1968 1459                           l1976 146D  
                         l1992 13D6                           l1984 13BD                           l2872 141C  
                         l2864 13F9                           l2784 0A1E                           l2776 095C  
                         l2848 151A                           l2856 0815                           l2880 0468  
                         l2698 15F3                           l2794 092E                           l2786 0865  
                         l1994 13DC                           l1986 13C4                           l2874 1422  
                         l2866 1402                           l2778 0967                           l2858 0819  
                         l2890 0622                           l2882 04C3                           l2970 12B6  
                         l2796 093A                           l2788 0878                           l1996 13E3  
                         l1988 13C8                           l2876 1427                           l2868 1411  
                         l2892 066D                           l2884 050E                           l2980 12CB  
                         l2972 12B7                           l2964 12AE                           l1998 13E9  
                         l2798 1237                           l2894 0685                           l2886 0549  
                         l2878 0404                           l2982 12D0                           l2974 12BC  
                         l2966 12B4                           l2896 06D0                           l2888 05AB  
                         l2984 12D5                           l2976 12C1                           l2968 12B5  
                         l2898 0742                           l2978 12C6                           STR_1 1029  
                         STR_2 1029                           STR_3 102C                           STR_4 1029  
                         STR_5 1026                           STR_6 1029                           STR_7 1020  
                         STR_8 101A                           u2200 1448                           u3000 0F85  
                         u2201 1447                           u3001 0F84                           u3010 0F8A  
                         u3011 0F89                           u2220 1459                           u2300 13E9  
                         u3100 0FE8                           u3020 0F90                           u2221 1458  
                         u2301 13E8                           u3101 0FE7                           u3021 0F8F  
                         u2310 0A3B                           u3110 0FED                           u3030 0F97  
                         u2215 1449                           u2311 0A3A                           u3111 0FEC  
                         u3031 0F96                           u4000 130B                           u2400 001E  
                         u3200 0BAB                           u2240 146D                           u2320 0A75  
                         u3120 0FFE                           u3040 0F9D                           u4001 130A  
                         u2401 001D                           u3201 0BAA                           u2241 146C  
                         u2225 1455                           u2321 0A74                           u3121 0FFD  
                         u3041 0F9C                           u2410 003D                           u3210 0BF1  
                         u3130 0B2E                           u2250 13BA                           u2330 0A9B  
                         u4010 0967                           u3050 0FAF                           u2411 003C  
                         u3211 0BF0                           u3131 0B2D                           u2235 1461  
                         u2251 13B9                           u2331 0A9A                           u4011 0966  
                         u3051 0FAE                           u3300 0C73                           u3140 0B34  
                         u2180 1436                           u2340 0AA6                           u4020 0A1B  
                         u3060 0FBE                           u3301 0C72                           u3141 0B33  
                         u2181 1435                           u2341 0AA5                           u4021 0A17  
                         u2430 0051                           u3150 0B39                           u2510 127E  
                         u2270 13CC                           u2350 0AAC                           u3070 0FCD  
                         u2431 0050                           u3151 0B38                           u2511 127D  
                         u2271 13CB                           u2351 0AAB                           u2335 0A97  
                         u3071 0FCC                           u2520 138D                           u3400 0D3E  
                         u3320 0C8F                           u3240 0C13                           u3160 0B63  
                         u2600 156A                           u2280 13D6                           u2360 0AFE  
                         u3080 0FD6                           u4120 1257                           u2425 0042  
                         u3401 0D3D                           u3321 0C8E                           u3241 0C12  
                         u3225 0BF5                           u3161 0B62                           u2505 1271  
                         u2601 1569                           u2281 13D5                           u2265 13BE  
                         u2361 0AFD                           u3081 0FD5                           u3065 0FB9  
                         u4121 1256                           u4105 1244                           u2450 006C  
                         u2530 1396                           u3410 0D59                           u3330 0C94  
                         u3170 0B69                           u4050 0883                           u2370 0B10  
                         u4034 0A1E                           u4210 151A                           u4130 14C7  
                         u3090 0FDB                           u2451 006B                           u3411 0D58  
                         u3331 0C93                           u3315 0C78                           u3235 0C02  
                         u3171 0B68                           u4051 0882                           u2195 143A  
                         u2371 0B0F                           u4211 1519                           u4131 14C6  
                         u3091 0FDA                           u4115 124B                           u3340 0CB6  
                         u3260 0C37                           u3180 0B6E                           u3420 00B4  
                         u2620 157C                           u4060 0937                           u2540 1488  
                         u2380 12AD                           u4220 151F                           u4140 14D2  
                         u2700 0DB2                           u2445 0053                           u2525 1388  
                         u3405 0D3A                           u3341 0CB5                           u3261 0C36  
                         u3181 0B6D                           u3501 0158                           u3421 00B3  
                         u2621 157B                           u4061 0933                           u2541 1487  
                         u2381 12AC                           u2285 13D2                           u4045 0A23  
                         u4221 151E                           u4205 150E                           u4141 14D1  
                         u2701 0DB1                           u2470 008A                           u2390 000D  
                         u3350 0CC1                           u3270 0C54                           u3190 0B89  
                         u3502 015F                           u3430 00BA                           u2630 1583  
                         u2550 14A4                           u4150 14E3                           u2710 0DBD  
                         u2471 0089                           u2455 0068                           u2391 000C  
                         u2535 1391                           u3351 0CC0                           u3271 0C53  
                         u3255 0C18                           u3191 0B88                           u3511 0174  
                         u3503 0166                           u3431 00B9                           u2631 1582  
                         u2615 156C                           u2551 14A3                           u2295 13DD  
                         u4151 14E2                           u2711 0DBC                           u2480 008F  
                         u3360 0CC7                           u3280 0C5C                           u3512 017B  
                         u3440 00BF                           u2560 14BE                           u2800 0E6C  
                         u2720 0DC3                           u2481 008E                           u2465 007C  
                         u3361 0CC6                           u3281 0C5B                           u3265 0C33  
                         u3601 02AF                           u3521 01A0                           u3513 0182  
                         u3441 00BE                           u2561 14BD                           u2801 0E6B  
                         u2721 0DC2                           u3370 0CD9                           u2490 126A  
                         u3610 02D9                           u3602 02B6                           u3522 01A7  
                         u3450 00E0                           u2650 1594                           u2570 1536  
                         u4074 093A                           u4170 14F5                           u2730 0DC8  
                         u4090 123D                           u3371 0CD8                           u2491 1269  
                         u3603 02BD                           u3531 01BC                           u3523 01AE  
                         u3451 00DF                           u2651 1593                           u2571 1535  
                         u4171 14F4                           u2731 0DC7                           u4091 123C  
                         u3380 0CF6                           u3700 0358                           u3532 01C3  
                         u3460 00E6                           u2660 1599                           u2580 154D  
                         u2900 0EE7                           u2820 0E82                           u2740 0DE1  
                         u3701 0357                           u3621 02E5                           u3533 01CA  
                         u3461 00E5                           u2661 1598                           u2645 1586  
                         u4085 093F                           u2565 14BA                           u4165 14E7  
                         u2901 0EE6                           u2821 0E81                           u2741 0DE0  
                         u3390 0D21                           u3710 036C                           u3630 0301  
                         u3622 02EC                           u3470 00EB                           u2590 1563  
                         u4190 1506                           u2830 0E86                           u2750 0DE5  
                         u2670 0D89                           u3391 0D20                           u3295 0C62  
                         u3711 036B                           u3623 02F3                           u3615 02D4  
                         u3551 01F2                           u3471 00EA                           u2591 1562  
                         u4191 1505                           u2911 0EFE                           u2903 0EE3  
                         u2831 0E85                           u2815 0E6F                           u2751 0DE4  
                         u2671 0D88                           u3720 0373                           u3552 01F9  
                         u3480 0102                           u3800 15B1                           u2920 0F12  
                         u2912 0EFF                           u2840 0E8B                           u2760 0E3D  
                         u2680 0D8F                           u3385 0CF1                           u3721 0372  
                         u3641 030D                           u3561 021F                           u3553 0200  
                         u3545 01CC                           u3481 0101                           u2585 1548  
                         u3801 15B0                           u4185 14F6                           u2921 0F13  
                         u2913 0F04                           u2841 0E8A                           u2761 0E3C  
                         u2681 0D8E                           u3730 0379                           u3642 0314  
                         u3562 0226                           u3490 0107                           u3810 15D1  
                         u2930 0F30                           u2922 0F18                           u2914 0F05  
                         u2770 0E48                           u2690 0D94                           u3395 0D1D  
                         u3731 0378                           u3643 031B                           u3635 02FC  
                         u3563 022D                           u3491 0106                           u3811 15D0  
                         u4195 1502                           u2931 0F2F                           u2923 0F19  
                         u2915 0F0A                           u2851 0E9D                           u2771 0E46  
                         u2691 0D93                           u3740 038B                           u3900 1643  
                         u2940 0F55                           u2916 0F0B                           u2860 0EAF  
                         u2852 0EA4                           u2780 0E49                           u4357 12FF  
                         u3741 038A                           u3581 0255                           u2941 0F54  
                         u2861 0EAE                           u2853 0EAB                           u2765 0E39  
                         u3750 039A                           u3670 033F                           u3582 025C  
                         u3910 1653                           u3830 15F2                           u2950 0F5A  
                         u2870 0EB3                           u2790 0E5D                           u3671 033E  
                         u3655 031D                           u3591 0282                           u3583 0263  
                         u3575 022F                           u3911 1652                           u3831 15F1  
                         u2951 0F59                           u2871 0EB2                           u2791 0E5C  
                         u3760 03B7                           u3592 0289                           u3920 1657  
                         u2880 0EC2                           u3761 03B6                           u3665 0334  
                         u3593 0290                           u3921 1656                           u3905 163E  
                         u3825 15E4                           u2881 0EC1                           u3770 03D1  
                         u3690 0353                           u3850 1614                           u3930 1221  
                         u2970 0F70                           u3771 03D0                           u3755 0395  
                         u3691 0352                           u3851 1613                           u3931 1220  
                         u2971 0F6F                           u3780 03EF                           u3940 1230  
                         u2980 0F75                           u3781 03EE                           u3765 03B3  
                         u3685 0342                           u3845 1606                           u3941 122F  
                         u2981 0F74                           u2965 0F65                           u3870 1624  
                         u3790 15AD                           u3950 1735                           u2990 0F7F  
                         u3775 03CD                           u3871 1623                           u3791 15AC  
                         u3951 1734                           u2991 0F7E                           u2895 0EC5  
                         u3880 162A                           u3960 173F                           u3881 1629  
                         u3865 1619                           u3945 122C                           u3961 173E  
                         u3890 162E                           u3970 179D                           u3891 162D  
                         u3971 179C                           u3980 12E5                           u3981 12E4  
                         u3965 173B                           u3995 12F1                           _main 12AE  
                         _erro 01A0                           _menu 00ED                           btemp 007E  
             __end_of_ADC_Init 11E7               __end_of_ADC_Read 1312                           start 0000  
              ___fldiv@new_exp 00B5                  ___fltol@sign1 002A                __end_of___aldiv 00A3  
              __end_of___fladd 1000                          ?_main 0070                          _CCP1X 00BD  
              __end_of___fldiv 0D78                          _CCP1Y 00BC                          _CCP2X 00ED  
                        _CCP2Y 00EC                __end_of___awdiv 1529                __end_of___flmul 0404  
              __end_of___flsub 0865                __end_of___fltol 15A5                ___awdiv@divisor 0070  
              __end_of___lwdiv 1472                __end_of___lwmod 13EE                ___awdiv@counter 0075  
                        _PORTD 0008                          _TRISA 0085                          _TRISB 0086  
                        _TRISC 0087                          _TRISD 0088                          _TRISE 0089  
        ??_imprimirTemperatura 0031                __end_of_lcd_dat 121B                __end_of_lcd_cmd 120B  
              __end_of_lcd_str 12AE             __size_of_PWM1_Duty 00E4                    ?_PWM1_Start 0070  
           __size_of_PWM2_Duty 00E4                    ?_PWM2_Start 0070                __end_of_dpowers 101A  
                        pclath 000A               __end_of_PWM_Init 13B4                          status 0003  
                        wtemp0 007E                __end_of_sprintf 0B15               ?_realizarCalculo 0070  
              __initialization 07C6                   __end_of_main 12DE                         ??_main 007E  
           _setPointReferencia 00DD                         _ADCON0 001F                         _ADCON1 009F  
                       _CCP1M2 00BA                         _CCP1M3 00BB                         _CCP2M2 00EA  
                       _CCP2M3 00EB                         _ADRESH 001E                         _ADRESL 009E  
                       _CCPR1L 0015                         _CCPR2L 001B               ___awdiv@dividend 0072  
            ??_controlarCooler 007E                         _TMR2ON 0092                         _TRISC1 0439  
                       _TRISC2 043A               __end_of___xxtofl 1661           _controleMaximoMinimo 121B  
             __end_of_lcd_init 137D                         ___fleq 1472              __end_of_PWM1_Duty 0A2D  
            __end_of_PWM2_Duty 0949                      ??___aldiv 0078                      ??___fladd 005E  
   __end_of_imprimirValoresLcd 1800                         ___wmul 1237                      ??___fldiv 006A  
                    ??___awdiv 0074            __size_of_PWM1_Start 0009                      ??___flmul 0044  
                    ??___flsub 007E                      ??___fltol 0079            __size_of_PWM2_Start 000B  
                    ??___lwdiv 007A                      ??___lwmod 0074                         _lcd_wr 11C0  
              ADC_Read@channel 0074               ___awdiv@quotient 0077                      ??_lcd_dat 0071  
                    ??_lcd_cmd 0071                      ??_lcd_str 0074             __size_of__Umul8_16 0027  
                 PWM_Init@freq 0026                      ?_ADC_Init 0070                      ?_ADC_Read 0070  
                    ??_sprintf 0025                   ___xxtofl@arg 0038                   ___xxtofl@exp 0037  
                 ___xxtofl@val 002E                     ___fleq@ff1 003C                     ___fleq@ff2 0040  
      __end_of__initialization 07FC                     ___fltol@f1 0026          ?_controleMaximoMinimo 002C  
               __pcstackCOMMON 0070                   __pidataBANK1 11D6                   __pidataBANK3 11CE  
                    ?_PWM_Init 0026                     ??_ADC_Init 0070                     ??_ADC_Read 0072  
                   __pbssBANK1 00D9                     __pbssBANK2 0110                     __pbssBANK3 0190  
            __end_of__Umul8_16 1283                     __pmaintext 12AE                        ?___fleq 003C  
                      ?___wmul 0075                        ?_lcd_wr 0070                     _derivativo 0194  
                   ??_PWM_Init 0079                        _T2CKPS0 0090                        _T2CKPS1 0091  
                    ?___xxtofl 002E                   ??_PWM1_Start 0070                   ??_PWM2_Start 0070  
                    ?_lcd_init 0070                     __stringtab 1000         ??_controleMaximoMinimo 007E  
                   _iniciarLcd 13EE                        ___aldiv 0006                __size_of___fleq 0050  
                      ___fladd 0D78                        ___fldiv 0B15                        ___awdiv 14C2  
                      ___flmul 00A3                        ___flsub 0815                        ___fltol 1529  
              __size_of___wmul 0025                        ___lwdiv 142E                        ___lwmod 13B4  
           __end_of_PWM1_Start 11F0             __end_of_PWM2_Start 11FB                __size_of_lcd_wr 0006  
  __end_of_imprimirTemperatura 172D                        __ptext1 0404                        __ptext2 1237  
                      __ptext3 0815                        __ptext4 0D78                        __ptext5 14C2  
                      __ptext6 0949                        __ptext7 13EE                        __ptext8 1347  
                      __ptext9 172D                        _lcd_dat 120B                        _lcd_cmd 11FB  
                      _lcd_str 1283                        _dpowers 1010                _controlarCooler 1312  
                   ??___xxtofl 0032               ___aldiv@dividend 0074                        _sprintf 0A2D  
                      clrloop0 11C7                     ??_lcd_init 0072           end_of_initialization 07FC  
             ___aldiv@quotient 0022       __size_of_realizarCalculo 03C2                      _PWM1_Duty 0949  
                    _PWM2_Duty 0865                      _PORTEbits 0009                    ___fladd@grs 0069  
                ___xxtofl@sign 0036      controleMaximoMinimo@valor 002C             _imprimirValoresLcd 172D  
                   lcd_dat@val 0071                     lcd_cmd@val 0071                    ___fldiv@grs 00B7  
                  ___fldiv@rem 00B0              __size_of_ADC_Init 0009              __size_of_ADC_Read 0034  
                 _kpReferencia 01A8            ?_imprimirValoresLcd 0070                    ___flmul@grs 004A  
                   lcd_str@str 0072                    ?_iniciarLcd 0070        __end_of_controlarCooler 1347  
               __end_of___fleq 14C2                 __end_of___wmul 125C                _setPoint_string 01AA  
         ??_imprimirValoresLcd 0048                     ?_PWM1_Duty 00BD                     ?_PWM2_Duty 00BD  
               __end_of_lcd_wr 11C6              __size_of_PWM_Init 0037            start_initialization 07C6  
                     ??___fleq 0044          controlarCooler@cooler 00C3                       ??___wmul 0079  
                   init_fetch0 0802                      __Umul8_16 125C                       ??_lcd_wr 0070  
                  __pdataBANK1 00E7                    __pdataBANK3 01CA                      ___fladd@a 005A  
                    ___fladd@b 0056                      ___fldiv@a 00A8                      ___fldiv@b 00AC  
                    ___flmul@a 0040                      ___flmul@b 003C                      ___flsub@a 00A0  
                    ___flsub@b 00A4                      ___latbits 0002                  __pcstackBANK0 0020  
                __pcstackBANK1 00A0              ??_realizarCalculo 00C3            __size_of_iniciarLcd 0040  
            __size_of___xxtofl 00BC              __size_of_lcd_init 0036                    sprintf@flag 0029  
                  sprintf@prec 002A               ___lwdiv@dividend 0078          _temperaturaReferencia 01A4  
                     ?___aldiv 0070                       ?___fladd 0056                       ?___fldiv 00A8  
                     ?___awdiv 0070                       ?___flmul 003C                       ?___flsub 00A0  
                     ?___fltol 0026                     ?__Umul8_16 0070                       ?___lwdiv 0076  
                     ?___lwmod 0070               ?_controlarCooler 0070                    ??_PWM1_Duty 00C1  
                  ??_PWM2_Duty 00C1                      __pstrings 1000                       ?_lcd_dat 0070  
                     ?_lcd_cmd 0070                       ?_lcd_str 0072                       _ADC_Init 11DE  
                     _ADC_Read 12DE      imprimirTemperatura@dezena 0036               ___lwdiv@quotient 007B  
    imprimirTemperatura@milhar 0032                       ?_sprintf 0020                      _kp_string 0110  
              ___aldiv@divisor 0070                ___aldiv@counter 0020                 ___wmul@product 0079  
                    clear_ram0 11C6  __size_of_controleMaximoMinimo 001C                  PWM1_Duty@freq 00BF  
                PWM1_Duty@duty 00BD                       _GO_nDONE 00FA                  PWM2_Duty@freq 00BF  
                PWM2_Duty@duty 00BD        controlarValores@S1Atual 00E5        controlarValores@S2Atual 00E3  
      controlarValores@S3Atual 00E1        controlarValores@S4Atual 00DF                    __stringbase 100F  
                     _PWM_Init 137D              ___wmul@multiplier 0075                      lcd_wr@val 0070  
 __size_of_imprimirTemperatura 00CC     controlarValores@S1Anterior 00E6     controlarValores@S2Anterior 00E4  
   controlarValores@S3Anterior 00E2     controlarValores@S4Anterior 00E0                   ??_iniciarLcd 007E  
                  ??__Umul8_16 0072               __size_of___aldiv 009D               __size_of___fladd 0288  
             __size_of___fldiv 0263               __size_of___awdiv 0067               __size_of___flmul 0361  
             __size_of___flsub 0050               __size_of___fltol 007C               __size_of___lwdiv 0044  
             __size_of___lwmod 003A             __end_of__stringtab 1010               __size_of_lcd_dat 0010  
             __size_of_lcd_cmd 0010               __size_of_lcd_str 002B                     sprintf@val 002B  
                     ___xxtofl 15A5                ___lwdiv@divisor 0076                ___lwdiv@counter 007D  
                     __ptext10 1661                       __ptext11 0A2D                       __ptext20 121B  
                     __ptext12 13B4                       __ptext21 0865                       __ptext13 142E  
                     __ptext30 11F0                       __ptext22 15A5                       __ptext14 1283  
                     __ptext31 11E7                       __ptext23 1529                       __ptext15 120B  
                     __ptext32 11DE                       __ptext24 00A3                       __ptext16 11FB  
                     __ptext25 125C                       __ptext17 11C0                       __ptext26 0B15  
                     __ptext18 1472                       __ptext27 137D                       __ptext19 1312  
                     __ptext28 0006                       __ptext29 12DE             __end_of_iniciarLcd 142E  
                     _lcd_init 1347               __size_of_sprintf 00E8                  __size_of_main 0030  
                     _integral 0198                       _setPoint 00EB                _realizarCalculo 0404  
                     lcd_str@i 0075    __size_of_imprimirValoresLcd 00D3                       init_ram0 0806  
                    sprintf@ap 0028                      sprintf@sp 002D               ___lwmod@dividend 0072  
                    stringcode 100A         __Umul8_16@multiplicand 0070                    _temperatura 00D9  
                     sprintf@c 002E                       sprintf@f 0020                ___lwmod@divisor 0070  
              ___lwmod@counter 0075                       stringdir 100A                       stringtab 1000  
                 ___aldiv@sign 0021                     _PWM1_Start 11E7                     _PWM2_Start 11F0  
      _imprimirTemperatura$859 0038                  ___fladd@signs 0066                   ___fladd@aexp 0067  
                 ___fladd@bexp 0068           __Umul8_16@multiplier 0078     imprimirTemperatura@centena 0034  
      __end_of_realizarCalculo 07C6            _imprimirTemperatura 1661              __Umul8_16@product 0074  
